
TRACES_Secure.elf:     file format elf32-littlearm

Sections:
Idx Name          Size      VMA       LMA       File off  Algn
  0 .isr_vector   000001f4  0c000000  0c000000  00010000  2**0
                  CONTENTS, ALLOC, LOAD, READONLY, DATA
  1 .text         00007afc  0c0001f4  0c0001f4  000101f4  2**2
                  CONTENTS, ALLOC, LOAD, READONLY, CODE
  2 .rodata       000000b0  0c007cf0  0c007cf0  00017cf0  2**2
                  CONTENTS, ALLOC, LOAD, READONLY, DATA
  3 .ARM.extab    00000000  0c007da0  0c007da0  0002e060  2**0
                  CONTENTS
  4 .ARM          00000008  0c007da0  0c007da0  00017da0  2**2
                  CONTENTS, ALLOC, LOAD, READONLY, DATA
  5 .preinit_array 00000000  0c007da8  0c007da8  0002e060  2**0
                  CONTENTS, ALLOC, LOAD, DATA
  6 .init_array   00000004  0c007da8  0c007da8  00017da8  2**2
                  CONTENTS, ALLOC, LOAD, DATA
  7 .fini_array   00000004  0c007dac  0c007dac  00017dac  2**2
                  CONTENTS, ALLOC, LOAD, DATA
  8 .data         00000034  30000000  0c007db0  00020000  2**2
                  CONTENTS, ALLOC, LOAD, DATA
  9 .cfa_data     00000468  30000034  0c007de4  00020034  2**2
                  CONTENTS, ALLOC, LOAD, DATA
 10 .gnu.sgstubs  00000060  0c03e000  0c03e000  0002e000  2**5
                  CONTENTS, ALLOC, LOAD, READONLY, CODE
 11 .bss          00000398  3000049c  3000049c  0003049c  2**2
                  ALLOC
 12 ._user_heap_stack 00000604  30000834  30000834  0003049c  2**0
                  ALLOC
 13 .ARM.attributes 00000036  00000000  00000000  0002e060  2**0
                  CONTENTS, READONLY
 14 .debug_info   00017dfd  00000000  00000000  0002e096  2**0
                  CONTENTS, READONLY, DEBUGGING, OCTETS
 15 .debug_abbrev 00003899  00000000  00000000  00045e93  2**0
                  CONTENTS, READONLY, DEBUGGING, OCTETS
 16 .debug_aranges 000015b0  00000000  00000000  00049730  2**3
                  CONTENTS, READONLY, DEBUGGING, OCTETS
 17 .debug_ranges 00001438  00000000  00000000  0004ace0  2**3
                  CONTENTS, READONLY, DEBUGGING, OCTETS
 18 .debug_macro  00006879  00000000  00000000  0004c118  2**0
                  CONTENTS, READONLY, DEBUGGING, OCTETS
 19 .debug_line   00019da6  00000000  00000000  00052991  2**0
                  CONTENTS, READONLY, DEBUGGING, OCTETS
 20 .debug_str    00111483  00000000  00000000  0006c737  2**0
                  CONTENTS, READONLY, DEBUGGING, OCTETS
 21 .comment      00000050  00000000  00000000  0017dbba  2**0
                  CONTENTS, READONLY
 22 .debug_frame  000059a4  00000000  00000000  0017dc0c  2**2
                  CONTENTS, READONLY, DEBUGGING, OCTETS

Disassembly of section .text:

0c0001f4 <__do_global_dtors_aux>:
 c0001f4:	b510      	push	{r4, lr}
 c0001f6:	4c05      	ldr	r4, [pc, #20]	; (c00020c <__do_global_dtors_aux+0x18>)
 c0001f8:	7823      	ldrb	r3, [r4, #0]
 c0001fa:	b933      	cbnz	r3, c00020a <__do_global_dtors_aux+0x16>
 c0001fc:	4b04      	ldr	r3, [pc, #16]	; (c000210 <__do_global_dtors_aux+0x1c>)
 c0001fe:	b113      	cbz	r3, c000206 <__do_global_dtors_aux+0x12>
 c000200:	4804      	ldr	r0, [pc, #16]	; (c000214 <__do_global_dtors_aux+0x20>)
 c000202:	e000      	b.n	c000206 <__do_global_dtors_aux+0x12>
 c000204:	bf00      	nop
 c000206:	2301      	movs	r3, #1
 c000208:	7023      	strb	r3, [r4, #0]
 c00020a:	bd10      	pop	{r4, pc}
 c00020c:	3000049c 	.word	0x3000049c
 c000210:	00000000 	.word	0x00000000
 c000214:	0c007cd8 	.word	0x0c007cd8

0c000218 <frame_dummy>:
 c000218:	b508      	push	{r3, lr}
 c00021a:	4b03      	ldr	r3, [pc, #12]	; (c000228 <frame_dummy+0x10>)
 c00021c:	b11b      	cbz	r3, c000226 <frame_dummy+0xe>
 c00021e:	4903      	ldr	r1, [pc, #12]	; (c00022c <frame_dummy+0x14>)
 c000220:	4803      	ldr	r0, [pc, #12]	; (c000230 <frame_dummy+0x18>)
 c000222:	e000      	b.n	c000226 <frame_dummy+0xe>
 c000224:	bf00      	nop
 c000226:	bd08      	pop	{r3, pc}
 c000228:	00000000 	.word	0x00000000
 c00022c:	300004a0 	.word	0x300004a0
 c000230:	0c007cd8 	.word	0x0c007cd8

0c000234 <strcmp>:
 c000234:	f810 2b01 	ldrb.w	r2, [r0], #1
 c000238:	f811 3b01 	ldrb.w	r3, [r1], #1
 c00023c:	2a01      	cmp	r2, #1
 c00023e:	bf28      	it	cs
 c000240:	429a      	cmpcs	r2, r3
 c000242:	d0f7      	beq.n	c000234 <strcmp>
 c000244:	1ad0      	subs	r0, r2, r3
 c000246:	4770      	bx	lr

0c000248 <__gnu_cmse_nonsecure_call>:
 c000248:	e92d 4fe0 	stmdb	sp!, {r5, r6, r7, r8, r9, sl, fp, lr}
 c00024c:	4627      	mov	r7, r4
 c00024e:	46a0      	mov	r8, r4
 c000250:	46a1      	mov	r9, r4
 c000252:	46a2      	mov	sl, r4
 c000254:	46a3      	mov	fp, r4
 c000256:	46a4      	mov	ip, r4
 c000258:	ed2d 8b10 	vpush	{d8-d15}
 c00025c:	f04f 0500 	mov.w	r5, #0
 c000260:	ec45 5b18 	vmov	d8, r5, r5
 c000264:	ec45 5a19 	vmov	s18, s19, r5, r5
 c000268:	ec45 5a1a 	vmov	s20, s21, r5, r5
 c00026c:	ec45 5a1b 	vmov	s22, s23, r5, r5
 c000270:	ec45 5a1c 	vmov	s24, s25, r5, r5
 c000274:	ec45 5a1d 	vmov	s26, s27, r5, r5
 c000278:	ec45 5a1e 	vmov	s28, s29, r5, r5
 c00027c:	ec45 5a1f 	vmov	s30, s31, r5, r5
 c000280:	eef1 5a10 	vmrs	r5, fpscr
 c000284:	f64f 7660 	movw	r6, #65376	; 0xff60
 c000288:	f6c0 76ff 	movt	r6, #4095	; 0xfff
 c00028c:	4035      	ands	r5, r6
 c00028e:	eee1 5a10 	vmsr	fpscr, r5
 c000292:	f384 8800 	msr	CPSR_f, r4
 c000296:	4625      	mov	r5, r4
 c000298:	4626      	mov	r6, r4
 c00029a:	47a4      	blxns	r4
 c00029c:	ecbd 8b10 	vpop	{d8-d15}
 c0002a0:	e8bd 8fe0 	ldmia.w	sp!, {r5, r6, r7, r8, r9, sl, fp, pc}

0c0002a4 <__aeabi_uldivmod>:
 c0002a4:	b953      	cbnz	r3, c0002bc <__aeabi_uldivmod+0x18>
 c0002a6:	b94a      	cbnz	r2, c0002bc <__aeabi_uldivmod+0x18>
 c0002a8:	2900      	cmp	r1, #0
 c0002aa:	bf08      	it	eq
 c0002ac:	2800      	cmpeq	r0, #0
 c0002ae:	bf1c      	itt	ne
 c0002b0:	f04f 31ff 	movne.w	r1, #4294967295	; 0xffffffff
 c0002b4:	f04f 30ff 	movne.w	r0, #4294967295	; 0xffffffff
 c0002b8:	f000 b982 	b.w	c0005c0 <__aeabi_idiv0>
 c0002bc:	f1ad 0c08 	sub.w	ip, sp, #8
 c0002c0:	e96d ce04 	strd	ip, lr, [sp, #-16]!
 c0002c4:	f000 f806 	bl	c0002d4 <__udivmoddi4>
 c0002c8:	f8dd e004 	ldr.w	lr, [sp, #4]
 c0002cc:	e9dd 2302 	ldrd	r2, r3, [sp, #8]
 c0002d0:	b004      	add	sp, #16
 c0002d2:	4770      	bx	lr

0c0002d4 <__udivmoddi4>:
 c0002d4:	e92d 4ff0 	stmdb	sp!, {r4, r5, r6, r7, r8, r9, sl, fp, lr}
 c0002d8:	9d09      	ldr	r5, [sp, #36]	; 0x24
 c0002da:	4604      	mov	r4, r0
 c0002dc:	460f      	mov	r7, r1
 c0002de:	2b00      	cmp	r3, #0
 c0002e0:	d148      	bne.n	c000374 <__udivmoddi4+0xa0>
 c0002e2:	428a      	cmp	r2, r1
 c0002e4:	4694      	mov	ip, r2
 c0002e6:	d961      	bls.n	c0003ac <__udivmoddi4+0xd8>
 c0002e8:	fab2 f382 	clz	r3, r2
 c0002ec:	b143      	cbz	r3, c000300 <__udivmoddi4+0x2c>
 c0002ee:	f1c3 0120 	rsb	r1, r3, #32
 c0002f2:	409f      	lsls	r7, r3
 c0002f4:	fa02 fc03 	lsl.w	ip, r2, r3
 c0002f8:	409c      	lsls	r4, r3
 c0002fa:	fa20 f101 	lsr.w	r1, r0, r1
 c0002fe:	430f      	orrs	r7, r1
 c000300:	ea4f 411c 	mov.w	r1, ip, lsr #16
 c000304:	fa1f fe8c 	uxth.w	lr, ip
 c000308:	0c22      	lsrs	r2, r4, #16
 c00030a:	fbb7 f6f1 	udiv	r6, r7, r1
 c00030e:	fb01 7716 	mls	r7, r1, r6, r7
 c000312:	fb06 f00e 	mul.w	r0, r6, lr
 c000316:	ea42 4207 	orr.w	r2, r2, r7, lsl #16
 c00031a:	4290      	cmp	r0, r2
 c00031c:	d908      	bls.n	c000330 <__udivmoddi4+0x5c>
 c00031e:	eb1c 0202 	adds.w	r2, ip, r2
 c000322:	f106 37ff 	add.w	r7, r6, #4294967295	; 0xffffffff
 c000326:	d202      	bcs.n	c00032e <__udivmoddi4+0x5a>
 c000328:	4290      	cmp	r0, r2
 c00032a:	f200 8137 	bhi.w	c00059c <__udivmoddi4+0x2c8>
 c00032e:	463e      	mov	r6, r7
 c000330:	1a12      	subs	r2, r2, r0
 c000332:	b2a4      	uxth	r4, r4
 c000334:	fbb2 f0f1 	udiv	r0, r2, r1
 c000338:	fb01 2210 	mls	r2, r1, r0, r2
 c00033c:	fb00 fe0e 	mul.w	lr, r0, lr
 c000340:	ea44 4402 	orr.w	r4, r4, r2, lsl #16
 c000344:	45a6      	cmp	lr, r4
 c000346:	d908      	bls.n	c00035a <__udivmoddi4+0x86>
 c000348:	eb1c 0404 	adds.w	r4, ip, r4
 c00034c:	f100 32ff 	add.w	r2, r0, #4294967295	; 0xffffffff
 c000350:	d202      	bcs.n	c000358 <__udivmoddi4+0x84>
 c000352:	45a6      	cmp	lr, r4
 c000354:	f200 811c 	bhi.w	c000590 <__udivmoddi4+0x2bc>
 c000358:	4610      	mov	r0, r2
 c00035a:	ea40 4006 	orr.w	r0, r0, r6, lsl #16
 c00035e:	eba4 040e 	sub.w	r4, r4, lr
 c000362:	2600      	movs	r6, #0
 c000364:	b11d      	cbz	r5, c00036e <__udivmoddi4+0x9a>
 c000366:	40dc      	lsrs	r4, r3
 c000368:	2300      	movs	r3, #0
 c00036a:	e9c5 4300 	strd	r4, r3, [r5]
 c00036e:	4631      	mov	r1, r6
 c000370:	e8bd 8ff0 	ldmia.w	sp!, {r4, r5, r6, r7, r8, r9, sl, fp, pc}
 c000374:	428b      	cmp	r3, r1
 c000376:	d909      	bls.n	c00038c <__udivmoddi4+0xb8>
 c000378:	2d00      	cmp	r5, #0
 c00037a:	f000 80fd 	beq.w	c000578 <__udivmoddi4+0x2a4>
 c00037e:	2600      	movs	r6, #0
 c000380:	e9c5 0100 	strd	r0, r1, [r5]
 c000384:	4630      	mov	r0, r6
 c000386:	4631      	mov	r1, r6
 c000388:	e8bd 8ff0 	ldmia.w	sp!, {r4, r5, r6, r7, r8, r9, sl, fp, pc}
 c00038c:	fab3 f683 	clz	r6, r3
 c000390:	2e00      	cmp	r6, #0
 c000392:	d14b      	bne.n	c00042c <__udivmoddi4+0x158>
 c000394:	428b      	cmp	r3, r1
 c000396:	f0c0 80f2 	bcc.w	c00057e <__udivmoddi4+0x2aa>
 c00039a:	4282      	cmp	r2, r0
 c00039c:	f240 80ef 	bls.w	c00057e <__udivmoddi4+0x2aa>
 c0003a0:	4630      	mov	r0, r6
 c0003a2:	2d00      	cmp	r5, #0
 c0003a4:	d0e3      	beq.n	c00036e <__udivmoddi4+0x9a>
 c0003a6:	e9c5 4700 	strd	r4, r7, [r5]
 c0003aa:	e7e0      	b.n	c00036e <__udivmoddi4+0x9a>
 c0003ac:	b902      	cbnz	r2, c0003b0 <__udivmoddi4+0xdc>
 c0003ae:	deff      	udf	#255	; 0xff
 c0003b0:	fab2 f382 	clz	r3, r2
 c0003b4:	2b00      	cmp	r3, #0
 c0003b6:	f040 809d 	bne.w	c0004f4 <__udivmoddi4+0x220>
 c0003ba:	1a89      	subs	r1, r1, r2
 c0003bc:	ea4f 4e12 	mov.w	lr, r2, lsr #16
 c0003c0:	b297      	uxth	r7, r2
 c0003c2:	2601      	movs	r6, #1
 c0003c4:	0c20      	lsrs	r0, r4, #16
 c0003c6:	fbb1 f2fe 	udiv	r2, r1, lr
 c0003ca:	fb0e 1112 	mls	r1, lr, r2, r1
 c0003ce:	ea40 4101 	orr.w	r1, r0, r1, lsl #16
 c0003d2:	fb07 f002 	mul.w	r0, r7, r2
 c0003d6:	4288      	cmp	r0, r1
 c0003d8:	d90f      	bls.n	c0003fa <__udivmoddi4+0x126>
 c0003da:	eb1c 0101 	adds.w	r1, ip, r1
 c0003de:	f102 38ff 	add.w	r8, r2, #4294967295	; 0xffffffff
 c0003e2:	bf2c      	ite	cs
 c0003e4:	f04f 0901 	movcs.w	r9, #1
 c0003e8:	f04f 0900 	movcc.w	r9, #0
 c0003ec:	4288      	cmp	r0, r1
 c0003ee:	d903      	bls.n	c0003f8 <__udivmoddi4+0x124>
 c0003f0:	f1b9 0f00 	cmp.w	r9, #0
 c0003f4:	f000 80cf 	beq.w	c000596 <__udivmoddi4+0x2c2>
 c0003f8:	4642      	mov	r2, r8
 c0003fa:	1a09      	subs	r1, r1, r0
 c0003fc:	b2a4      	uxth	r4, r4
 c0003fe:	fbb1 f0fe 	udiv	r0, r1, lr
 c000402:	fb0e 1110 	mls	r1, lr, r0, r1
 c000406:	fb00 f707 	mul.w	r7, r0, r7
 c00040a:	ea44 4401 	orr.w	r4, r4, r1, lsl #16
 c00040e:	42a7      	cmp	r7, r4
 c000410:	d908      	bls.n	c000424 <__udivmoddi4+0x150>
 c000412:	eb1c 0404 	adds.w	r4, ip, r4
 c000416:	f100 31ff 	add.w	r1, r0, #4294967295	; 0xffffffff
 c00041a:	d202      	bcs.n	c000422 <__udivmoddi4+0x14e>
 c00041c:	42a7      	cmp	r7, r4
 c00041e:	f200 80b4 	bhi.w	c00058a <__udivmoddi4+0x2b6>
 c000422:	4608      	mov	r0, r1
 c000424:	1be4      	subs	r4, r4, r7
 c000426:	ea40 4002 	orr.w	r0, r0, r2, lsl #16
 c00042a:	e79b      	b.n	c000364 <__udivmoddi4+0x90>
 c00042c:	f1c6 0720 	rsb	r7, r6, #32
 c000430:	40b3      	lsls	r3, r6
 c000432:	fa01 f406 	lsl.w	r4, r1, r6
 c000436:	fa22 fc07 	lsr.w	ip, r2, r7
 c00043a:	40f9      	lsrs	r1, r7
 c00043c:	40b2      	lsls	r2, r6
 c00043e:	ea4c 0c03 	orr.w	ip, ip, r3
 c000442:	fa20 f307 	lsr.w	r3, r0, r7
 c000446:	ea4f 491c 	mov.w	r9, ip, lsr #16
 c00044a:	431c      	orrs	r4, r3
 c00044c:	fa1f fe8c 	uxth.w	lr, ip
 c000450:	fa00 f306 	lsl.w	r3, r0, r6
 c000454:	0c20      	lsrs	r0, r4, #16
 c000456:	fbb1 f8f9 	udiv	r8, r1, r9
 c00045a:	fb09 1118 	mls	r1, r9, r8, r1
 c00045e:	ea40 4101 	orr.w	r1, r0, r1, lsl #16
 c000462:	fb08 f00e 	mul.w	r0, r8, lr
 c000466:	4288      	cmp	r0, r1
 c000468:	d90f      	bls.n	c00048a <__udivmoddi4+0x1b6>
 c00046a:	eb1c 0101 	adds.w	r1, ip, r1
 c00046e:	f108 3aff 	add.w	sl, r8, #4294967295	; 0xffffffff
 c000472:	bf2c      	ite	cs
 c000474:	f04f 0b01 	movcs.w	fp, #1
 c000478:	f04f 0b00 	movcc.w	fp, #0
 c00047c:	4288      	cmp	r0, r1
 c00047e:	d903      	bls.n	c000488 <__udivmoddi4+0x1b4>
 c000480:	f1bb 0f00 	cmp.w	fp, #0
 c000484:	f000 808d 	beq.w	c0005a2 <__udivmoddi4+0x2ce>
 c000488:	46d0      	mov	r8, sl
 c00048a:	1a09      	subs	r1, r1, r0
 c00048c:	b2a4      	uxth	r4, r4
 c00048e:	fbb1 f0f9 	udiv	r0, r1, r9
 c000492:	fb09 1110 	mls	r1, r9, r0, r1
 c000496:	fb00 fe0e 	mul.w	lr, r0, lr
 c00049a:	ea44 4101 	orr.w	r1, r4, r1, lsl #16
 c00049e:	458e      	cmp	lr, r1
 c0004a0:	d907      	bls.n	c0004b2 <__udivmoddi4+0x1de>
 c0004a2:	eb1c 0101 	adds.w	r1, ip, r1
 c0004a6:	f100 34ff 	add.w	r4, r0, #4294967295	; 0xffffffff
 c0004aa:	d201      	bcs.n	c0004b0 <__udivmoddi4+0x1dc>
 c0004ac:	458e      	cmp	lr, r1
 c0004ae:	d87f      	bhi.n	c0005b0 <__udivmoddi4+0x2dc>
 c0004b0:	4620      	mov	r0, r4
 c0004b2:	ea40 4008 	orr.w	r0, r0, r8, lsl #16
 c0004b6:	eba1 010e 	sub.w	r1, r1, lr
 c0004ba:	fba0 9802 	umull	r9, r8, r0, r2
 c0004be:	4541      	cmp	r1, r8
 c0004c0:	464c      	mov	r4, r9
 c0004c2:	46c6      	mov	lr, r8
 c0004c4:	d302      	bcc.n	c0004cc <__udivmoddi4+0x1f8>
 c0004c6:	d106      	bne.n	c0004d6 <__udivmoddi4+0x202>
 c0004c8:	454b      	cmp	r3, r9
 c0004ca:	d204      	bcs.n	c0004d6 <__udivmoddi4+0x202>
 c0004cc:	3801      	subs	r0, #1
 c0004ce:	ebb9 0402 	subs.w	r4, r9, r2
 c0004d2:	eb68 0e0c 	sbc.w	lr, r8, ip
 c0004d6:	2d00      	cmp	r5, #0
 c0004d8:	d070      	beq.n	c0005bc <__udivmoddi4+0x2e8>
 c0004da:	1b1a      	subs	r2, r3, r4
 c0004dc:	eb61 010e 	sbc.w	r1, r1, lr
 c0004e0:	fa22 f306 	lsr.w	r3, r2, r6
 c0004e4:	fa01 f707 	lsl.w	r7, r1, r7
 c0004e8:	40f1      	lsrs	r1, r6
 c0004ea:	2600      	movs	r6, #0
 c0004ec:	431f      	orrs	r7, r3
 c0004ee:	e9c5 7100 	strd	r7, r1, [r5]
 c0004f2:	e73c      	b.n	c00036e <__udivmoddi4+0x9a>
 c0004f4:	fa02 fc03 	lsl.w	ip, r2, r3
 c0004f8:	f1c3 0020 	rsb	r0, r3, #32
 c0004fc:	fa01 f203 	lsl.w	r2, r1, r3
 c000500:	fa21 f600 	lsr.w	r6, r1, r0
 c000504:	ea4f 4e1c 	mov.w	lr, ip, lsr #16
 c000508:	fa24 f100 	lsr.w	r1, r4, r0
 c00050c:	fa1f f78c 	uxth.w	r7, ip
 c000510:	409c      	lsls	r4, r3
 c000512:	4311      	orrs	r1, r2
 c000514:	fbb6 f0fe 	udiv	r0, r6, lr
 c000518:	0c0a      	lsrs	r2, r1, #16
 c00051a:	fb0e 6610 	mls	r6, lr, r0, r6
 c00051e:	ea42 4206 	orr.w	r2, r2, r6, lsl #16
 c000522:	fb00 f607 	mul.w	r6, r0, r7
 c000526:	4296      	cmp	r6, r2
 c000528:	d90e      	bls.n	c000548 <__udivmoddi4+0x274>
 c00052a:	eb1c 0202 	adds.w	r2, ip, r2
 c00052e:	f100 38ff 	add.w	r8, r0, #4294967295	; 0xffffffff
 c000532:	bf2c      	ite	cs
 c000534:	f04f 0901 	movcs.w	r9, #1
 c000538:	f04f 0900 	movcc.w	r9, #0
 c00053c:	4296      	cmp	r6, r2
 c00053e:	d902      	bls.n	c000546 <__udivmoddi4+0x272>
 c000540:	f1b9 0f00 	cmp.w	r9, #0
 c000544:	d031      	beq.n	c0005aa <__udivmoddi4+0x2d6>
 c000546:	4640      	mov	r0, r8
 c000548:	1b92      	subs	r2, r2, r6
 c00054a:	b289      	uxth	r1, r1
 c00054c:	fbb2 f6fe 	udiv	r6, r2, lr
 c000550:	fb0e 2216 	mls	r2, lr, r6, r2
 c000554:	ea41 4102 	orr.w	r1, r1, r2, lsl #16
 c000558:	fb06 f207 	mul.w	r2, r6, r7
 c00055c:	428a      	cmp	r2, r1
 c00055e:	d907      	bls.n	c000570 <__udivmoddi4+0x29c>
 c000560:	eb1c 0101 	adds.w	r1, ip, r1
 c000564:	f106 38ff 	add.w	r8, r6, #4294967295	; 0xffffffff
 c000568:	d201      	bcs.n	c00056e <__udivmoddi4+0x29a>
 c00056a:	428a      	cmp	r2, r1
 c00056c:	d823      	bhi.n	c0005b6 <__udivmoddi4+0x2e2>
 c00056e:	4646      	mov	r6, r8
 c000570:	1a89      	subs	r1, r1, r2
 c000572:	ea46 4600 	orr.w	r6, r6, r0, lsl #16
 c000576:	e725      	b.n	c0003c4 <__udivmoddi4+0xf0>
 c000578:	462e      	mov	r6, r5
 c00057a:	4628      	mov	r0, r5
 c00057c:	e6f7      	b.n	c00036e <__udivmoddi4+0x9a>
 c00057e:	1a84      	subs	r4, r0, r2
 c000580:	eb61 0303 	sbc.w	r3, r1, r3
 c000584:	2001      	movs	r0, #1
 c000586:	461f      	mov	r7, r3
 c000588:	e70b      	b.n	c0003a2 <__udivmoddi4+0xce>
 c00058a:	4464      	add	r4, ip
 c00058c:	3802      	subs	r0, #2
 c00058e:	e749      	b.n	c000424 <__udivmoddi4+0x150>
 c000590:	4464      	add	r4, ip
 c000592:	3802      	subs	r0, #2
 c000594:	e6e1      	b.n	c00035a <__udivmoddi4+0x86>
 c000596:	3a02      	subs	r2, #2
 c000598:	4461      	add	r1, ip
 c00059a:	e72e      	b.n	c0003fa <__udivmoddi4+0x126>
 c00059c:	3e02      	subs	r6, #2
 c00059e:	4462      	add	r2, ip
 c0005a0:	e6c6      	b.n	c000330 <__udivmoddi4+0x5c>
 c0005a2:	f1a8 0802 	sub.w	r8, r8, #2
 c0005a6:	4461      	add	r1, ip
 c0005a8:	e76f      	b.n	c00048a <__udivmoddi4+0x1b6>
 c0005aa:	3802      	subs	r0, #2
 c0005ac:	4462      	add	r2, ip
 c0005ae:	e7cb      	b.n	c000548 <__udivmoddi4+0x274>
 c0005b0:	3802      	subs	r0, #2
 c0005b2:	4461      	add	r1, ip
 c0005b4:	e77d      	b.n	c0004b2 <__udivmoddi4+0x1de>
 c0005b6:	3e02      	subs	r6, #2
 c0005b8:	4461      	add	r1, ip
 c0005ba:	e7d9      	b.n	c000570 <__udivmoddi4+0x29c>
 c0005bc:	462e      	mov	r6, r5
 c0005be:	e6d6      	b.n	c00036e <__udivmoddi4+0x9a>

0c0005c0 <__aeabi_idiv0>:
 c0005c0:	4770      	bx	lr
 c0005c2:	bf00      	nop

0c0005c4 <load32>:
  uint16_t x;
  memcpy(&x, b, 2);
  return x;
}

inline static uint32_t load32(uint8_t *b) {
 c0005c4:	b480      	push	{r7}
 c0005c6:	b085      	sub	sp, #20
 c0005c8:	af00      	add	r7, sp, #0
 c0005ca:	6078      	str	r0, [r7, #4]
 c0005cc:	687b      	ldr	r3, [r7, #4]
 c0005ce:	681b      	ldr	r3, [r3, #0]
  uint32_t x;
  memcpy(&x, b, 4);
 c0005d0:	60fb      	str	r3, [r7, #12]
  return x;
 c0005d2:	68fb      	ldr	r3, [r7, #12]
}
 c0005d4:	4618      	mov	r0, r3
 c0005d6:	3714      	adds	r7, #20
 c0005d8:	46bd      	mov	sp, r7
 c0005da:	f85d 7b04 	ldr.w	r7, [sp], #4
 c0005de:	4770      	bx	lr

0c0005e0 <store32>:
  return x;
}

inline static void store16(uint8_t *b, uint16_t i) { memcpy(b, &i, 2); }

inline static void store32(uint8_t *b, uint32_t i) { memcpy(b, &i, 4); }
 c0005e0:	b480      	push	{r7}
 c0005e2:	b083      	sub	sp, #12
 c0005e4:	af00      	add	r7, sp, #0
 c0005e6:	6078      	str	r0, [r7, #4]
 c0005e8:	6039      	str	r1, [r7, #0]
 c0005ea:	683a      	ldr	r2, [r7, #0]
 c0005ec:	687b      	ldr	r3, [r7, #4]
 c0005ee:	601a      	str	r2, [r3, #0]
 c0005f0:	bf00      	nop
 c0005f2:	370c      	adds	r7, #12
 c0005f4:	46bd      	mov	sp, r7
 c0005f6:	f85d 7b04 	ldr.w	r7, [sp], #4
 c0005fa:	4770      	bx	lr

0c0005fc <store64>:

inline static void store64(uint8_t *b, uint64_t i) { memcpy(b, &i, 8); }
 c0005fc:	b580      	push	{r7, lr}
 c0005fe:	b084      	sub	sp, #16
 c000600:	af00      	add	r7, sp, #0
 c000602:	60f8      	str	r0, [r7, #12]
 c000604:	e9c7 2300 	strd	r2, r3, [r7]
 c000608:	463b      	mov	r3, r7
 c00060a:	2208      	movs	r2, #8
 c00060c:	4619      	mov	r1, r3
 c00060e:	68f8      	ldr	r0, [r7, #12]
 c000610:	f007 fb4c 	bl	c007cac <memcpy>
 c000614:	bf00      	nop
 c000616:	3710      	adds	r7, #16
 c000618:	46bd      	mov	sp, r7
 c00061a:	bd80      	pop	{r7, pc}

0c00061c <Hacl_Hash_Lib_LoadStore_uint32s_from_be_bytes>:

#include "Hacl_HMAC_SHA2_256.h"

static void
Hacl_Hash_Lib_LoadStore_uint32s_from_be_bytes(uint32_t *output, uint8_t *input, uint32_t len)
{
 c00061c:	b580      	push	{r7, lr}
 c00061e:	b088      	sub	sp, #32
 c000620:	af00      	add	r7, sp, #0
 c000622:	60f8      	str	r0, [r7, #12]
 c000624:	60b9      	str	r1, [r7, #8]
 c000626:	607a      	str	r2, [r7, #4]
  for (uint32_t i = (uint32_t)0U; i < len; i = i + (uint32_t)1U)
 c000628:	2300      	movs	r3, #0
 c00062a:	61fb      	str	r3, [r7, #28]
 c00062c:	e021      	b.n	c000672 <Hacl_Hash_Lib_LoadStore_uint32s_from_be_bytes+0x56>
  {
    uint8_t *x0 = input + (uint32_t)4U * i;
 c00062e:	69fb      	ldr	r3, [r7, #28]
 c000630:	009b      	lsls	r3, r3, #2
 c000632:	68ba      	ldr	r2, [r7, #8]
 c000634:	4413      	add	r3, r2
 c000636:	61bb      	str	r3, [r7, #24]
    uint32_t inputi = load32_be(x0);
 c000638:	69b8      	ldr	r0, [r7, #24]
 c00063a:	f7ff ffc3 	bl	c0005c4 <load32>
 c00063e:	6178      	str	r0, [r7, #20]
 c000640:	697b      	ldr	r3, [r7, #20]
 c000642:	0e1a      	lsrs	r2, r3, #24
 c000644:	697b      	ldr	r3, [r7, #20]
 c000646:	0a1b      	lsrs	r3, r3, #8
 c000648:	f403 437f 	and.w	r3, r3, #65280	; 0xff00
 c00064c:	431a      	orrs	r2, r3
 c00064e:	697b      	ldr	r3, [r7, #20]
 c000650:	021b      	lsls	r3, r3, #8
 c000652:	f403 037f 	and.w	r3, r3, #16711680	; 0xff0000
 c000656:	431a      	orrs	r2, r3
 c000658:	697b      	ldr	r3, [r7, #20]
 c00065a:	061b      	lsls	r3, r3, #24
 c00065c:	4313      	orrs	r3, r2
 c00065e:	613b      	str	r3, [r7, #16]
    output[i] = inputi;
 c000660:	69fb      	ldr	r3, [r7, #28]
 c000662:	009b      	lsls	r3, r3, #2
 c000664:	68fa      	ldr	r2, [r7, #12]
 c000666:	4413      	add	r3, r2
 c000668:	693a      	ldr	r2, [r7, #16]
 c00066a:	601a      	str	r2, [r3, #0]
  for (uint32_t i = (uint32_t)0U; i < len; i = i + (uint32_t)1U)
 c00066c:	69fb      	ldr	r3, [r7, #28]
 c00066e:	3301      	adds	r3, #1
 c000670:	61fb      	str	r3, [r7, #28]
 c000672:	69fa      	ldr	r2, [r7, #28]
 c000674:	687b      	ldr	r3, [r7, #4]
 c000676:	429a      	cmp	r2, r3
 c000678:	d3d9      	bcc.n	c00062e <Hacl_Hash_Lib_LoadStore_uint32s_from_be_bytes+0x12>
  }
}
 c00067a:	bf00      	nop
 c00067c:	bf00      	nop
 c00067e:	3720      	adds	r7, #32
 c000680:	46bd      	mov	sp, r7
 c000682:	bd80      	pop	{r7, pc}

0c000684 <Hacl_Hash_Lib_LoadStore_uint32s_to_be_bytes>:

static void
Hacl_Hash_Lib_LoadStore_uint32s_to_be_bytes(uint8_t *output, uint32_t *input, uint32_t len)
{
 c000684:	b580      	push	{r7, lr}
 c000686:	b088      	sub	sp, #32
 c000688:	af00      	add	r7, sp, #0
 c00068a:	60f8      	str	r0, [r7, #12]
 c00068c:	60b9      	str	r1, [r7, #8]
 c00068e:	607a      	str	r2, [r7, #4]
  for (uint32_t i = (uint32_t)0U; i < len; i = i + (uint32_t)1U)
 c000690:	2300      	movs	r3, #0
 c000692:	61fb      	str	r3, [r7, #28]
 c000694:	e022      	b.n	c0006dc <Hacl_Hash_Lib_LoadStore_uint32s_to_be_bytes+0x58>
  {
    uint32_t hd1 = input[i];
 c000696:	69fb      	ldr	r3, [r7, #28]
 c000698:	009b      	lsls	r3, r3, #2
 c00069a:	68ba      	ldr	r2, [r7, #8]
 c00069c:	4413      	add	r3, r2
 c00069e:	681b      	ldr	r3, [r3, #0]
 c0006a0:	61bb      	str	r3, [r7, #24]
    uint8_t *x0 = output + (uint32_t)4U * i;
 c0006a2:	69fb      	ldr	r3, [r7, #28]
 c0006a4:	009b      	lsls	r3, r3, #2
 c0006a6:	68fa      	ldr	r2, [r7, #12]
 c0006a8:	4413      	add	r3, r2
 c0006aa:	617b      	str	r3, [r7, #20]
    store32_be(x0, hd1);
 c0006ac:	69bb      	ldr	r3, [r7, #24]
 c0006ae:	613b      	str	r3, [r7, #16]
 c0006b0:	693b      	ldr	r3, [r7, #16]
 c0006b2:	0e1a      	lsrs	r2, r3, #24
 c0006b4:	693b      	ldr	r3, [r7, #16]
 c0006b6:	0a1b      	lsrs	r3, r3, #8
 c0006b8:	f403 437f 	and.w	r3, r3, #65280	; 0xff00
 c0006bc:	431a      	orrs	r2, r3
 c0006be:	693b      	ldr	r3, [r7, #16]
 c0006c0:	021b      	lsls	r3, r3, #8
 c0006c2:	f403 037f 	and.w	r3, r3, #16711680	; 0xff0000
 c0006c6:	431a      	orrs	r2, r3
 c0006c8:	693b      	ldr	r3, [r7, #16]
 c0006ca:	061b      	lsls	r3, r3, #24
 c0006cc:	4313      	orrs	r3, r2
 c0006ce:	4619      	mov	r1, r3
 c0006d0:	6978      	ldr	r0, [r7, #20]
 c0006d2:	f7ff ff85 	bl	c0005e0 <store32>
  for (uint32_t i = (uint32_t)0U; i < len; i = i + (uint32_t)1U)
 c0006d6:	69fb      	ldr	r3, [r7, #28]
 c0006d8:	3301      	adds	r3, #1
 c0006da:	61fb      	str	r3, [r7, #28]
 c0006dc:	69fa      	ldr	r2, [r7, #28]
 c0006de:	687b      	ldr	r3, [r7, #4]
 c0006e0:	429a      	cmp	r2, r3
 c0006e2:	d3d8      	bcc.n	c000696 <Hacl_Hash_Lib_LoadStore_uint32s_to_be_bytes+0x12>
  }
}
 c0006e4:	bf00      	nop
 c0006e6:	bf00      	nop
 c0006e8:	3720      	adds	r7, #32
 c0006ea:	46bd      	mov	sp, r7
 c0006ec:	bd80      	pop	{r7, pc}
	...

0c0006f0 <Hacl_Impl_SHA2_256_init>:

static void Hacl_Impl_SHA2_256_init(uint32_t *state)
{
 c0006f0:	b480      	push	{r7}
 c0006f2:	b0a3      	sub	sp, #140	; 0x8c
 c0006f4:	af00      	add	r7, sp, #0
 c0006f6:	6078      	str	r0, [r7, #4]
  uint32_t *k1 = state;
 c0006f8:	687b      	ldr	r3, [r7, #4]
 c0006fa:	f8c7 3084 	str.w	r3, [r7, #132]	; 0x84
  uint32_t *h_01 = state + (uint32_t)128U;
 c0006fe:	687b      	ldr	r3, [r7, #4]
 c000700:	f503 7300 	add.w	r3, r3, #512	; 0x200
 c000704:	f8c7 3080 	str.w	r3, [r7, #128]	; 0x80
  uint32_t *p10 = k1;
 c000708:	f8d7 3084 	ldr.w	r3, [r7, #132]	; 0x84
 c00070c:	67fb      	str	r3, [r7, #124]	; 0x7c
  uint32_t *p20 = k1 + (uint32_t)16U;
 c00070e:	f8d7 3084 	ldr.w	r3, [r7, #132]	; 0x84
 c000712:	3340      	adds	r3, #64	; 0x40
 c000714:	67bb      	str	r3, [r7, #120]	; 0x78
  uint32_t *p3 = k1 + (uint32_t)32U;
 c000716:	f8d7 3084 	ldr.w	r3, [r7, #132]	; 0x84
 c00071a:	3380      	adds	r3, #128	; 0x80
 c00071c:	677b      	str	r3, [r7, #116]	; 0x74
  uint32_t *p4 = k1 + (uint32_t)48U;
 c00071e:	f8d7 3084 	ldr.w	r3, [r7, #132]	; 0x84
 c000722:	33c0      	adds	r3, #192	; 0xc0
 c000724:	673b      	str	r3, [r7, #112]	; 0x70
  uint32_t *p11 = p10;
 c000726:	6ffb      	ldr	r3, [r7, #124]	; 0x7c
 c000728:	66fb      	str	r3, [r7, #108]	; 0x6c
  uint32_t *p21 = p10 + (uint32_t)8U;
 c00072a:	6ffb      	ldr	r3, [r7, #124]	; 0x7c
 c00072c:	3320      	adds	r3, #32
 c00072e:	66bb      	str	r3, [r7, #104]	; 0x68
  uint32_t *p12 = p11;
 c000730:	6efb      	ldr	r3, [r7, #108]	; 0x6c
 c000732:	667b      	str	r3, [r7, #100]	; 0x64
  uint32_t *p22 = p11 + (uint32_t)4U;
 c000734:	6efb      	ldr	r3, [r7, #108]	; 0x6c
 c000736:	3310      	adds	r3, #16
 c000738:	663b      	str	r3, [r7, #96]	; 0x60
  p12[0U] = (uint32_t)0x428a2f98U;
 c00073a:	6e7b      	ldr	r3, [r7, #100]	; 0x64
 c00073c:	4a8d      	ldr	r2, [pc, #564]	; (c000974 <Hacl_Impl_SHA2_256_init+0x284>)
 c00073e:	601a      	str	r2, [r3, #0]
  p12[1U] = (uint32_t)0x71374491U;
 c000740:	6e7b      	ldr	r3, [r7, #100]	; 0x64
 c000742:	3304      	adds	r3, #4
 c000744:	4a8c      	ldr	r2, [pc, #560]	; (c000978 <Hacl_Impl_SHA2_256_init+0x288>)
 c000746:	601a      	str	r2, [r3, #0]
  p12[2U] = (uint32_t)0xb5c0fbcfU;
 c000748:	6e7b      	ldr	r3, [r7, #100]	; 0x64
 c00074a:	3308      	adds	r3, #8
 c00074c:	4a8b      	ldr	r2, [pc, #556]	; (c00097c <Hacl_Impl_SHA2_256_init+0x28c>)
 c00074e:	601a      	str	r2, [r3, #0]
  p12[3U] = (uint32_t)0xe9b5dba5U;
 c000750:	6e7b      	ldr	r3, [r7, #100]	; 0x64
 c000752:	330c      	adds	r3, #12
 c000754:	4a8a      	ldr	r2, [pc, #552]	; (c000980 <Hacl_Impl_SHA2_256_init+0x290>)
 c000756:	601a      	str	r2, [r3, #0]
  p22[0U] = (uint32_t)0x3956c25bU;
 c000758:	6e3b      	ldr	r3, [r7, #96]	; 0x60
 c00075a:	4a8a      	ldr	r2, [pc, #552]	; (c000984 <Hacl_Impl_SHA2_256_init+0x294>)
 c00075c:	601a      	str	r2, [r3, #0]
  p22[1U] = (uint32_t)0x59f111f1U;
 c00075e:	6e3b      	ldr	r3, [r7, #96]	; 0x60
 c000760:	3304      	adds	r3, #4
 c000762:	4a89      	ldr	r2, [pc, #548]	; (c000988 <Hacl_Impl_SHA2_256_init+0x298>)
 c000764:	601a      	str	r2, [r3, #0]
  p22[2U] = (uint32_t)0x923f82a4U;
 c000766:	6e3b      	ldr	r3, [r7, #96]	; 0x60
 c000768:	3308      	adds	r3, #8
 c00076a:	4a88      	ldr	r2, [pc, #544]	; (c00098c <Hacl_Impl_SHA2_256_init+0x29c>)
 c00076c:	601a      	str	r2, [r3, #0]
  p22[3U] = (uint32_t)0xab1c5ed5U;
 c00076e:	6e3b      	ldr	r3, [r7, #96]	; 0x60
 c000770:	330c      	adds	r3, #12
 c000772:	4a87      	ldr	r2, [pc, #540]	; (c000990 <Hacl_Impl_SHA2_256_init+0x2a0>)
 c000774:	601a      	str	r2, [r3, #0]
  uint32_t *p13 = p21;
 c000776:	6ebb      	ldr	r3, [r7, #104]	; 0x68
 c000778:	65fb      	str	r3, [r7, #92]	; 0x5c
  uint32_t *p23 = p21 + (uint32_t)4U;
 c00077a:	6ebb      	ldr	r3, [r7, #104]	; 0x68
 c00077c:	3310      	adds	r3, #16
 c00077e:	65bb      	str	r3, [r7, #88]	; 0x58
  p13[0U] = (uint32_t)0xd807aa98U;
 c000780:	6dfb      	ldr	r3, [r7, #92]	; 0x5c
 c000782:	4a84      	ldr	r2, [pc, #528]	; (c000994 <Hacl_Impl_SHA2_256_init+0x2a4>)
 c000784:	601a      	str	r2, [r3, #0]
  p13[1U] = (uint32_t)0x12835b01U;
 c000786:	6dfb      	ldr	r3, [r7, #92]	; 0x5c
 c000788:	3304      	adds	r3, #4
 c00078a:	4a83      	ldr	r2, [pc, #524]	; (c000998 <Hacl_Impl_SHA2_256_init+0x2a8>)
 c00078c:	601a      	str	r2, [r3, #0]
  p13[2U] = (uint32_t)0x243185beU;
 c00078e:	6dfb      	ldr	r3, [r7, #92]	; 0x5c
 c000790:	3308      	adds	r3, #8
 c000792:	4a82      	ldr	r2, [pc, #520]	; (c00099c <Hacl_Impl_SHA2_256_init+0x2ac>)
 c000794:	601a      	str	r2, [r3, #0]
  p13[3U] = (uint32_t)0x550c7dc3U;
 c000796:	6dfb      	ldr	r3, [r7, #92]	; 0x5c
 c000798:	330c      	adds	r3, #12
 c00079a:	4a81      	ldr	r2, [pc, #516]	; (c0009a0 <Hacl_Impl_SHA2_256_init+0x2b0>)
 c00079c:	601a      	str	r2, [r3, #0]
  p23[0U] = (uint32_t)0x72be5d74U;
 c00079e:	6dbb      	ldr	r3, [r7, #88]	; 0x58
 c0007a0:	4a80      	ldr	r2, [pc, #512]	; (c0009a4 <Hacl_Impl_SHA2_256_init+0x2b4>)
 c0007a2:	601a      	str	r2, [r3, #0]
  p23[1U] = (uint32_t)0x80deb1feU;
 c0007a4:	6dbb      	ldr	r3, [r7, #88]	; 0x58
 c0007a6:	3304      	adds	r3, #4
 c0007a8:	4a7f      	ldr	r2, [pc, #508]	; (c0009a8 <Hacl_Impl_SHA2_256_init+0x2b8>)
 c0007aa:	601a      	str	r2, [r3, #0]
  p23[2U] = (uint32_t)0x9bdc06a7U;
 c0007ac:	6dbb      	ldr	r3, [r7, #88]	; 0x58
 c0007ae:	3308      	adds	r3, #8
 c0007b0:	4a7e      	ldr	r2, [pc, #504]	; (c0009ac <Hacl_Impl_SHA2_256_init+0x2bc>)
 c0007b2:	601a      	str	r2, [r3, #0]
  p23[3U] = (uint32_t)0xc19bf174U;
 c0007b4:	6dbb      	ldr	r3, [r7, #88]	; 0x58
 c0007b6:	330c      	adds	r3, #12
 c0007b8:	4a7d      	ldr	r2, [pc, #500]	; (c0009b0 <Hacl_Impl_SHA2_256_init+0x2c0>)
 c0007ba:	601a      	str	r2, [r3, #0]
  uint32_t *p14 = p20;
 c0007bc:	6fbb      	ldr	r3, [r7, #120]	; 0x78
 c0007be:	657b      	str	r3, [r7, #84]	; 0x54
  uint32_t *p24 = p20 + (uint32_t)8U;
 c0007c0:	6fbb      	ldr	r3, [r7, #120]	; 0x78
 c0007c2:	3320      	adds	r3, #32
 c0007c4:	653b      	str	r3, [r7, #80]	; 0x50
  uint32_t *p15 = p14;
 c0007c6:	6d7b      	ldr	r3, [r7, #84]	; 0x54
 c0007c8:	64fb      	str	r3, [r7, #76]	; 0x4c
  uint32_t *p25 = p14 + (uint32_t)4U;
 c0007ca:	6d7b      	ldr	r3, [r7, #84]	; 0x54
 c0007cc:	3310      	adds	r3, #16
 c0007ce:	64bb      	str	r3, [r7, #72]	; 0x48
  p15[0U] = (uint32_t)0xe49b69c1U;
 c0007d0:	6cfb      	ldr	r3, [r7, #76]	; 0x4c
 c0007d2:	4a78      	ldr	r2, [pc, #480]	; (c0009b4 <Hacl_Impl_SHA2_256_init+0x2c4>)
 c0007d4:	601a      	str	r2, [r3, #0]
  p15[1U] = (uint32_t)0xefbe4786U;
 c0007d6:	6cfb      	ldr	r3, [r7, #76]	; 0x4c
 c0007d8:	3304      	adds	r3, #4
 c0007da:	4a77      	ldr	r2, [pc, #476]	; (c0009b8 <Hacl_Impl_SHA2_256_init+0x2c8>)
 c0007dc:	601a      	str	r2, [r3, #0]
  p15[2U] = (uint32_t)0x0fc19dc6U;
 c0007de:	6cfb      	ldr	r3, [r7, #76]	; 0x4c
 c0007e0:	3308      	adds	r3, #8
 c0007e2:	4a76      	ldr	r2, [pc, #472]	; (c0009bc <Hacl_Impl_SHA2_256_init+0x2cc>)
 c0007e4:	601a      	str	r2, [r3, #0]
  p15[3U] = (uint32_t)0x240ca1ccU;
 c0007e6:	6cfb      	ldr	r3, [r7, #76]	; 0x4c
 c0007e8:	330c      	adds	r3, #12
 c0007ea:	4a75      	ldr	r2, [pc, #468]	; (c0009c0 <Hacl_Impl_SHA2_256_init+0x2d0>)
 c0007ec:	601a      	str	r2, [r3, #0]
  p25[0U] = (uint32_t)0x2de92c6fU;
 c0007ee:	6cbb      	ldr	r3, [r7, #72]	; 0x48
 c0007f0:	4a74      	ldr	r2, [pc, #464]	; (c0009c4 <Hacl_Impl_SHA2_256_init+0x2d4>)
 c0007f2:	601a      	str	r2, [r3, #0]
  p25[1U] = (uint32_t)0x4a7484aaU;
 c0007f4:	6cbb      	ldr	r3, [r7, #72]	; 0x48
 c0007f6:	3304      	adds	r3, #4
 c0007f8:	4a73      	ldr	r2, [pc, #460]	; (c0009c8 <Hacl_Impl_SHA2_256_init+0x2d8>)
 c0007fa:	601a      	str	r2, [r3, #0]
  p25[2U] = (uint32_t)0x5cb0a9dcU;
 c0007fc:	6cbb      	ldr	r3, [r7, #72]	; 0x48
 c0007fe:	3308      	adds	r3, #8
 c000800:	4a72      	ldr	r2, [pc, #456]	; (c0009cc <Hacl_Impl_SHA2_256_init+0x2dc>)
 c000802:	601a      	str	r2, [r3, #0]
  p25[3U] = (uint32_t)0x76f988daU;
 c000804:	6cbb      	ldr	r3, [r7, #72]	; 0x48
 c000806:	330c      	adds	r3, #12
 c000808:	4a71      	ldr	r2, [pc, #452]	; (c0009d0 <Hacl_Impl_SHA2_256_init+0x2e0>)
 c00080a:	601a      	str	r2, [r3, #0]
  uint32_t *p16 = p24;
 c00080c:	6d3b      	ldr	r3, [r7, #80]	; 0x50
 c00080e:	647b      	str	r3, [r7, #68]	; 0x44
  uint32_t *p26 = p24 + (uint32_t)4U;
 c000810:	6d3b      	ldr	r3, [r7, #80]	; 0x50
 c000812:	3310      	adds	r3, #16
 c000814:	643b      	str	r3, [r7, #64]	; 0x40
  p16[0U] = (uint32_t)0x983e5152U;
 c000816:	6c7b      	ldr	r3, [r7, #68]	; 0x44
 c000818:	4a6e      	ldr	r2, [pc, #440]	; (c0009d4 <Hacl_Impl_SHA2_256_init+0x2e4>)
 c00081a:	601a      	str	r2, [r3, #0]
  p16[1U] = (uint32_t)0xa831c66dU;
 c00081c:	6c7b      	ldr	r3, [r7, #68]	; 0x44
 c00081e:	3304      	adds	r3, #4
 c000820:	4a6d      	ldr	r2, [pc, #436]	; (c0009d8 <Hacl_Impl_SHA2_256_init+0x2e8>)
 c000822:	601a      	str	r2, [r3, #0]
  p16[2U] = (uint32_t)0xb00327c8U;
 c000824:	6c7b      	ldr	r3, [r7, #68]	; 0x44
 c000826:	3308      	adds	r3, #8
 c000828:	4a6c      	ldr	r2, [pc, #432]	; (c0009dc <Hacl_Impl_SHA2_256_init+0x2ec>)
 c00082a:	601a      	str	r2, [r3, #0]
  p16[3U] = (uint32_t)0xbf597fc7U;
 c00082c:	6c7b      	ldr	r3, [r7, #68]	; 0x44
 c00082e:	330c      	adds	r3, #12
 c000830:	4a6b      	ldr	r2, [pc, #428]	; (c0009e0 <Hacl_Impl_SHA2_256_init+0x2f0>)
 c000832:	601a      	str	r2, [r3, #0]
  p26[0U] = (uint32_t)0xc6e00bf3U;
 c000834:	6c3b      	ldr	r3, [r7, #64]	; 0x40
 c000836:	4a6b      	ldr	r2, [pc, #428]	; (c0009e4 <Hacl_Impl_SHA2_256_init+0x2f4>)
 c000838:	601a      	str	r2, [r3, #0]
  p26[1U] = (uint32_t)0xd5a79147U;
 c00083a:	6c3b      	ldr	r3, [r7, #64]	; 0x40
 c00083c:	3304      	adds	r3, #4
 c00083e:	4a6a      	ldr	r2, [pc, #424]	; (c0009e8 <Hacl_Impl_SHA2_256_init+0x2f8>)
 c000840:	601a      	str	r2, [r3, #0]
  p26[2U] = (uint32_t)0x06ca6351U;
 c000842:	6c3b      	ldr	r3, [r7, #64]	; 0x40
 c000844:	3308      	adds	r3, #8
 c000846:	4a69      	ldr	r2, [pc, #420]	; (c0009ec <Hacl_Impl_SHA2_256_init+0x2fc>)
 c000848:	601a      	str	r2, [r3, #0]
  p26[3U] = (uint32_t)0x14292967U;
 c00084a:	6c3b      	ldr	r3, [r7, #64]	; 0x40
 c00084c:	330c      	adds	r3, #12
 c00084e:	4a68      	ldr	r2, [pc, #416]	; (c0009f0 <Hacl_Impl_SHA2_256_init+0x300>)
 c000850:	601a      	str	r2, [r3, #0]
  uint32_t *p17 = p3;
 c000852:	6f7b      	ldr	r3, [r7, #116]	; 0x74
 c000854:	63fb      	str	r3, [r7, #60]	; 0x3c
  uint32_t *p27 = p3 + (uint32_t)8U;
 c000856:	6f7b      	ldr	r3, [r7, #116]	; 0x74
 c000858:	3320      	adds	r3, #32
 c00085a:	63bb      	str	r3, [r7, #56]	; 0x38
  uint32_t *p18 = p17;
 c00085c:	6bfb      	ldr	r3, [r7, #60]	; 0x3c
 c00085e:	637b      	str	r3, [r7, #52]	; 0x34
  uint32_t *p28 = p17 + (uint32_t)4U;
 c000860:	6bfb      	ldr	r3, [r7, #60]	; 0x3c
 c000862:	3310      	adds	r3, #16
 c000864:	633b      	str	r3, [r7, #48]	; 0x30
  p18[0U] = (uint32_t)0x27b70a85U;
 c000866:	6b7b      	ldr	r3, [r7, #52]	; 0x34
 c000868:	4a62      	ldr	r2, [pc, #392]	; (c0009f4 <Hacl_Impl_SHA2_256_init+0x304>)
 c00086a:	601a      	str	r2, [r3, #0]
  p18[1U] = (uint32_t)0x2e1b2138U;
 c00086c:	6b7b      	ldr	r3, [r7, #52]	; 0x34
 c00086e:	3304      	adds	r3, #4
 c000870:	4a61      	ldr	r2, [pc, #388]	; (c0009f8 <Hacl_Impl_SHA2_256_init+0x308>)
 c000872:	601a      	str	r2, [r3, #0]
  p18[2U] = (uint32_t)0x4d2c6dfcU;
 c000874:	6b7b      	ldr	r3, [r7, #52]	; 0x34
 c000876:	3308      	adds	r3, #8
 c000878:	4a60      	ldr	r2, [pc, #384]	; (c0009fc <Hacl_Impl_SHA2_256_init+0x30c>)
 c00087a:	601a      	str	r2, [r3, #0]
  p18[3U] = (uint32_t)0x53380d13U;
 c00087c:	6b7b      	ldr	r3, [r7, #52]	; 0x34
 c00087e:	330c      	adds	r3, #12
 c000880:	4a5f      	ldr	r2, [pc, #380]	; (c000a00 <Hacl_Impl_SHA2_256_init+0x310>)
 c000882:	601a      	str	r2, [r3, #0]
  p28[0U] = (uint32_t)0x650a7354U;
 c000884:	6b3b      	ldr	r3, [r7, #48]	; 0x30
 c000886:	4a5f      	ldr	r2, [pc, #380]	; (c000a04 <Hacl_Impl_SHA2_256_init+0x314>)
 c000888:	601a      	str	r2, [r3, #0]
  p28[1U] = (uint32_t)0x766a0abbU;
 c00088a:	6b3b      	ldr	r3, [r7, #48]	; 0x30
 c00088c:	3304      	adds	r3, #4
 c00088e:	4a5e      	ldr	r2, [pc, #376]	; (c000a08 <Hacl_Impl_SHA2_256_init+0x318>)
 c000890:	601a      	str	r2, [r3, #0]
  p28[2U] = (uint32_t)0x81c2c92eU;
 c000892:	6b3b      	ldr	r3, [r7, #48]	; 0x30
 c000894:	3308      	adds	r3, #8
 c000896:	4a5d      	ldr	r2, [pc, #372]	; (c000a0c <Hacl_Impl_SHA2_256_init+0x31c>)
 c000898:	601a      	str	r2, [r3, #0]
  p28[3U] = (uint32_t)0x92722c85U;
 c00089a:	6b3b      	ldr	r3, [r7, #48]	; 0x30
 c00089c:	330c      	adds	r3, #12
 c00089e:	4a5c      	ldr	r2, [pc, #368]	; (c000a10 <Hacl_Impl_SHA2_256_init+0x320>)
 c0008a0:	601a      	str	r2, [r3, #0]
  uint32_t *p19 = p27;
 c0008a2:	6bbb      	ldr	r3, [r7, #56]	; 0x38
 c0008a4:	62fb      	str	r3, [r7, #44]	; 0x2c
  uint32_t *p29 = p27 + (uint32_t)4U;
 c0008a6:	6bbb      	ldr	r3, [r7, #56]	; 0x38
 c0008a8:	3310      	adds	r3, #16
 c0008aa:	62bb      	str	r3, [r7, #40]	; 0x28
  p19[0U] = (uint32_t)0xa2bfe8a1U;
 c0008ac:	6afb      	ldr	r3, [r7, #44]	; 0x2c
 c0008ae:	4a59      	ldr	r2, [pc, #356]	; (c000a14 <Hacl_Impl_SHA2_256_init+0x324>)
 c0008b0:	601a      	str	r2, [r3, #0]
  p19[1U] = (uint32_t)0xa81a664bU;
 c0008b2:	6afb      	ldr	r3, [r7, #44]	; 0x2c
 c0008b4:	3304      	adds	r3, #4
 c0008b6:	4a58      	ldr	r2, [pc, #352]	; (c000a18 <Hacl_Impl_SHA2_256_init+0x328>)
 c0008b8:	601a      	str	r2, [r3, #0]
  p19[2U] = (uint32_t)0xc24b8b70U;
 c0008ba:	6afb      	ldr	r3, [r7, #44]	; 0x2c
 c0008bc:	3308      	adds	r3, #8
 c0008be:	4a57      	ldr	r2, [pc, #348]	; (c000a1c <Hacl_Impl_SHA2_256_init+0x32c>)
 c0008c0:	601a      	str	r2, [r3, #0]
  p19[3U] = (uint32_t)0xc76c51a3U;
 c0008c2:	6afb      	ldr	r3, [r7, #44]	; 0x2c
 c0008c4:	330c      	adds	r3, #12
 c0008c6:	4a56      	ldr	r2, [pc, #344]	; (c000a20 <Hacl_Impl_SHA2_256_init+0x330>)
 c0008c8:	601a      	str	r2, [r3, #0]
  p29[0U] = (uint32_t)0xd192e819U;
 c0008ca:	6abb      	ldr	r3, [r7, #40]	; 0x28
 c0008cc:	4a55      	ldr	r2, [pc, #340]	; (c000a24 <Hacl_Impl_SHA2_256_init+0x334>)
 c0008ce:	601a      	str	r2, [r3, #0]
  p29[1U] = (uint32_t)0xd6990624U;
 c0008d0:	6abb      	ldr	r3, [r7, #40]	; 0x28
 c0008d2:	3304      	adds	r3, #4
 c0008d4:	4a54      	ldr	r2, [pc, #336]	; (c000a28 <Hacl_Impl_SHA2_256_init+0x338>)
 c0008d6:	601a      	str	r2, [r3, #0]
  p29[2U] = (uint32_t)0xf40e3585U;
 c0008d8:	6abb      	ldr	r3, [r7, #40]	; 0x28
 c0008da:	3308      	adds	r3, #8
 c0008dc:	4a53      	ldr	r2, [pc, #332]	; (c000a2c <Hacl_Impl_SHA2_256_init+0x33c>)
 c0008de:	601a      	str	r2, [r3, #0]
  p29[3U] = (uint32_t)0x106aa070U;
 c0008e0:	6abb      	ldr	r3, [r7, #40]	; 0x28
 c0008e2:	330c      	adds	r3, #12
 c0008e4:	4a52      	ldr	r2, [pc, #328]	; (c000a30 <Hacl_Impl_SHA2_256_init+0x340>)
 c0008e6:	601a      	str	r2, [r3, #0]
  uint32_t *p110 = p4;
 c0008e8:	6f3b      	ldr	r3, [r7, #112]	; 0x70
 c0008ea:	627b      	str	r3, [r7, #36]	; 0x24
  uint32_t *p210 = p4 + (uint32_t)8U;
 c0008ec:	6f3b      	ldr	r3, [r7, #112]	; 0x70
 c0008ee:	3320      	adds	r3, #32
 c0008f0:	623b      	str	r3, [r7, #32]
  uint32_t *p1 = p110;
 c0008f2:	6a7b      	ldr	r3, [r7, #36]	; 0x24
 c0008f4:	61fb      	str	r3, [r7, #28]
  uint32_t *p211 = p110 + (uint32_t)4U;
 c0008f6:	6a7b      	ldr	r3, [r7, #36]	; 0x24
 c0008f8:	3310      	adds	r3, #16
 c0008fa:	61bb      	str	r3, [r7, #24]
  p1[0U] = (uint32_t)0x19a4c116U;
 c0008fc:	69fb      	ldr	r3, [r7, #28]
 c0008fe:	4a4d      	ldr	r2, [pc, #308]	; (c000a34 <Hacl_Impl_SHA2_256_init+0x344>)
 c000900:	601a      	str	r2, [r3, #0]
  p1[1U] = (uint32_t)0x1e376c08U;
 c000902:	69fb      	ldr	r3, [r7, #28]
 c000904:	3304      	adds	r3, #4
 c000906:	4a4c      	ldr	r2, [pc, #304]	; (c000a38 <Hacl_Impl_SHA2_256_init+0x348>)
 c000908:	601a      	str	r2, [r3, #0]
  p1[2U] = (uint32_t)0x2748774cU;
 c00090a:	69fb      	ldr	r3, [r7, #28]
 c00090c:	3308      	adds	r3, #8
 c00090e:	4a4b      	ldr	r2, [pc, #300]	; (c000a3c <Hacl_Impl_SHA2_256_init+0x34c>)
 c000910:	601a      	str	r2, [r3, #0]
  p1[3U] = (uint32_t)0x34b0bcb5U;
 c000912:	69fb      	ldr	r3, [r7, #28]
 c000914:	330c      	adds	r3, #12
 c000916:	4a4a      	ldr	r2, [pc, #296]	; (c000a40 <Hacl_Impl_SHA2_256_init+0x350>)
 c000918:	601a      	str	r2, [r3, #0]
  p211[0U] = (uint32_t)0x391c0cb3U;
 c00091a:	69bb      	ldr	r3, [r7, #24]
 c00091c:	4a49      	ldr	r2, [pc, #292]	; (c000a44 <Hacl_Impl_SHA2_256_init+0x354>)
 c00091e:	601a      	str	r2, [r3, #0]
  p211[1U] = (uint32_t)0x4ed8aa4aU;
 c000920:	69bb      	ldr	r3, [r7, #24]
 c000922:	3304      	adds	r3, #4
 c000924:	4a48      	ldr	r2, [pc, #288]	; (c000a48 <Hacl_Impl_SHA2_256_init+0x358>)
 c000926:	601a      	str	r2, [r3, #0]
  p211[2U] = (uint32_t)0x5b9cca4fU;
 c000928:	69bb      	ldr	r3, [r7, #24]
 c00092a:	3308      	adds	r3, #8
 c00092c:	4a47      	ldr	r2, [pc, #284]	; (c000a4c <Hacl_Impl_SHA2_256_init+0x35c>)
 c00092e:	601a      	str	r2, [r3, #0]
  p211[3U] = (uint32_t)0x682e6ff3U;
 c000930:	69bb      	ldr	r3, [r7, #24]
 c000932:	330c      	adds	r3, #12
 c000934:	4a46      	ldr	r2, [pc, #280]	; (c000a50 <Hacl_Impl_SHA2_256_init+0x360>)
 c000936:	601a      	str	r2, [r3, #0]
  uint32_t *p111 = p210;
 c000938:	6a3b      	ldr	r3, [r7, #32]
 c00093a:	617b      	str	r3, [r7, #20]
  uint32_t *p212 = p210 + (uint32_t)4U;
 c00093c:	6a3b      	ldr	r3, [r7, #32]
 c00093e:	3310      	adds	r3, #16
 c000940:	613b      	str	r3, [r7, #16]
  p111[0U] = (uint32_t)0x748f82eeU;
 c000942:	697b      	ldr	r3, [r7, #20]
 c000944:	4a43      	ldr	r2, [pc, #268]	; (c000a54 <Hacl_Impl_SHA2_256_init+0x364>)
 c000946:	601a      	str	r2, [r3, #0]
  p111[1U] = (uint32_t)0x78a5636fU;
 c000948:	697b      	ldr	r3, [r7, #20]
 c00094a:	3304      	adds	r3, #4
 c00094c:	4a42      	ldr	r2, [pc, #264]	; (c000a58 <Hacl_Impl_SHA2_256_init+0x368>)
 c00094e:	601a      	str	r2, [r3, #0]
  p111[2U] = (uint32_t)0x84c87814U;
 c000950:	697b      	ldr	r3, [r7, #20]
 c000952:	3308      	adds	r3, #8
 c000954:	4a41      	ldr	r2, [pc, #260]	; (c000a5c <Hacl_Impl_SHA2_256_init+0x36c>)
 c000956:	601a      	str	r2, [r3, #0]
  p111[3U] = (uint32_t)0x8cc70208U;
 c000958:	697b      	ldr	r3, [r7, #20]
 c00095a:	330c      	adds	r3, #12
 c00095c:	4a40      	ldr	r2, [pc, #256]	; (c000a60 <Hacl_Impl_SHA2_256_init+0x370>)
 c00095e:	601a      	str	r2, [r3, #0]
  p212[0U] = (uint32_t)0x90befffaU;
 c000960:	693b      	ldr	r3, [r7, #16]
 c000962:	4a40      	ldr	r2, [pc, #256]	; (c000a64 <Hacl_Impl_SHA2_256_init+0x374>)
 c000964:	601a      	str	r2, [r3, #0]
  p212[1U] = (uint32_t)0xa4506cebU;
 c000966:	693b      	ldr	r3, [r7, #16]
 c000968:	3304      	adds	r3, #4
 c00096a:	4a3f      	ldr	r2, [pc, #252]	; (c000a68 <Hacl_Impl_SHA2_256_init+0x378>)
 c00096c:	601a      	str	r2, [r3, #0]
  p212[2U] = (uint32_t)0xbef9a3f7U;
 c00096e:	693b      	ldr	r3, [r7, #16]
 c000970:	e07c      	b.n	c000a6c <Hacl_Impl_SHA2_256_init+0x37c>
 c000972:	bf00      	nop
 c000974:	428a2f98 	.word	0x428a2f98
 c000978:	71374491 	.word	0x71374491
 c00097c:	b5c0fbcf 	.word	0xb5c0fbcf
 c000980:	e9b5dba5 	.word	0xe9b5dba5
 c000984:	3956c25b 	.word	0x3956c25b
 c000988:	59f111f1 	.word	0x59f111f1
 c00098c:	923f82a4 	.word	0x923f82a4
 c000990:	ab1c5ed5 	.word	0xab1c5ed5
 c000994:	d807aa98 	.word	0xd807aa98
 c000998:	12835b01 	.word	0x12835b01
 c00099c:	243185be 	.word	0x243185be
 c0009a0:	550c7dc3 	.word	0x550c7dc3
 c0009a4:	72be5d74 	.word	0x72be5d74
 c0009a8:	80deb1fe 	.word	0x80deb1fe
 c0009ac:	9bdc06a7 	.word	0x9bdc06a7
 c0009b0:	c19bf174 	.word	0xc19bf174
 c0009b4:	e49b69c1 	.word	0xe49b69c1
 c0009b8:	efbe4786 	.word	0xefbe4786
 c0009bc:	0fc19dc6 	.word	0x0fc19dc6
 c0009c0:	240ca1cc 	.word	0x240ca1cc
 c0009c4:	2de92c6f 	.word	0x2de92c6f
 c0009c8:	4a7484aa 	.word	0x4a7484aa
 c0009cc:	5cb0a9dc 	.word	0x5cb0a9dc
 c0009d0:	76f988da 	.word	0x76f988da
 c0009d4:	983e5152 	.word	0x983e5152
 c0009d8:	a831c66d 	.word	0xa831c66d
 c0009dc:	b00327c8 	.word	0xb00327c8
 c0009e0:	bf597fc7 	.word	0xbf597fc7
 c0009e4:	c6e00bf3 	.word	0xc6e00bf3
 c0009e8:	d5a79147 	.word	0xd5a79147
 c0009ec:	06ca6351 	.word	0x06ca6351
 c0009f0:	14292967 	.word	0x14292967
 c0009f4:	27b70a85 	.word	0x27b70a85
 c0009f8:	2e1b2138 	.word	0x2e1b2138
 c0009fc:	4d2c6dfc 	.word	0x4d2c6dfc
 c000a00:	53380d13 	.word	0x53380d13
 c000a04:	650a7354 	.word	0x650a7354
 c000a08:	766a0abb 	.word	0x766a0abb
 c000a0c:	81c2c92e 	.word	0x81c2c92e
 c000a10:	92722c85 	.word	0x92722c85
 c000a14:	a2bfe8a1 	.word	0xa2bfe8a1
 c000a18:	a81a664b 	.word	0xa81a664b
 c000a1c:	c24b8b70 	.word	0xc24b8b70
 c000a20:	c76c51a3 	.word	0xc76c51a3
 c000a24:	d192e819 	.word	0xd192e819
 c000a28:	d6990624 	.word	0xd6990624
 c000a2c:	f40e3585 	.word	0xf40e3585
 c000a30:	106aa070 	.word	0x106aa070
 c000a34:	19a4c116 	.word	0x19a4c116
 c000a38:	1e376c08 	.word	0x1e376c08
 c000a3c:	2748774c 	.word	0x2748774c
 c000a40:	34b0bcb5 	.word	0x34b0bcb5
 c000a44:	391c0cb3 	.word	0x391c0cb3
 c000a48:	4ed8aa4a 	.word	0x4ed8aa4a
 c000a4c:	5b9cca4f 	.word	0x5b9cca4f
 c000a50:	682e6ff3 	.word	0x682e6ff3
 c000a54:	748f82ee 	.word	0x748f82ee
 c000a58:	78a5636f 	.word	0x78a5636f
 c000a5c:	84c87814 	.word	0x84c87814
 c000a60:	8cc70208 	.word	0x8cc70208
 c000a64:	90befffa 	.word	0x90befffa
 c000a68:	a4506ceb 	.word	0xa4506ceb
 c000a6c:	3308      	adds	r3, #8
 c000a6e:	4a18      	ldr	r2, [pc, #96]	; (c000ad0 <Hacl_Impl_SHA2_256_init+0x3e0>)
 c000a70:	601a      	str	r2, [r3, #0]
  p212[3U] = (uint32_t)0xc67178f2U;
 c000a72:	693b      	ldr	r3, [r7, #16]
 c000a74:	330c      	adds	r3, #12
 c000a76:	4a17      	ldr	r2, [pc, #92]	; (c000ad4 <Hacl_Impl_SHA2_256_init+0x3e4>)
 c000a78:	601a      	str	r2, [r3, #0]
  uint32_t *p112 = h_01;
 c000a7a:	f8d7 3080 	ldr.w	r3, [r7, #128]	; 0x80
 c000a7e:	60fb      	str	r3, [r7, #12]
  uint32_t *p2 = h_01 + (uint32_t)4U;
 c000a80:	f8d7 3080 	ldr.w	r3, [r7, #128]	; 0x80
 c000a84:	3310      	adds	r3, #16
 c000a86:	60bb      	str	r3, [r7, #8]
  p112[0U] = (uint32_t)0x6a09e667U;
 c000a88:	68fb      	ldr	r3, [r7, #12]
 c000a8a:	4a13      	ldr	r2, [pc, #76]	; (c000ad8 <Hacl_Impl_SHA2_256_init+0x3e8>)
 c000a8c:	601a      	str	r2, [r3, #0]
  p112[1U] = (uint32_t)0xbb67ae85U;
 c000a8e:	68fb      	ldr	r3, [r7, #12]
 c000a90:	3304      	adds	r3, #4
 c000a92:	4a12      	ldr	r2, [pc, #72]	; (c000adc <Hacl_Impl_SHA2_256_init+0x3ec>)
 c000a94:	601a      	str	r2, [r3, #0]
  p112[2U] = (uint32_t)0x3c6ef372U;
 c000a96:	68fb      	ldr	r3, [r7, #12]
 c000a98:	3308      	adds	r3, #8
 c000a9a:	4a11      	ldr	r2, [pc, #68]	; (c000ae0 <Hacl_Impl_SHA2_256_init+0x3f0>)
 c000a9c:	601a      	str	r2, [r3, #0]
  p112[3U] = (uint32_t)0xa54ff53aU;
 c000a9e:	68fb      	ldr	r3, [r7, #12]
 c000aa0:	330c      	adds	r3, #12
 c000aa2:	4a10      	ldr	r2, [pc, #64]	; (c000ae4 <Hacl_Impl_SHA2_256_init+0x3f4>)
 c000aa4:	601a      	str	r2, [r3, #0]
  p2[0U] = (uint32_t)0x510e527fU;
 c000aa6:	68bb      	ldr	r3, [r7, #8]
 c000aa8:	4a0f      	ldr	r2, [pc, #60]	; (c000ae8 <Hacl_Impl_SHA2_256_init+0x3f8>)
 c000aaa:	601a      	str	r2, [r3, #0]
  p2[1U] = (uint32_t)0x9b05688cU;
 c000aac:	68bb      	ldr	r3, [r7, #8]
 c000aae:	3304      	adds	r3, #4
 c000ab0:	4a0e      	ldr	r2, [pc, #56]	; (c000aec <Hacl_Impl_SHA2_256_init+0x3fc>)
 c000ab2:	601a      	str	r2, [r3, #0]
  p2[2U] = (uint32_t)0x1f83d9abU;
 c000ab4:	68bb      	ldr	r3, [r7, #8]
 c000ab6:	3308      	adds	r3, #8
 c000ab8:	4a0d      	ldr	r2, [pc, #52]	; (c000af0 <Hacl_Impl_SHA2_256_init+0x400>)
 c000aba:	601a      	str	r2, [r3, #0]
  p2[3U] = (uint32_t)0x5be0cd19U;
 c000abc:	68bb      	ldr	r3, [r7, #8]
 c000abe:	330c      	adds	r3, #12
 c000ac0:	4a0c      	ldr	r2, [pc, #48]	; (c000af4 <Hacl_Impl_SHA2_256_init+0x404>)
 c000ac2:	601a      	str	r2, [r3, #0]
}
 c000ac4:	bf00      	nop
 c000ac6:	378c      	adds	r7, #140	; 0x8c
 c000ac8:	46bd      	mov	sp, r7
 c000aca:	f85d 7b04 	ldr.w	r7, [sp], #4
 c000ace:	4770      	bx	lr
 c000ad0:	bef9a3f7 	.word	0xbef9a3f7
 c000ad4:	c67178f2 	.word	0xc67178f2
 c000ad8:	6a09e667 	.word	0x6a09e667
 c000adc:	bb67ae85 	.word	0xbb67ae85
 c000ae0:	3c6ef372 	.word	0x3c6ef372
 c000ae4:	a54ff53a 	.word	0xa54ff53a
 c000ae8:	510e527f 	.word	0x510e527f
 c000aec:	9b05688c 	.word	0x9b05688c
 c000af0:	1f83d9ab 	.word	0x1f83d9ab
 c000af4:	5be0cd19 	.word	0x5be0cd19

0c000af8 <Hacl_Impl_SHA2_256_update>:

static void Hacl_Impl_SHA2_256_update(uint32_t *state, uint8_t *data)
{
 c000af8:	b580      	push	{r7, lr}
 c000afa:	b0bc      	sub	sp, #240	; 0xf0
 c000afc:	af00      	add	r7, sp, #0
 c000afe:	6078      	str	r0, [r7, #4]
 c000b00:	6039      	str	r1, [r7, #0]
  uint32_t data_w[16U] = { 0U };
 c000b02:	f107 032c 	add.w	r3, r7, #44	; 0x2c
 c000b06:	2240      	movs	r2, #64	; 0x40
 c000b08:	2100      	movs	r1, #0
 c000b0a:	4618      	mov	r0, r3
 c000b0c:	f007 f8db 	bl	c007cc6 <memset>
  Hacl_Hash_Lib_LoadStore_uint32s_from_be_bytes(data_w, data, (uint32_t)16U);
 c000b10:	f107 032c 	add.w	r3, r7, #44	; 0x2c
 c000b14:	2210      	movs	r2, #16
 c000b16:	6839      	ldr	r1, [r7, #0]
 c000b18:	4618      	mov	r0, r3
 c000b1a:	f7ff fd7f 	bl	c00061c <Hacl_Hash_Lib_LoadStore_uint32s_from_be_bytes>
  uint32_t *hash_w = state + (uint32_t)128U;
 c000b1e:	687b      	ldr	r3, [r7, #4]
 c000b20:	f503 7300 	add.w	r3, r3, #512	; 0x200
 c000b24:	f8c7 30dc 	str.w	r3, [r7, #220]	; 0xdc
  uint32_t *ws_w = state + (uint32_t)64U;
 c000b28:	687b      	ldr	r3, [r7, #4]
 c000b2a:	f503 7380 	add.w	r3, r3, #256	; 0x100
 c000b2e:	f8c7 30d8 	str.w	r3, [r7, #216]	; 0xd8
  uint32_t *k_w = state;
 c000b32:	687b      	ldr	r3, [r7, #4]
 c000b34:	f8c7 30d4 	str.w	r3, [r7, #212]	; 0xd4
  uint32_t *counter_w = state + (uint32_t)136U;
 c000b38:	687b      	ldr	r3, [r7, #4]
 c000b3a:	f503 7308 	add.w	r3, r3, #544	; 0x220
 c000b3e:	f8c7 30d0 	str.w	r3, [r7, #208]	; 0xd0
  for (uint32_t i = (uint32_t)0U; i < (uint32_t)16U; i = i + (uint32_t)1U)
 c000b42:	2300      	movs	r3, #0
 c000b44:	f8c7 30ec 	str.w	r3, [r7, #236]	; 0xec
 c000b48:	e014      	b.n	c000b74 <Hacl_Impl_SHA2_256_update+0x7c>
  {
    uint32_t b = data_w[i];
 c000b4a:	f8d7 30ec 	ldr.w	r3, [r7, #236]	; 0xec
 c000b4e:	009b      	lsls	r3, r3, #2
 c000b50:	33f0      	adds	r3, #240	; 0xf0
 c000b52:	443b      	add	r3, r7
 c000b54:	f853 3cc4 	ldr.w	r3, [r3, #-196]
 c000b58:	66fb      	str	r3, [r7, #108]	; 0x6c
    ws_w[i] = b;
 c000b5a:	f8d7 30ec 	ldr.w	r3, [r7, #236]	; 0xec
 c000b5e:	009b      	lsls	r3, r3, #2
 c000b60:	f8d7 20d8 	ldr.w	r2, [r7, #216]	; 0xd8
 c000b64:	4413      	add	r3, r2
 c000b66:	6efa      	ldr	r2, [r7, #108]	; 0x6c
 c000b68:	601a      	str	r2, [r3, #0]
  for (uint32_t i = (uint32_t)0U; i < (uint32_t)16U; i = i + (uint32_t)1U)
 c000b6a:	f8d7 30ec 	ldr.w	r3, [r7, #236]	; 0xec
 c000b6e:	3301      	adds	r3, #1
 c000b70:	f8c7 30ec 	str.w	r3, [r7, #236]	; 0xec
 c000b74:	f8d7 30ec 	ldr.w	r3, [r7, #236]	; 0xec
 c000b78:	2b0f      	cmp	r3, #15
 c000b7a:	d9e6      	bls.n	c000b4a <Hacl_Impl_SHA2_256_update+0x52>
  }
  for (uint32_t i = (uint32_t)16U; i < (uint32_t)64U; i = i + (uint32_t)1U)
 c000b7c:	2310      	movs	r3, #16
 c000b7e:	f8c7 30e8 	str.w	r3, [r7, #232]	; 0xe8
 c000b82:	e050      	b.n	c000c26 <Hacl_Impl_SHA2_256_update+0x12e>
  {
    uint32_t t16 = ws_w[i - (uint32_t)16U];
 c000b84:	f8d7 30e8 	ldr.w	r3, [r7, #232]	; 0xe8
 c000b88:	f103 4380 	add.w	r3, r3, #1073741824	; 0x40000000
 c000b8c:	3b10      	subs	r3, #16
 c000b8e:	009b      	lsls	r3, r3, #2
 c000b90:	f8d7 20d8 	ldr.w	r2, [r7, #216]	; 0xd8
 c000b94:	4413      	add	r3, r2
 c000b96:	681b      	ldr	r3, [r3, #0]
 c000b98:	67fb      	str	r3, [r7, #124]	; 0x7c
    uint32_t t15 = ws_w[i - (uint32_t)15U];
 c000b9a:	f8d7 30e8 	ldr.w	r3, [r7, #232]	; 0xe8
 c000b9e:	f103 4380 	add.w	r3, r3, #1073741824	; 0x40000000
 c000ba2:	3b0f      	subs	r3, #15
 c000ba4:	009b      	lsls	r3, r3, #2
 c000ba6:	f8d7 20d8 	ldr.w	r2, [r7, #216]	; 0xd8
 c000baa:	4413      	add	r3, r2
 c000bac:	681b      	ldr	r3, [r3, #0]
 c000bae:	67bb      	str	r3, [r7, #120]	; 0x78
    uint32_t t7 = ws_w[i - (uint32_t)7U];
 c000bb0:	f8d7 30e8 	ldr.w	r3, [r7, #232]	; 0xe8
 c000bb4:	f103 4380 	add.w	r3, r3, #1073741824	; 0x40000000
 c000bb8:	3b07      	subs	r3, #7
 c000bba:	009b      	lsls	r3, r3, #2
 c000bbc:	f8d7 20d8 	ldr.w	r2, [r7, #216]	; 0xd8
 c000bc0:	4413      	add	r3, r2
 c000bc2:	681b      	ldr	r3, [r3, #0]
 c000bc4:	677b      	str	r3, [r7, #116]	; 0x74
    uint32_t t2 = ws_w[i - (uint32_t)2U];
 c000bc6:	f8d7 30e8 	ldr.w	r3, [r7, #232]	; 0xe8
 c000bca:	f103 4380 	add.w	r3, r3, #1073741824	; 0x40000000
 c000bce:	3b02      	subs	r3, #2
 c000bd0:	009b      	lsls	r3, r3, #2
 c000bd2:	f8d7 20d8 	ldr.w	r2, [r7, #216]	; 0xd8
 c000bd6:	4413      	add	r3, r2
 c000bd8:	681b      	ldr	r3, [r3, #0]
 c000bda:	673b      	str	r3, [r7, #112]	; 0x70
    ws_w[i] =
      ((t2 >> (uint32_t)17U | t2 << ((uint32_t)32U - (uint32_t)17U))
 c000bdc:	6f3b      	ldr	r3, [r7, #112]	; 0x70
 c000bde:	ea4f 4273 	mov.w	r2, r3, ror #17
      ^ ((t2 >> (uint32_t)19U | t2 << ((uint32_t)32U - (uint32_t)19U)) ^ t2 >> (uint32_t)10U))
 c000be2:	6f3b      	ldr	r3, [r7, #112]	; 0x70
 c000be4:	ea4f 41f3 	mov.w	r1, r3, ror #19
 c000be8:	6f3b      	ldr	r3, [r7, #112]	; 0x70
 c000bea:	0a9b      	lsrs	r3, r3, #10
 c000bec:	404b      	eors	r3, r1
 c000bee:	405a      	eors	r2, r3
      +
 c000bf0:	6f7b      	ldr	r3, [r7, #116]	; 0x74
 c000bf2:	441a      	add	r2, r3
        t7
        +
          ((t15 >> (uint32_t)7U | t15 << ((uint32_t)32U - (uint32_t)7U))
 c000bf4:	6fbb      	ldr	r3, [r7, #120]	; 0x78
 c000bf6:	ea4f 11f3 	mov.w	r1, r3, ror #7
          ^ ((t15 >> (uint32_t)18U | t15 << ((uint32_t)32U - (uint32_t)18U)) ^ t15 >> (uint32_t)3U))
 c000bfa:	6fbb      	ldr	r3, [r7, #120]	; 0x78
 c000bfc:	ea4f 40b3 	mov.w	r0, r3, ror #18
 c000c00:	6fbb      	ldr	r3, [r7, #120]	; 0x78
 c000c02:	08db      	lsrs	r3, r3, #3
 c000c04:	4043      	eors	r3, r0
 c000c06:	404b      	eors	r3, r1
        +
 c000c08:	18d1      	adds	r1, r2, r3
    ws_w[i] =
 c000c0a:	f8d7 30e8 	ldr.w	r3, [r7, #232]	; 0xe8
 c000c0e:	009b      	lsls	r3, r3, #2
 c000c10:	f8d7 20d8 	ldr.w	r2, [r7, #216]	; 0xd8
 c000c14:	4413      	add	r3, r2
          + t16;
 c000c16:	6ffa      	ldr	r2, [r7, #124]	; 0x7c
 c000c18:	440a      	add	r2, r1
    ws_w[i] =
 c000c1a:	601a      	str	r2, [r3, #0]
  for (uint32_t i = (uint32_t)16U; i < (uint32_t)64U; i = i + (uint32_t)1U)
 c000c1c:	f8d7 30e8 	ldr.w	r3, [r7, #232]	; 0xe8
 c000c20:	3301      	adds	r3, #1
 c000c22:	f8c7 30e8 	str.w	r3, [r7, #232]	; 0xe8
 c000c26:	f8d7 30e8 	ldr.w	r3, [r7, #232]	; 0xe8
 c000c2a:	2b3f      	cmp	r3, #63	; 0x3f
 c000c2c:	d9aa      	bls.n	c000b84 <Hacl_Impl_SHA2_256_update+0x8c>
  }
  uint32_t hash_0[8U] = { 0U };
 c000c2e:	f107 030c 	add.w	r3, r7, #12
 c000c32:	2220      	movs	r2, #32
 c000c34:	2100      	movs	r1, #0
 c000c36:	4618      	mov	r0, r3
 c000c38:	f007 f845 	bl	c007cc6 <memset>
  memcpy(hash_0, hash_w, (uint32_t)8U * sizeof hash_w[0U]);
 c000c3c:	f107 030c 	add.w	r3, r7, #12
 c000c40:	2220      	movs	r2, #32
 c000c42:	f8d7 10dc 	ldr.w	r1, [r7, #220]	; 0xdc
 c000c46:	4618      	mov	r0, r3
 c000c48:	f007 f830 	bl	c007cac <memcpy>
  for (uint32_t i = (uint32_t)0U; i < (uint32_t)64U; i = i + (uint32_t)1U)
 c000c4c:	2300      	movs	r3, #0
 c000c4e:	f8c7 30e4 	str.w	r3, [r7, #228]	; 0xe4
 c000c52:	e0b8      	b.n	c000dc6 <Hacl_Impl_SHA2_256_update+0x2ce>
  {
    uint32_t a = hash_0[0U];
 c000c54:	68fb      	ldr	r3, [r7, #12]
 c000c56:	f8c7 30bc 	str.w	r3, [r7, #188]	; 0xbc
    uint32_t b = hash_0[1U];
 c000c5a:	693b      	ldr	r3, [r7, #16]
 c000c5c:	f8c7 30b8 	str.w	r3, [r7, #184]	; 0xb8
    uint32_t c = hash_0[2U];
 c000c60:	697b      	ldr	r3, [r7, #20]
 c000c62:	f8c7 30b4 	str.w	r3, [r7, #180]	; 0xb4
    uint32_t d = hash_0[3U];
 c000c66:	69bb      	ldr	r3, [r7, #24]
 c000c68:	f8c7 30b0 	str.w	r3, [r7, #176]	; 0xb0
    uint32_t e = hash_0[4U];
 c000c6c:	69fb      	ldr	r3, [r7, #28]
 c000c6e:	f8c7 30ac 	str.w	r3, [r7, #172]	; 0xac
    uint32_t f1 = hash_0[5U];
 c000c72:	6a3b      	ldr	r3, [r7, #32]
 c000c74:	f8c7 30a8 	str.w	r3, [r7, #168]	; 0xa8
    uint32_t g = hash_0[6U];
 c000c78:	6a7b      	ldr	r3, [r7, #36]	; 0x24
 c000c7a:	f8c7 30a4 	str.w	r3, [r7, #164]	; 0xa4
    uint32_t h = hash_0[7U];
 c000c7e:	6abb      	ldr	r3, [r7, #40]	; 0x28
 c000c80:	f8c7 30a0 	str.w	r3, [r7, #160]	; 0xa0
    uint32_t kt = k_w[i];
 c000c84:	f8d7 30e4 	ldr.w	r3, [r7, #228]	; 0xe4
 c000c88:	009b      	lsls	r3, r3, #2
 c000c8a:	f8d7 20d4 	ldr.w	r2, [r7, #212]	; 0xd4
 c000c8e:	4413      	add	r3, r2
 c000c90:	681b      	ldr	r3, [r3, #0]
 c000c92:	f8c7 309c 	str.w	r3, [r7, #156]	; 0x9c
    uint32_t wst = ws_w[i];
 c000c96:	f8d7 30e4 	ldr.w	r3, [r7, #228]	; 0xe4
 c000c9a:	009b      	lsls	r3, r3, #2
 c000c9c:	f8d7 20d8 	ldr.w	r2, [r7, #216]	; 0xd8
 c000ca0:	4413      	add	r3, r2
 c000ca2:	681b      	ldr	r3, [r3, #0]
 c000ca4:	f8c7 3098 	str.w	r3, [r7, #152]	; 0x98
    uint32_t
    t1 =
      h
      +
        ((e >> (uint32_t)6U | e << ((uint32_t)32U - (uint32_t)6U))
 c000ca8:	f8d7 30ac 	ldr.w	r3, [r7, #172]	; 0xac
 c000cac:	ea4f 12b3 	mov.w	r2, r3, ror #6
        ^
          ((e >> (uint32_t)11U | e << ((uint32_t)32U - (uint32_t)11U))
 c000cb0:	f8d7 30ac 	ldr.w	r3, [r7, #172]	; 0xac
 c000cb4:	ea4f 21f3 	mov.w	r1, r3, ror #11
          ^ (e >> (uint32_t)25U | e << ((uint32_t)32U - (uint32_t)25U))))
 c000cb8:	f8d7 30ac 	ldr.w	r3, [r7, #172]	; 0xac
 c000cbc:	ea4f 6373 	mov.w	r3, r3, ror #25
 c000cc0:	404b      	eors	r3, r1
        ^
 c000cc2:	405a      	eors	r2, r3
      +
 c000cc4:	f8d7 30a0 	ldr.w	r3, [r7, #160]	; 0xa0
 c000cc8:	441a      	add	r2, r3
      + ((e & f1) ^ (~e & g))
 c000cca:	f8d7 10ac 	ldr.w	r1, [r7, #172]	; 0xac
 c000cce:	f8d7 30a8 	ldr.w	r3, [r7, #168]	; 0xa8
 c000cd2:	4019      	ands	r1, r3
 c000cd4:	f8d7 30ac 	ldr.w	r3, [r7, #172]	; 0xac
 c000cd8:	43d8      	mvns	r0, r3
 c000cda:	f8d7 30a4 	ldr.w	r3, [r7, #164]	; 0xa4
 c000cde:	4003      	ands	r3, r0
 c000ce0:	404b      	eors	r3, r1
 c000ce2:	441a      	add	r2, r3
      + kt
 c000ce4:	f8d7 309c 	ldr.w	r3, [r7, #156]	; 0x9c
 c000ce8:	4413      	add	r3, r2
    t1 =
 c000cea:	f8d7 2098 	ldr.w	r2, [r7, #152]	; 0x98
 c000cee:	4413      	add	r3, r2
 c000cf0:	f8c7 3094 	str.w	r3, [r7, #148]	; 0x94
      + wst;
    uint32_t
    t2 =
      ((a >> (uint32_t)2U | a << ((uint32_t)32U - (uint32_t)2U))
 c000cf4:	f8d7 30bc 	ldr.w	r3, [r7, #188]	; 0xbc
 c000cf8:	ea4f 02b3 	mov.w	r2, r3, ror #2
      ^
        ((a >> (uint32_t)13U | a << ((uint32_t)32U - (uint32_t)13U))
 c000cfc:	f8d7 30bc 	ldr.w	r3, [r7, #188]	; 0xbc
 c000d00:	ea4f 3173 	mov.w	r1, r3, ror #13
        ^ (a >> (uint32_t)22U | a << ((uint32_t)32U - (uint32_t)22U))))
 c000d04:	f8d7 30bc 	ldr.w	r3, [r7, #188]	; 0xbc
 c000d08:	ea4f 53b3 	mov.w	r3, r3, ror #22
 c000d0c:	404b      	eors	r3, r1
      ^
 c000d0e:	405a      	eors	r2, r3
      + ((a & b) ^ ((a & c) ^ (b & c)));
 c000d10:	f8d7 10bc 	ldr.w	r1, [r7, #188]	; 0xbc
 c000d14:	f8d7 30b8 	ldr.w	r3, [r7, #184]	; 0xb8
 c000d18:	4019      	ands	r1, r3
 c000d1a:	f8d7 00bc 	ldr.w	r0, [r7, #188]	; 0xbc
 c000d1e:	f8d7 30b8 	ldr.w	r3, [r7, #184]	; 0xb8
 c000d22:	4058      	eors	r0, r3
 c000d24:	f8d7 30b4 	ldr.w	r3, [r7, #180]	; 0xb4
 c000d28:	4003      	ands	r3, r0
 c000d2a:	404b      	eors	r3, r1
    t2 =
 c000d2c:	4413      	add	r3, r2
 c000d2e:	f8c7 3090 	str.w	r3, [r7, #144]	; 0x90
    uint32_t x1 = t1 + t2;
 c000d32:	f8d7 2094 	ldr.w	r2, [r7, #148]	; 0x94
 c000d36:	f8d7 3090 	ldr.w	r3, [r7, #144]	; 0x90
 c000d3a:	4413      	add	r3, r2
 c000d3c:	f8c7 308c 	str.w	r3, [r7, #140]	; 0x8c
    uint32_t x5 = d + t1;
 c000d40:	f8d7 20b0 	ldr.w	r2, [r7, #176]	; 0xb0
 c000d44:	f8d7 3094 	ldr.w	r3, [r7, #148]	; 0x94
 c000d48:	4413      	add	r3, r2
 c000d4a:	f8c7 3088 	str.w	r3, [r7, #136]	; 0x88
    uint32_t *p1 = hash_0;
 c000d4e:	f107 030c 	add.w	r3, r7, #12
 c000d52:	f8c7 3084 	str.w	r3, [r7, #132]	; 0x84
    uint32_t *p2 = hash_0 + (uint32_t)4U;
 c000d56:	f107 030c 	add.w	r3, r7, #12
 c000d5a:	3310      	adds	r3, #16
 c000d5c:	f8c7 3080 	str.w	r3, [r7, #128]	; 0x80
    p1[0U] = x1;
 c000d60:	f8d7 3084 	ldr.w	r3, [r7, #132]	; 0x84
 c000d64:	f8d7 208c 	ldr.w	r2, [r7, #140]	; 0x8c
 c000d68:	601a      	str	r2, [r3, #0]
    p1[1U] = a;
 c000d6a:	f8d7 3084 	ldr.w	r3, [r7, #132]	; 0x84
 c000d6e:	3304      	adds	r3, #4
 c000d70:	f8d7 20bc 	ldr.w	r2, [r7, #188]	; 0xbc
 c000d74:	601a      	str	r2, [r3, #0]
    p1[2U] = b;
 c000d76:	f8d7 3084 	ldr.w	r3, [r7, #132]	; 0x84
 c000d7a:	3308      	adds	r3, #8
 c000d7c:	f8d7 20b8 	ldr.w	r2, [r7, #184]	; 0xb8
 c000d80:	601a      	str	r2, [r3, #0]
    p1[3U] = c;
 c000d82:	f8d7 3084 	ldr.w	r3, [r7, #132]	; 0x84
 c000d86:	330c      	adds	r3, #12
 c000d88:	f8d7 20b4 	ldr.w	r2, [r7, #180]	; 0xb4
 c000d8c:	601a      	str	r2, [r3, #0]
    p2[0U] = x5;
 c000d8e:	f8d7 3080 	ldr.w	r3, [r7, #128]	; 0x80
 c000d92:	f8d7 2088 	ldr.w	r2, [r7, #136]	; 0x88
 c000d96:	601a      	str	r2, [r3, #0]
    p2[1U] = e;
 c000d98:	f8d7 3080 	ldr.w	r3, [r7, #128]	; 0x80
 c000d9c:	3304      	adds	r3, #4
 c000d9e:	f8d7 20ac 	ldr.w	r2, [r7, #172]	; 0xac
 c000da2:	601a      	str	r2, [r3, #0]
    p2[2U] = f1;
 c000da4:	f8d7 3080 	ldr.w	r3, [r7, #128]	; 0x80
 c000da8:	3308      	adds	r3, #8
 c000daa:	f8d7 20a8 	ldr.w	r2, [r7, #168]	; 0xa8
 c000dae:	601a      	str	r2, [r3, #0]
    p2[3U] = g;
 c000db0:	f8d7 3080 	ldr.w	r3, [r7, #128]	; 0x80
 c000db4:	330c      	adds	r3, #12
 c000db6:	f8d7 20a4 	ldr.w	r2, [r7, #164]	; 0xa4
 c000dba:	601a      	str	r2, [r3, #0]
  for (uint32_t i = (uint32_t)0U; i < (uint32_t)64U; i = i + (uint32_t)1U)
 c000dbc:	f8d7 30e4 	ldr.w	r3, [r7, #228]	; 0xe4
 c000dc0:	3301      	adds	r3, #1
 c000dc2:	f8c7 30e4 	str.w	r3, [r7, #228]	; 0xe4
 c000dc6:	f8d7 30e4 	ldr.w	r3, [r7, #228]	; 0xe4
 c000dca:	2b3f      	cmp	r3, #63	; 0x3f
 c000dcc:	f67f af42 	bls.w	c000c54 <Hacl_Impl_SHA2_256_update+0x15c>
  }
  for (uint32_t i = (uint32_t)0U; i < (uint32_t)8U; i = i + (uint32_t)1U)
 c000dd0:	2300      	movs	r3, #0
 c000dd2:	f8c7 30e0 	str.w	r3, [r7, #224]	; 0xe0
 c000dd6:	e022      	b.n	c000e1e <Hacl_Impl_SHA2_256_update+0x326>
  {
    uint32_t xi = hash_w[i];
 c000dd8:	f8d7 30e0 	ldr.w	r3, [r7, #224]	; 0xe0
 c000ddc:	009b      	lsls	r3, r3, #2
 c000dde:	f8d7 20dc 	ldr.w	r2, [r7, #220]	; 0xdc
 c000de2:	4413      	add	r3, r2
 c000de4:	681b      	ldr	r3, [r3, #0]
 c000de6:	f8c7 30c4 	str.w	r3, [r7, #196]	; 0xc4
    uint32_t yi = hash_0[i];
 c000dea:	f8d7 30e0 	ldr.w	r3, [r7, #224]	; 0xe0
 c000dee:	009b      	lsls	r3, r3, #2
 c000df0:	33f0      	adds	r3, #240	; 0xf0
 c000df2:	443b      	add	r3, r7
 c000df4:	f853 3ce4 	ldr.w	r3, [r3, #-228]
 c000df8:	f8c7 30c0 	str.w	r3, [r7, #192]	; 0xc0
    hash_w[i] = xi + yi;
 c000dfc:	f8d7 30e0 	ldr.w	r3, [r7, #224]	; 0xe0
 c000e00:	009b      	lsls	r3, r3, #2
 c000e02:	f8d7 20dc 	ldr.w	r2, [r7, #220]	; 0xdc
 c000e06:	4413      	add	r3, r2
 c000e08:	f8d7 10c4 	ldr.w	r1, [r7, #196]	; 0xc4
 c000e0c:	f8d7 20c0 	ldr.w	r2, [r7, #192]	; 0xc0
 c000e10:	440a      	add	r2, r1
 c000e12:	601a      	str	r2, [r3, #0]
  for (uint32_t i = (uint32_t)0U; i < (uint32_t)8U; i = i + (uint32_t)1U)
 c000e14:	f8d7 30e0 	ldr.w	r3, [r7, #224]	; 0xe0
 c000e18:	3301      	adds	r3, #1
 c000e1a:	f8c7 30e0 	str.w	r3, [r7, #224]	; 0xe0
 c000e1e:	f8d7 30e0 	ldr.w	r3, [r7, #224]	; 0xe0
 c000e22:	2b07      	cmp	r3, #7
 c000e24:	d9d8      	bls.n	c000dd8 <Hacl_Impl_SHA2_256_update+0x2e0>
  }
  uint32_t c0 = counter_w[0U];
 c000e26:	f8d7 30d0 	ldr.w	r3, [r7, #208]	; 0xd0
 c000e2a:	681b      	ldr	r3, [r3, #0]
 c000e2c:	f8c7 30cc 	str.w	r3, [r7, #204]	; 0xcc
  uint32_t one1 = (uint32_t)1U;
 c000e30:	2301      	movs	r3, #1
 c000e32:	f8c7 30c8 	str.w	r3, [r7, #200]	; 0xc8
  counter_w[0U] = c0 + one1;
 c000e36:	f8d7 20cc 	ldr.w	r2, [r7, #204]	; 0xcc
 c000e3a:	f8d7 30c8 	ldr.w	r3, [r7, #200]	; 0xc8
 c000e3e:	441a      	add	r2, r3
 c000e40:	f8d7 30d0 	ldr.w	r3, [r7, #208]	; 0xd0
 c000e44:	601a      	str	r2, [r3, #0]
}
 c000e46:	bf00      	nop
 c000e48:	37f0      	adds	r7, #240	; 0xf0
 c000e4a:	46bd      	mov	sp, r7
 c000e4c:	bd80      	pop	{r7, pc}

0c000e4e <Hacl_Impl_SHA2_256_update_multi>:

static void Hacl_Impl_SHA2_256_update_multi(uint32_t *state, uint8_t *data, uint32_t n1)
{
 c000e4e:	b580      	push	{r7, lr}
 c000e50:	b086      	sub	sp, #24
 c000e52:	af00      	add	r7, sp, #0
 c000e54:	60f8      	str	r0, [r7, #12]
 c000e56:	60b9      	str	r1, [r7, #8]
 c000e58:	607a      	str	r2, [r7, #4]
  for (uint32_t i = (uint32_t)0U; i < n1; i = i + (uint32_t)1U)
 c000e5a:	2300      	movs	r3, #0
 c000e5c:	617b      	str	r3, [r7, #20]
 c000e5e:	e00b      	b.n	c000e78 <Hacl_Impl_SHA2_256_update_multi+0x2a>
  {
    uint8_t *b = data + i * (uint32_t)64U;
 c000e60:	697b      	ldr	r3, [r7, #20]
 c000e62:	019b      	lsls	r3, r3, #6
 c000e64:	68ba      	ldr	r2, [r7, #8]
 c000e66:	4413      	add	r3, r2
 c000e68:	613b      	str	r3, [r7, #16]
    Hacl_Impl_SHA2_256_update(state, b);
 c000e6a:	6939      	ldr	r1, [r7, #16]
 c000e6c:	68f8      	ldr	r0, [r7, #12]
 c000e6e:	f7ff fe43 	bl	c000af8 <Hacl_Impl_SHA2_256_update>
  for (uint32_t i = (uint32_t)0U; i < n1; i = i + (uint32_t)1U)
 c000e72:	697b      	ldr	r3, [r7, #20]
 c000e74:	3301      	adds	r3, #1
 c000e76:	617b      	str	r3, [r7, #20]
 c000e78:	697a      	ldr	r2, [r7, #20]
 c000e7a:	687b      	ldr	r3, [r7, #4]
 c000e7c:	429a      	cmp	r2, r3
 c000e7e:	d3ef      	bcc.n	c000e60 <Hacl_Impl_SHA2_256_update_multi+0x12>
  }
}
 c000e80:	bf00      	nop
 c000e82:	bf00      	nop
 c000e84:	3718      	adds	r7, #24
 c000e86:	46bd      	mov	sp, r7
 c000e88:	bd80      	pop	{r7, pc}

0c000e8a <Hacl_Impl_SHA2_256_update_last>:

static void Hacl_Impl_SHA2_256_update_last(uint32_t *state, uint8_t *data, uint32_t len)
{
 c000e8a:	e92d 4fb0 	stmdb	sp!, {r4, r5, r7, r8, r9, sl, fp, lr}
 c000e8e:	b0ba      	sub	sp, #232	; 0xe8
 c000e90:	af00      	add	r7, sp, #0
 c000e92:	6278      	str	r0, [r7, #36]	; 0x24
 c000e94:	6239      	str	r1, [r7, #32]
 c000e96:	61fa      	str	r2, [r7, #28]
  uint8_t blocks[128U] = { 0U };
 c000e98:	2300      	movs	r3, #0
 c000e9a:	62bb      	str	r3, [r7, #40]	; 0x28
 c000e9c:	f107 002c 	add.w	r0, r7, #44	; 0x2c
 c000ea0:	237c      	movs	r3, #124	; 0x7c
 c000ea2:	461a      	mov	r2, r3
 c000ea4:	2100      	movs	r1, #0
 c000ea6:	f006 ff0e 	bl	c007cc6 <memset>
  uint32_t nb;
  if (len < (uint32_t)56U)
 c000eaa:	69fb      	ldr	r3, [r7, #28]
 c000eac:	2b37      	cmp	r3, #55	; 0x37
 c000eae:	d803      	bhi.n	c000eb8 <Hacl_Impl_SHA2_256_update_last+0x2e>
    nb = (uint32_t)1U;
 c000eb0:	2301      	movs	r3, #1
 c000eb2:	f8c7 30e4 	str.w	r3, [r7, #228]	; 0xe4
 c000eb6:	e002      	b.n	c000ebe <Hacl_Impl_SHA2_256_update_last+0x34>
  else
    nb = (uint32_t)2U;
 c000eb8:	2302      	movs	r3, #2
 c000eba:	f8c7 30e4 	str.w	r3, [r7, #228]	; 0xe4
  uint8_t *final_blocks;
  if (len < (uint32_t)56U)
 c000ebe:	69fb      	ldr	r3, [r7, #28]
 c000ec0:	2b37      	cmp	r3, #55	; 0x37
 c000ec2:	d805      	bhi.n	c000ed0 <Hacl_Impl_SHA2_256_update_last+0x46>
    final_blocks = blocks + (uint32_t)64U;
 c000ec4:	f107 0328 	add.w	r3, r7, #40	; 0x28
 c000ec8:	3340      	adds	r3, #64	; 0x40
 c000eca:	f8c7 30e0 	str.w	r3, [r7, #224]	; 0xe0
 c000ece:	e003      	b.n	c000ed8 <Hacl_Impl_SHA2_256_update_last+0x4e>
  else
    final_blocks = blocks;
 c000ed0:	f107 0328 	add.w	r3, r7, #40	; 0x28
 c000ed4:	f8c7 30e0 	str.w	r3, [r7, #224]	; 0xe0
  memcpy(final_blocks, data, len * sizeof data[0U]);
 c000ed8:	69fa      	ldr	r2, [r7, #28]
 c000eda:	6a39      	ldr	r1, [r7, #32]
 c000edc:	f8d7 00e0 	ldr.w	r0, [r7, #224]	; 0xe0
 c000ee0:	f006 fee4 	bl	c007cac <memcpy>
  uint32_t n1 = state[136U];
 c000ee4:	6a7b      	ldr	r3, [r7, #36]	; 0x24
 c000ee6:	f8d3 3220 	ldr.w	r3, [r3, #544]	; 0x220
 c000eea:	f8c7 30dc 	str.w	r3, [r7, #220]	; 0xdc
  uint8_t *padding = final_blocks + len;
 c000eee:	f8d7 20e0 	ldr.w	r2, [r7, #224]	; 0xe0
 c000ef2:	69fb      	ldr	r3, [r7, #28]
 c000ef4:	4413      	add	r3, r2
 c000ef6:	f8c7 30d8 	str.w	r3, [r7, #216]	; 0xd8
  uint32_t
  pad0len = ((uint32_t)64U - (len + (uint32_t)8U + (uint32_t)1U) % (uint32_t)64U) % (uint32_t)64U;
 c000efa:	69fa      	ldr	r2, [r7, #28]
 c000efc:	f06f 0308 	mvn.w	r3, #8
 c000f00:	1a9b      	subs	r3, r3, r2
 c000f02:	f003 033f 	and.w	r3, r3, #63	; 0x3f
 c000f06:	f8c7 30d4 	str.w	r3, [r7, #212]	; 0xd4
  uint8_t *buf1 = padding;
 c000f0a:	f8d7 30d8 	ldr.w	r3, [r7, #216]	; 0xd8
 c000f0e:	f8c7 30d0 	str.w	r3, [r7, #208]	; 0xd0
  uint8_t *buf2 = padding + (uint32_t)1U + pad0len;
 c000f12:	f8d7 30d4 	ldr.w	r3, [r7, #212]	; 0xd4
 c000f16:	3301      	adds	r3, #1
 c000f18:	f8d7 20d8 	ldr.w	r2, [r7, #216]	; 0xd8
 c000f1c:	4413      	add	r3, r2
 c000f1e:	f8c7 30cc 	str.w	r3, [r7, #204]	; 0xcc
  uint64_t
  encodedlen = ((uint64_t)n1 * (uint64_t)(uint32_t)64U + (uint64_t)len) * (uint64_t)(uint32_t)8U;
 c000f22:	f8d7 30dc 	ldr.w	r3, [r7, #220]	; 0xdc
 c000f26:	2200      	movs	r2, #0
 c000f28:	4698      	mov	r8, r3
 c000f2a:	4691      	mov	r9, r2
 c000f2c:	f04f 0200 	mov.w	r2, #0
 c000f30:	f04f 0300 	mov.w	r3, #0
 c000f34:	ea4f 1389 	mov.w	r3, r9, lsl #6
 c000f38:	ea43 6398 	orr.w	r3, r3, r8, lsr #26
 c000f3c:	ea4f 1288 	mov.w	r2, r8, lsl #6
 c000f40:	69f9      	ldr	r1, [r7, #28]
 c000f42:	2000      	movs	r0, #0
 c000f44:	6139      	str	r1, [r7, #16]
 c000f46:	6178      	str	r0, [r7, #20]
 c000f48:	e9d7 8904 	ldrd	r8, r9, [r7, #16]
 c000f4c:	4641      	mov	r1, r8
 c000f4e:	1854      	adds	r4, r2, r1
 c000f50:	4649      	mov	r1, r9
 c000f52:	eb43 0101 	adc.w	r1, r3, r1
 c000f56:	460d      	mov	r5, r1
 c000f58:	f04f 0200 	mov.w	r2, #0
 c000f5c:	f04f 0300 	mov.w	r3, #0
 c000f60:	00eb      	lsls	r3, r5, #3
 c000f62:	ea43 7354 	orr.w	r3, r3, r4, lsr #29
 c000f66:	00e2      	lsls	r2, r4, #3
 c000f68:	e9c7 2330 	strd	r2, r3, [r7, #192]	; 0xc0
  buf1[0U] = (uint8_t)0x80U;
 c000f6c:	f8d7 30d0 	ldr.w	r3, [r7, #208]	; 0xd0
 c000f70:	2280      	movs	r2, #128	; 0x80
 c000f72:	701a      	strb	r2, [r3, #0]
  store64_be(buf2, encodedlen);
 c000f74:	e9d7 2330 	ldrd	r2, r3, [r7, #192]	; 0xc0
 c000f78:	e9c7 232e 	strd	r2, r3, [r7, #184]	; 0xb8
 c000f7c:	f8d7 30b8 	ldr.w	r3, [r7, #184]	; 0xb8
 c000f80:	f8c7 30b4 	str.w	r3, [r7, #180]	; 0xb4
 c000f84:	f8d7 30b4 	ldr.w	r3, [r7, #180]	; 0xb4
 c000f88:	0e1a      	lsrs	r2, r3, #24
 c000f8a:	f8d7 30b4 	ldr.w	r3, [r7, #180]	; 0xb4
 c000f8e:	0a1b      	lsrs	r3, r3, #8
 c000f90:	f403 437f 	and.w	r3, r3, #65280	; 0xff00
 c000f94:	431a      	orrs	r2, r3
 c000f96:	f8d7 30b4 	ldr.w	r3, [r7, #180]	; 0xb4
 c000f9a:	021b      	lsls	r3, r3, #8
 c000f9c:	f403 037f 	and.w	r3, r3, #16711680	; 0xff0000
 c000fa0:	431a      	orrs	r2, r3
 c000fa2:	f8d7 30b4 	ldr.w	r3, [r7, #180]	; 0xb4
 c000fa6:	061b      	lsls	r3, r3, #24
 c000fa8:	4313      	orrs	r3, r2
 c000faa:	f8c7 30b0 	str.w	r3, [r7, #176]	; 0xb0
 c000fae:	e9d7 012e 	ldrd	r0, r1, [r7, #184]	; 0xb8
 c000fb2:	f04f 0200 	mov.w	r2, #0
 c000fb6:	f04f 0300 	mov.w	r3, #0
 c000fba:	000a      	movs	r2, r1
 c000fbc:	2300      	movs	r3, #0
 c000fbe:	4613      	mov	r3, r2
 c000fc0:	f8c7 30ac 	str.w	r3, [r7, #172]	; 0xac
 c000fc4:	f8d7 30ac 	ldr.w	r3, [r7, #172]	; 0xac
 c000fc8:	0e1a      	lsrs	r2, r3, #24
 c000fca:	f8d7 30ac 	ldr.w	r3, [r7, #172]	; 0xac
 c000fce:	0a1b      	lsrs	r3, r3, #8
 c000fd0:	f403 437f 	and.w	r3, r3, #65280	; 0xff00
 c000fd4:	431a      	orrs	r2, r3
 c000fd6:	f8d7 30ac 	ldr.w	r3, [r7, #172]	; 0xac
 c000fda:	021b      	lsls	r3, r3, #8
 c000fdc:	f403 037f 	and.w	r3, r3, #16711680	; 0xff0000
 c000fe0:	431a      	orrs	r2, r3
 c000fe2:	f8d7 30ac 	ldr.w	r3, [r7, #172]	; 0xac
 c000fe6:	061b      	lsls	r3, r3, #24
 c000fe8:	4313      	orrs	r3, r2
 c000fea:	f8c7 30a8 	str.w	r3, [r7, #168]	; 0xa8
 c000fee:	f8d7 30b0 	ldr.w	r3, [r7, #176]	; 0xb0
 c000ff2:	2200      	movs	r2, #0
 c000ff4:	60bb      	str	r3, [r7, #8]
 c000ff6:	60fa      	str	r2, [r7, #12]
 c000ff8:	f04f 0200 	mov.w	r2, #0
 c000ffc:	f04f 0300 	mov.w	r3, #0
 c001000:	68b9      	ldr	r1, [r7, #8]
 c001002:	000b      	movs	r3, r1
 c001004:	2200      	movs	r2, #0
 c001006:	f8d7 10a8 	ldr.w	r1, [r7, #168]	; 0xa8
 c00100a:	2000      	movs	r0, #0
 c00100c:	468a      	mov	sl, r1
 c00100e:	4683      	mov	fp, r0
 c001010:	ea42 010a 	orr.w	r1, r2, sl
 c001014:	6039      	str	r1, [r7, #0]
 c001016:	ea43 030b 	orr.w	r3, r3, fp
 c00101a:	607b      	str	r3, [r7, #4]
 c00101c:	e9d7 2300 	ldrd	r2, r3, [r7]
 c001020:	f8d7 00cc 	ldr.w	r0, [r7, #204]	; 0xcc
 c001024:	f7ff faea 	bl	c0005fc <store64>
  Hacl_Impl_SHA2_256_update_multi(state, final_blocks, nb);
 c001028:	f8d7 20e4 	ldr.w	r2, [r7, #228]	; 0xe4
 c00102c:	f8d7 10e0 	ldr.w	r1, [r7, #224]	; 0xe0
 c001030:	6a78      	ldr	r0, [r7, #36]	; 0x24
 c001032:	f7ff ff0c 	bl	c000e4e <Hacl_Impl_SHA2_256_update_multi>
}
 c001036:	bf00      	nop
 c001038:	37e8      	adds	r7, #232	; 0xe8
 c00103a:	46bd      	mov	sp, r7
 c00103c:	e8bd 8fb0 	ldmia.w	sp!, {r4, r5, r7, r8, r9, sl, fp, pc}

0c001040 <Hacl_Impl_SHA2_256_finish>:

static void Hacl_Impl_SHA2_256_finish(uint32_t *state, uint8_t *hash1)
{
 c001040:	b580      	push	{r7, lr}
 c001042:	b084      	sub	sp, #16
 c001044:	af00      	add	r7, sp, #0
 c001046:	6078      	str	r0, [r7, #4]
 c001048:	6039      	str	r1, [r7, #0]
  uint32_t *hash_w = state + (uint32_t)128U;
 c00104a:	687b      	ldr	r3, [r7, #4]
 c00104c:	f503 7300 	add.w	r3, r3, #512	; 0x200
 c001050:	60fb      	str	r3, [r7, #12]
  Hacl_Hash_Lib_LoadStore_uint32s_to_be_bytes(hash1, hash_w, (uint32_t)8U);
 c001052:	2208      	movs	r2, #8
 c001054:	68f9      	ldr	r1, [r7, #12]
 c001056:	6838      	ldr	r0, [r7, #0]
 c001058:	f7ff fb14 	bl	c000684 <Hacl_Hash_Lib_LoadStore_uint32s_to_be_bytes>
}
 c00105c:	bf00      	nop
 c00105e:	3710      	adds	r7, #16
 c001060:	46bd      	mov	sp, r7
 c001062:	bd80      	pop	{r7, pc}

0c001064 <Hacl_Impl_SHA2_256_hash>:

static void Hacl_Impl_SHA2_256_hash(uint8_t *hash1, uint8_t *input, uint32_t len)
{
 c001064:	b580      	push	{r7, lr}
 c001066:	f5ad 7d12 	sub.w	sp, sp, #584	; 0x248
 c00106a:	af00      	add	r7, sp, #0
 c00106c:	f507 7312 	add.w	r3, r7, #584	; 0x248
 c001070:	f5a3 730f 	sub.w	r3, r3, #572	; 0x23c
 c001074:	6018      	str	r0, [r3, #0]
 c001076:	f507 7312 	add.w	r3, r7, #584	; 0x248
 c00107a:	f5a3 7310 	sub.w	r3, r3, #576	; 0x240
 c00107e:	6019      	str	r1, [r3, #0]
 c001080:	f507 7312 	add.w	r3, r7, #584	; 0x248
 c001084:	f5a3 7311 	sub.w	r3, r3, #580	; 0x244
 c001088:	601a      	str	r2, [r3, #0]
  uint32_t state[137U] = { 0U };
 c00108a:	f507 7312 	add.w	r3, r7, #584	; 0x248
 c00108e:	f5a3 730d 	sub.w	r3, r3, #564	; 0x234
 c001092:	4618      	mov	r0, r3
 c001094:	f44f 7309 	mov.w	r3, #548	; 0x224
 c001098:	461a      	mov	r2, r3
 c00109a:	2100      	movs	r1, #0
 c00109c:	f006 fe13 	bl	c007cc6 <memset>
  uint32_t n1 = len / (uint32_t)64U;
 c0010a0:	f507 7312 	add.w	r3, r7, #584	; 0x248
 c0010a4:	f5a3 7311 	sub.w	r3, r3, #580	; 0x244
 c0010a8:	681b      	ldr	r3, [r3, #0]
 c0010aa:	099b      	lsrs	r3, r3, #6
 c0010ac:	f8c7 3244 	str.w	r3, [r7, #580]	; 0x244
  uint32_t r = len % (uint32_t)64U;
 c0010b0:	f507 7312 	add.w	r3, r7, #584	; 0x248
 c0010b4:	f5a3 7311 	sub.w	r3, r3, #580	; 0x244
 c0010b8:	681b      	ldr	r3, [r3, #0]
 c0010ba:	f003 033f 	and.w	r3, r3, #63	; 0x3f
 c0010be:	f8c7 3240 	str.w	r3, [r7, #576]	; 0x240
  uint8_t *input_blocks = input;
 c0010c2:	f507 7312 	add.w	r3, r7, #584	; 0x248
 c0010c6:	f5a3 7310 	sub.w	r3, r3, #576	; 0x240
 c0010ca:	681b      	ldr	r3, [r3, #0]
 c0010cc:	f8c7 323c 	str.w	r3, [r7, #572]	; 0x23c
  uint8_t *input_last = input + n1 * (uint32_t)64U;
 c0010d0:	f8d7 3244 	ldr.w	r3, [r7, #580]	; 0x244
 c0010d4:	019b      	lsls	r3, r3, #6
 c0010d6:	f507 7212 	add.w	r2, r7, #584	; 0x248
 c0010da:	f5a2 7210 	sub.w	r2, r2, #576	; 0x240
 c0010de:	6812      	ldr	r2, [r2, #0]
 c0010e0:	4413      	add	r3, r2
 c0010e2:	f8c7 3238 	str.w	r3, [r7, #568]	; 0x238
  Hacl_Impl_SHA2_256_init(state);
 c0010e6:	f107 0314 	add.w	r3, r7, #20
 c0010ea:	4618      	mov	r0, r3
 c0010ec:	f7ff fb00 	bl	c0006f0 <Hacl_Impl_SHA2_256_init>
  Hacl_Impl_SHA2_256_update_multi(state, input_blocks, n1);
 c0010f0:	f107 0314 	add.w	r3, r7, #20
 c0010f4:	f8d7 2244 	ldr.w	r2, [r7, #580]	; 0x244
 c0010f8:	f8d7 123c 	ldr.w	r1, [r7, #572]	; 0x23c
 c0010fc:	4618      	mov	r0, r3
 c0010fe:	f7ff fea6 	bl	c000e4e <Hacl_Impl_SHA2_256_update_multi>
  Hacl_Impl_SHA2_256_update_last(state, input_last, r);
 c001102:	f107 0314 	add.w	r3, r7, #20
 c001106:	f8d7 2240 	ldr.w	r2, [r7, #576]	; 0x240
 c00110a:	f8d7 1238 	ldr.w	r1, [r7, #568]	; 0x238
 c00110e:	4618      	mov	r0, r3
 c001110:	f7ff febb 	bl	c000e8a <Hacl_Impl_SHA2_256_update_last>
  Hacl_Impl_SHA2_256_finish(state, hash1);
 c001114:	f507 7312 	add.w	r3, r7, #584	; 0x248
 c001118:	f5a3 730f 	sub.w	r3, r3, #572	; 0x23c
 c00111c:	f107 0214 	add.w	r2, r7, #20
 c001120:	6819      	ldr	r1, [r3, #0]
 c001122:	4610      	mov	r0, r2
 c001124:	f7ff ff8c 	bl	c001040 <Hacl_Impl_SHA2_256_finish>
}
 c001128:	bf00      	nop
 c00112a:	f507 7712 	add.w	r7, r7, #584	; 0x248
 c00112e:	46bd      	mov	sp, r7
 c001130:	bd80      	pop	{r7, pc}

0c001132 <Hacl_Impl_HMAC_SHA2_256_xor_bytes_inplace>:

static void Hacl_Impl_HMAC_SHA2_256_xor_bytes_inplace(uint8_t *a, uint8_t *b, uint32_t len)
{
 c001132:	b480      	push	{r7}
 c001134:	b087      	sub	sp, #28
 c001136:	af00      	add	r7, sp, #0
 c001138:	60f8      	str	r0, [r7, #12]
 c00113a:	60b9      	str	r1, [r7, #8]
 c00113c:	607a      	str	r2, [r7, #4]
  for (uint32_t i = (uint32_t)0U; i < len; i = i + (uint32_t)1U)
 c00113e:	2300      	movs	r3, #0
 c001140:	617b      	str	r3, [r7, #20]
 c001142:	e014      	b.n	c00116e <Hacl_Impl_HMAC_SHA2_256_xor_bytes_inplace+0x3c>
  {
    uint8_t xi = a[i];
 c001144:	68fa      	ldr	r2, [r7, #12]
 c001146:	697b      	ldr	r3, [r7, #20]
 c001148:	4413      	add	r3, r2
 c00114a:	781b      	ldrb	r3, [r3, #0]
 c00114c:	74fb      	strb	r3, [r7, #19]
    uint8_t yi = b[i];
 c00114e:	68ba      	ldr	r2, [r7, #8]
 c001150:	697b      	ldr	r3, [r7, #20]
 c001152:	4413      	add	r3, r2
 c001154:	781b      	ldrb	r3, [r3, #0]
 c001156:	74bb      	strb	r3, [r7, #18]
    a[i] = xi ^ yi;
 c001158:	68fa      	ldr	r2, [r7, #12]
 c00115a:	697b      	ldr	r3, [r7, #20]
 c00115c:	4413      	add	r3, r2
 c00115e:	7cf9      	ldrb	r1, [r7, #19]
 c001160:	7cba      	ldrb	r2, [r7, #18]
 c001162:	404a      	eors	r2, r1
 c001164:	b2d2      	uxtb	r2, r2
 c001166:	701a      	strb	r2, [r3, #0]
  for (uint32_t i = (uint32_t)0U; i < len; i = i + (uint32_t)1U)
 c001168:	697b      	ldr	r3, [r7, #20]
 c00116a:	3301      	adds	r3, #1
 c00116c:	617b      	str	r3, [r7, #20]
 c00116e:	697a      	ldr	r2, [r7, #20]
 c001170:	687b      	ldr	r3, [r7, #4]
 c001172:	429a      	cmp	r2, r3
 c001174:	d3e6      	bcc.n	c001144 <Hacl_Impl_HMAC_SHA2_256_xor_bytes_inplace+0x12>
  }
}
 c001176:	bf00      	nop
 c001178:	bf00      	nop
 c00117a:	371c      	adds	r7, #28
 c00117c:	46bd      	mov	sp, r7
 c00117e:	f85d 7b04 	ldr.w	r7, [sp], #4
 c001182:	4770      	bx	lr

0c001184 <Hacl_Impl_HMAC_SHA2_256_hmac_core>:

static void
Hacl_Impl_HMAC_SHA2_256_hmac_core(uint8_t *mac, uint8_t *key, uint8_t *data, uint32_t len)
{
 c001184:	b590      	push	{r4, r7, lr}
 c001186:	f2ad 4dfc 	subw	sp, sp, #1276	; 0x4fc
 c00118a:	af00      	add	r7, sp, #0
 c00118c:	f507 649f 	add.w	r4, r7, #1272	; 0x4f8
 c001190:	f2a4 44ec 	subw	r4, r4, #1260	; 0x4ec
 c001194:	6020      	str	r0, [r4, #0]
 c001196:	f507 609f 	add.w	r0, r7, #1272	; 0x4f8
 c00119a:	f5a0 609e 	sub.w	r0, r0, #1264	; 0x4f0
 c00119e:	6001      	str	r1, [r0, #0]
 c0011a0:	f507 619f 	add.w	r1, r7, #1272	; 0x4f8
 c0011a4:	f2a1 41f4 	subw	r1, r1, #1268	; 0x4f4
 c0011a8:	600a      	str	r2, [r1, #0]
 c0011aa:	f507 629f 	add.w	r2, r7, #1272	; 0x4f8
 c0011ae:	f5a2 629f 	sub.w	r2, r2, #1272	; 0x4f8
 c0011b2:	6013      	str	r3, [r2, #0]
  uint8_t ipad[64U];
  for (uint32_t _i = 0U; _i < (uint32_t)64U; ++_i)
 c0011b4:	2300      	movs	r3, #0
 c0011b6:	f8c7 34f4 	str.w	r3, [r7, #1268]	; 0x4f4
 c0011ba:	e00b      	b.n	c0011d4 <Hacl_Impl_HMAC_SHA2_256_hmac_core+0x50>
    ipad[_i] = (uint8_t)0x36U;
 c0011bc:	f507 6293 	add.w	r2, r7, #1176	; 0x498
 c0011c0:	f8d7 34f4 	ldr.w	r3, [r7, #1268]	; 0x4f4
 c0011c4:	4413      	add	r3, r2
 c0011c6:	2236      	movs	r2, #54	; 0x36
 c0011c8:	701a      	strb	r2, [r3, #0]
  for (uint32_t _i = 0U; _i < (uint32_t)64U; ++_i)
 c0011ca:	f8d7 34f4 	ldr.w	r3, [r7, #1268]	; 0x4f4
 c0011ce:	3301      	adds	r3, #1
 c0011d0:	f8c7 34f4 	str.w	r3, [r7, #1268]	; 0x4f4
 c0011d4:	f8d7 34f4 	ldr.w	r3, [r7, #1268]	; 0x4f4
 c0011d8:	2b3f      	cmp	r3, #63	; 0x3f
 c0011da:	d9ef      	bls.n	c0011bc <Hacl_Impl_HMAC_SHA2_256_hmac_core+0x38>
  uint8_t opad[64U];
  for (uint32_t _i = 0U; _i < (uint32_t)64U; ++_i)
 c0011dc:	2300      	movs	r3, #0
 c0011de:	f8c7 34f0 	str.w	r3, [r7, #1264]	; 0x4f0
 c0011e2:	e00b      	b.n	c0011fc <Hacl_Impl_HMAC_SHA2_256_hmac_core+0x78>
    opad[_i] = (uint8_t)0x5cU;
 c0011e4:	f507 628b 	add.w	r2, r7, #1112	; 0x458
 c0011e8:	f8d7 34f0 	ldr.w	r3, [r7, #1264]	; 0x4f0
 c0011ec:	4413      	add	r3, r2
 c0011ee:	225c      	movs	r2, #92	; 0x5c
 c0011f0:	701a      	strb	r2, [r3, #0]
  for (uint32_t _i = 0U; _i < (uint32_t)64U; ++_i)
 c0011f2:	f8d7 34f0 	ldr.w	r3, [r7, #1264]	; 0x4f0
 c0011f6:	3301      	adds	r3, #1
 c0011f8:	f8c7 34f0 	str.w	r3, [r7, #1264]	; 0x4f0
 c0011fc:	f8d7 34f0 	ldr.w	r3, [r7, #1264]	; 0x4f0
 c001200:	2b3f      	cmp	r3, #63	; 0x3f
 c001202:	d9ef      	bls.n	c0011e4 <Hacl_Impl_HMAC_SHA2_256_hmac_core+0x60>
  Hacl_Impl_HMAC_SHA2_256_xor_bytes_inplace(ipad, key, (uint32_t)64U);
 c001204:	f507 639f 	add.w	r3, r7, #1272	; 0x4f8
 c001208:	f5a3 639e 	sub.w	r3, r3, #1264	; 0x4f0
 c00120c:	f507 6093 	add.w	r0, r7, #1176	; 0x498
 c001210:	2240      	movs	r2, #64	; 0x40
 c001212:	6819      	ldr	r1, [r3, #0]
 c001214:	f7ff ff8d 	bl	c001132 <Hacl_Impl_HMAC_SHA2_256_xor_bytes_inplace>
  uint32_t state0[137U] = { 0U };
 c001218:	f507 639f 	add.w	r3, r7, #1272	; 0x4f8
 c00121c:	f5a3 7331 	sub.w	r3, r3, #708	; 0x2c4
 c001220:	4618      	mov	r0, r3
 c001222:	f44f 7309 	mov.w	r3, #548	; 0x224
 c001226:	461a      	mov	r2, r3
 c001228:	2100      	movs	r1, #0
 c00122a:	f006 fd4c 	bl	c007cc6 <memset>
  uint32_t n0 = len / (uint32_t)64U;
 c00122e:	f507 639f 	add.w	r3, r7, #1272	; 0x4f8
 c001232:	f5a3 639f 	sub.w	r3, r3, #1272	; 0x4f8
 c001236:	681b      	ldr	r3, [r3, #0]
 c001238:	099b      	lsrs	r3, r3, #6
 c00123a:	f8c7 34ec 	str.w	r3, [r7, #1260]	; 0x4ec
  uint32_t r0 = len % (uint32_t)64U;
 c00123e:	f507 639f 	add.w	r3, r7, #1272	; 0x4f8
 c001242:	f5a3 639f 	sub.w	r3, r3, #1272	; 0x4f8
 c001246:	681b      	ldr	r3, [r3, #0]
 c001248:	f003 033f 	and.w	r3, r3, #63	; 0x3f
 c00124c:	f8c7 34e8 	str.w	r3, [r7, #1256]	; 0x4e8
  uint8_t *blocks0 = data;
 c001250:	f507 639f 	add.w	r3, r7, #1272	; 0x4f8
 c001254:	f2a3 43f4 	subw	r3, r3, #1268	; 0x4f4
 c001258:	681b      	ldr	r3, [r3, #0]
 c00125a:	f8c7 34e4 	str.w	r3, [r7, #1252]	; 0x4e4
  uint8_t *last0 = data + n0 * (uint32_t)64U;
 c00125e:	f8d7 34ec 	ldr.w	r3, [r7, #1260]	; 0x4ec
 c001262:	019b      	lsls	r3, r3, #6
 c001264:	f507 629f 	add.w	r2, r7, #1272	; 0x4f8
 c001268:	f2a2 42f4 	subw	r2, r2, #1268	; 0x4f4
 c00126c:	6812      	ldr	r2, [r2, #0]
 c00126e:	4413      	add	r3, r2
 c001270:	f8c7 34e0 	str.w	r3, [r7, #1248]	; 0x4e0
  Hacl_Impl_SHA2_256_init(state0);
 c001274:	f507 730d 	add.w	r3, r7, #564	; 0x234
 c001278:	4618      	mov	r0, r3
 c00127a:	f7ff fa39 	bl	c0006f0 <Hacl_Impl_SHA2_256_init>
  Hacl_Impl_SHA2_256_update(state0, ipad);
 c00127e:	f507 6293 	add.w	r2, r7, #1176	; 0x498
 c001282:	f507 730d 	add.w	r3, r7, #564	; 0x234
 c001286:	4611      	mov	r1, r2
 c001288:	4618      	mov	r0, r3
 c00128a:	f7ff fc35 	bl	c000af8 <Hacl_Impl_SHA2_256_update>
  Hacl_Impl_SHA2_256_update_multi(state0, blocks0, n0);
 c00128e:	f507 730d 	add.w	r3, r7, #564	; 0x234
 c001292:	f8d7 24ec 	ldr.w	r2, [r7, #1260]	; 0x4ec
 c001296:	f8d7 14e4 	ldr.w	r1, [r7, #1252]	; 0x4e4
 c00129a:	4618      	mov	r0, r3
 c00129c:	f7ff fdd7 	bl	c000e4e <Hacl_Impl_SHA2_256_update_multi>
  Hacl_Impl_SHA2_256_update_last(state0, last0, r0);
 c0012a0:	f507 730d 	add.w	r3, r7, #564	; 0x234
 c0012a4:	f8d7 24e8 	ldr.w	r2, [r7, #1256]	; 0x4e8
 c0012a8:	f8d7 14e0 	ldr.w	r1, [r7, #1248]	; 0x4e0
 c0012ac:	4618      	mov	r0, r3
 c0012ae:	f7ff fdec 	bl	c000e8a <Hacl_Impl_SHA2_256_update_last>
  uint8_t *hash0 = ipad;
 c0012b2:	f507 6393 	add.w	r3, r7, #1176	; 0x498
 c0012b6:	f8c7 34dc 	str.w	r3, [r7, #1244]	; 0x4dc
  Hacl_Impl_SHA2_256_finish(state0, hash0);
 c0012ba:	f507 730d 	add.w	r3, r7, #564	; 0x234
 c0012be:	f8d7 14dc 	ldr.w	r1, [r7, #1244]	; 0x4dc
 c0012c2:	4618      	mov	r0, r3
 c0012c4:	f7ff febc 	bl	c001040 <Hacl_Impl_SHA2_256_finish>
  uint8_t *s4 = ipad;
 c0012c8:	f507 6393 	add.w	r3, r7, #1176	; 0x498
 c0012cc:	f8c7 34d8 	str.w	r3, [r7, #1240]	; 0x4d8
  Hacl_Impl_HMAC_SHA2_256_xor_bytes_inplace(opad, key, (uint32_t)64U);
 c0012d0:	f507 639f 	add.w	r3, r7, #1272	; 0x4f8
 c0012d4:	f5a3 639e 	sub.w	r3, r3, #1264	; 0x4f0
 c0012d8:	f507 608b 	add.w	r0, r7, #1112	; 0x458
 c0012dc:	2240      	movs	r2, #64	; 0x40
 c0012de:	6819      	ldr	r1, [r3, #0]
 c0012e0:	f7ff ff27 	bl	c001132 <Hacl_Impl_HMAC_SHA2_256_xor_bytes_inplace>
  uint32_t state1[137U] = { 0U };
 c0012e4:	f507 639f 	add.w	r3, r7, #1272	; 0x4f8
 c0012e8:	f5a3 639d 	sub.w	r3, r3, #1256	; 0x4e8
 c0012ec:	4618      	mov	r0, r3
 c0012ee:	f44f 7309 	mov.w	r3, #548	; 0x224
 c0012f2:	461a      	mov	r2, r3
 c0012f4:	2100      	movs	r1, #0
 c0012f6:	f006 fce6 	bl	c007cc6 <memset>
  Hacl_Impl_SHA2_256_init(state1);
 c0012fa:	f107 0310 	add.w	r3, r7, #16
 c0012fe:	4618      	mov	r0, r3
 c001300:	f7ff f9f6 	bl	c0006f0 <Hacl_Impl_SHA2_256_init>
  Hacl_Impl_SHA2_256_update(state1, opad);
 c001304:	f507 628b 	add.w	r2, r7, #1112	; 0x458
 c001308:	f107 0310 	add.w	r3, r7, #16
 c00130c:	4611      	mov	r1, r2
 c00130e:	4618      	mov	r0, r3
 c001310:	f7ff fbf2 	bl	c000af8 <Hacl_Impl_SHA2_256_update>
  Hacl_Impl_SHA2_256_update_last(state1, s4, (uint32_t)32U);
 c001314:	f107 0310 	add.w	r3, r7, #16
 c001318:	2220      	movs	r2, #32
 c00131a:	f8d7 14d8 	ldr.w	r1, [r7, #1240]	; 0x4d8
 c00131e:	4618      	mov	r0, r3
 c001320:	f7ff fdb3 	bl	c000e8a <Hacl_Impl_SHA2_256_update_last>
  Hacl_Impl_SHA2_256_finish(state1, mac);
 c001324:	f507 639f 	add.w	r3, r7, #1272	; 0x4f8
 c001328:	f2a3 43ec 	subw	r3, r3, #1260	; 0x4ec
 c00132c:	f107 0210 	add.w	r2, r7, #16
 c001330:	6819      	ldr	r1, [r3, #0]
 c001332:	4610      	mov	r0, r2
 c001334:	f7ff fe84 	bl	c001040 <Hacl_Impl_SHA2_256_finish>
}
 c001338:	bf00      	nop
 c00133a:	f207 47fc 	addw	r7, r7, #1276	; 0x4fc
 c00133e:	46bd      	mov	sp, r7
 c001340:	bd90      	pop	{r4, r7, pc}

0c001342 <Hacl_Impl_HMAC_SHA2_256_hmac>:
  uint8_t *key,
  uint32_t keylen,
  uint8_t *data,
  uint32_t datalen
)
{
 c001342:	b580      	push	{r7, lr}
 c001344:	b096      	sub	sp, #88	; 0x58
 c001346:	af00      	add	r7, sp, #0
 c001348:	60f8      	str	r0, [r7, #12]
 c00134a:	60b9      	str	r1, [r7, #8]
 c00134c:	607a      	str	r2, [r7, #4]
 c00134e:	603b      	str	r3, [r7, #0]
  uint8_t nkey[64U];
  for (uint32_t _i = 0U; _i < (uint32_t)64U; ++_i)
 c001350:	2300      	movs	r3, #0
 c001352:	657b      	str	r3, [r7, #84]	; 0x54
 c001354:	e008      	b.n	c001368 <Hacl_Impl_HMAC_SHA2_256_hmac+0x26>
    nkey[_i] = (uint8_t)0x00U;
 c001356:	f107 0210 	add.w	r2, r7, #16
 c00135a:	6d7b      	ldr	r3, [r7, #84]	; 0x54
 c00135c:	4413      	add	r3, r2
 c00135e:	2200      	movs	r2, #0
 c001360:	701a      	strb	r2, [r3, #0]
  for (uint32_t _i = 0U; _i < (uint32_t)64U; ++_i)
 c001362:	6d7b      	ldr	r3, [r7, #84]	; 0x54
 c001364:	3301      	adds	r3, #1
 c001366:	657b      	str	r3, [r7, #84]	; 0x54
 c001368:	6d7b      	ldr	r3, [r7, #84]	; 0x54
 c00136a:	2b3f      	cmp	r3, #63	; 0x3f
 c00136c:	d9f3      	bls.n	c001356 <Hacl_Impl_HMAC_SHA2_256_hmac+0x14>
  if (keylen <= (uint32_t)64U)
 c00136e:	687b      	ldr	r3, [r7, #4]
 c001370:	2b40      	cmp	r3, #64	; 0x40
 c001372:	d807      	bhi.n	c001384 <Hacl_Impl_HMAC_SHA2_256_hmac+0x42>
    memcpy(nkey, key, keylen * sizeof key[0U]);
 c001374:	f107 0310 	add.w	r3, r7, #16
 c001378:	687a      	ldr	r2, [r7, #4]
 c00137a:	68b9      	ldr	r1, [r7, #8]
 c00137c:	4618      	mov	r0, r3
 c00137e:	f006 fc95 	bl	c007cac <memcpy>
 c001382:	e007      	b.n	c001394 <Hacl_Impl_HMAC_SHA2_256_hmac+0x52>
  else
  {
    uint8_t *nkey0 = nkey;
 c001384:	f107 0310 	add.w	r3, r7, #16
 c001388:	653b      	str	r3, [r7, #80]	; 0x50
    Hacl_Impl_SHA2_256_hash(nkey0, key, keylen);
 c00138a:	687a      	ldr	r2, [r7, #4]
 c00138c:	68b9      	ldr	r1, [r7, #8]
 c00138e:	6d38      	ldr	r0, [r7, #80]	; 0x50
 c001390:	f7ff fe68 	bl	c001064 <Hacl_Impl_SHA2_256_hash>
  }
  Hacl_Impl_HMAC_SHA2_256_hmac_core(mac, nkey, data, datalen);
 c001394:	f107 0110 	add.w	r1, r7, #16
 c001398:	6e3b      	ldr	r3, [r7, #96]	; 0x60
 c00139a:	683a      	ldr	r2, [r7, #0]
 c00139c:	68f8      	ldr	r0, [r7, #12]
 c00139e:	f7ff fef1 	bl	c001184 <Hacl_Impl_HMAC_SHA2_256_hmac_core>
}
 c0013a2:	bf00      	nop
 c0013a4:	3758      	adds	r7, #88	; 0x58
 c0013a6:	46bd      	mov	sp, r7
 c0013a8:	bd80      	pop	{r7, pc}

0c0013aa <hmac>:
{
  Hacl_Impl_HMAC_SHA2_256_hmac_core(mac, key, data, len);
}

void hmac(uint8_t *mac, uint8_t *key, uint32_t keylen, uint8_t *data, uint32_t datalen)
{
 c0013aa:	b580      	push	{r7, lr}
 c0013ac:	b086      	sub	sp, #24
 c0013ae:	af02      	add	r7, sp, #8
 c0013b0:	60f8      	str	r0, [r7, #12]
 c0013b2:	60b9      	str	r1, [r7, #8]
 c0013b4:	607a      	str	r2, [r7, #4]
 c0013b6:	603b      	str	r3, [r7, #0]
  Hacl_Impl_HMAC_SHA2_256_hmac(mac, key, keylen, data, datalen);
 c0013b8:	69bb      	ldr	r3, [r7, #24]
 c0013ba:	9300      	str	r3, [sp, #0]
 c0013bc:	683b      	ldr	r3, [r7, #0]
 c0013be:	687a      	ldr	r2, [r7, #4]
 c0013c0:	68b9      	ldr	r1, [r7, #8]
 c0013c2:	68f8      	ldr	r0, [r7, #12]
 c0013c4:	f7ff ffbd 	bl	c001342 <Hacl_Impl_HMAC_SHA2_256_hmac>
}
 c0013c8:	bf00      	nop
 c0013ca:	3710      	adds	r7, #16
 c0013cc:	46bd      	mov	sp, r7
 c0013ce:	bd80      	pop	{r7, pc}

0c0013d0 <load32>:
inline static uint32_t load32(uint8_t *b) {
 c0013d0:	b480      	push	{r7}
 c0013d2:	b085      	sub	sp, #20
 c0013d4:	af00      	add	r7, sp, #0
 c0013d6:	6078      	str	r0, [r7, #4]
 c0013d8:	687b      	ldr	r3, [r7, #4]
 c0013da:	681b      	ldr	r3, [r3, #0]
  memcpy(&x, b, 4);
 c0013dc:	60fb      	str	r3, [r7, #12]
  return x;
 c0013de:	68fb      	ldr	r3, [r7, #12]
}
 c0013e0:	4618      	mov	r0, r3
 c0013e2:	3714      	adds	r7, #20
 c0013e4:	46bd      	mov	sp, r7
 c0013e6:	f85d 7b04 	ldr.w	r7, [sp], #4
 c0013ea:	4770      	bx	lr

0c0013ec <store32>:
inline static void store32(uint8_t *b, uint32_t i) { memcpy(b, &i, 4); }
 c0013ec:	b480      	push	{r7}
 c0013ee:	b083      	sub	sp, #12
 c0013f0:	af00      	add	r7, sp, #0
 c0013f2:	6078      	str	r0, [r7, #4]
 c0013f4:	6039      	str	r1, [r7, #0]
 c0013f6:	683a      	ldr	r2, [r7, #0]
 c0013f8:	687b      	ldr	r3, [r7, #4]
 c0013fa:	601a      	str	r2, [r3, #0]
 c0013fc:	bf00      	nop
 c0013fe:	370c      	adds	r7, #12
 c001400:	46bd      	mov	sp, r7
 c001402:	f85d 7b04 	ldr.w	r7, [sp], #4
 c001406:	4770      	bx	lr

0c001408 <store64>:
inline static void store64(uint8_t *b, uint64_t i) { memcpy(b, &i, 8); }
 c001408:	b580      	push	{r7, lr}
 c00140a:	b084      	sub	sp, #16
 c00140c:	af00      	add	r7, sp, #0
 c00140e:	60f8      	str	r0, [r7, #12]
 c001410:	e9c7 2300 	strd	r2, r3, [r7]
 c001414:	463b      	mov	r3, r7
 c001416:	2208      	movs	r2, #8
 c001418:	4619      	mov	r1, r3
 c00141a:	68f8      	ldr	r0, [r7, #12]
 c00141c:	f006 fc46 	bl	c007cac <memcpy>
 c001420:	bf00      	nop
 c001422:	3710      	adds	r7, #16
 c001424:	46bd      	mov	sp, r7
 c001426:	bd80      	pop	{r7, pc}

0c001428 <Hacl_Hash_Lib_LoadStore_uint32s_from_be_bytes>:

#include "Hacl_SHA2_256.h"

static void
Hacl_Hash_Lib_LoadStore_uint32s_from_be_bytes(uint32_t *output, uint8_t *input, uint32_t len)
{
 c001428:	b580      	push	{r7, lr}
 c00142a:	b088      	sub	sp, #32
 c00142c:	af00      	add	r7, sp, #0
 c00142e:	60f8      	str	r0, [r7, #12]
 c001430:	60b9      	str	r1, [r7, #8]
 c001432:	607a      	str	r2, [r7, #4]
  for (uint32_t i = (uint32_t)0U; i < len; i = i + (uint32_t)1U)
 c001434:	2300      	movs	r3, #0
 c001436:	61fb      	str	r3, [r7, #28]
 c001438:	e021      	b.n	c00147e <Hacl_Hash_Lib_LoadStore_uint32s_from_be_bytes+0x56>
  {
    uint8_t *x0 = input + (uint32_t)4U * i;
 c00143a:	69fb      	ldr	r3, [r7, #28]
 c00143c:	009b      	lsls	r3, r3, #2
 c00143e:	68ba      	ldr	r2, [r7, #8]
 c001440:	4413      	add	r3, r2
 c001442:	61bb      	str	r3, [r7, #24]
    uint32_t inputi = load32_be(x0);
 c001444:	69b8      	ldr	r0, [r7, #24]
 c001446:	f7ff ffc3 	bl	c0013d0 <load32>
 c00144a:	6178      	str	r0, [r7, #20]
 c00144c:	697b      	ldr	r3, [r7, #20]
 c00144e:	0e1a      	lsrs	r2, r3, #24
 c001450:	697b      	ldr	r3, [r7, #20]
 c001452:	0a1b      	lsrs	r3, r3, #8
 c001454:	f403 437f 	and.w	r3, r3, #65280	; 0xff00
 c001458:	431a      	orrs	r2, r3
 c00145a:	697b      	ldr	r3, [r7, #20]
 c00145c:	021b      	lsls	r3, r3, #8
 c00145e:	f403 037f 	and.w	r3, r3, #16711680	; 0xff0000
 c001462:	431a      	orrs	r2, r3
 c001464:	697b      	ldr	r3, [r7, #20]
 c001466:	061b      	lsls	r3, r3, #24
 c001468:	4313      	orrs	r3, r2
 c00146a:	613b      	str	r3, [r7, #16]
    output[i] = inputi;
 c00146c:	69fb      	ldr	r3, [r7, #28]
 c00146e:	009b      	lsls	r3, r3, #2
 c001470:	68fa      	ldr	r2, [r7, #12]
 c001472:	4413      	add	r3, r2
 c001474:	693a      	ldr	r2, [r7, #16]
 c001476:	601a      	str	r2, [r3, #0]
  for (uint32_t i = (uint32_t)0U; i < len; i = i + (uint32_t)1U)
 c001478:	69fb      	ldr	r3, [r7, #28]
 c00147a:	3301      	adds	r3, #1
 c00147c:	61fb      	str	r3, [r7, #28]
 c00147e:	69fa      	ldr	r2, [r7, #28]
 c001480:	687b      	ldr	r3, [r7, #4]
 c001482:	429a      	cmp	r2, r3
 c001484:	d3d9      	bcc.n	c00143a <Hacl_Hash_Lib_LoadStore_uint32s_from_be_bytes+0x12>
  }
}
 c001486:	bf00      	nop
 c001488:	bf00      	nop
 c00148a:	3720      	adds	r7, #32
 c00148c:	46bd      	mov	sp, r7
 c00148e:	bd80      	pop	{r7, pc}

0c001490 <Hacl_Hash_Lib_LoadStore_uint32s_to_be_bytes>:

static void
Hacl_Hash_Lib_LoadStore_uint32s_to_be_bytes(uint8_t *output, uint32_t *input, uint32_t len)
{
 c001490:	b580      	push	{r7, lr}
 c001492:	b088      	sub	sp, #32
 c001494:	af00      	add	r7, sp, #0
 c001496:	60f8      	str	r0, [r7, #12]
 c001498:	60b9      	str	r1, [r7, #8]
 c00149a:	607a      	str	r2, [r7, #4]
  for (uint32_t i = (uint32_t)0U; i < len; i = i + (uint32_t)1U)
 c00149c:	2300      	movs	r3, #0
 c00149e:	61fb      	str	r3, [r7, #28]
 c0014a0:	e022      	b.n	c0014e8 <Hacl_Hash_Lib_LoadStore_uint32s_to_be_bytes+0x58>
  {
    uint32_t hd1 = input[i];
 c0014a2:	69fb      	ldr	r3, [r7, #28]
 c0014a4:	009b      	lsls	r3, r3, #2
 c0014a6:	68ba      	ldr	r2, [r7, #8]
 c0014a8:	4413      	add	r3, r2
 c0014aa:	681b      	ldr	r3, [r3, #0]
 c0014ac:	61bb      	str	r3, [r7, #24]
    uint8_t *x0 = output + (uint32_t)4U * i;
 c0014ae:	69fb      	ldr	r3, [r7, #28]
 c0014b0:	009b      	lsls	r3, r3, #2
 c0014b2:	68fa      	ldr	r2, [r7, #12]
 c0014b4:	4413      	add	r3, r2
 c0014b6:	617b      	str	r3, [r7, #20]
    store32_be(x0, hd1);
 c0014b8:	69bb      	ldr	r3, [r7, #24]
 c0014ba:	613b      	str	r3, [r7, #16]
 c0014bc:	693b      	ldr	r3, [r7, #16]
 c0014be:	0e1a      	lsrs	r2, r3, #24
 c0014c0:	693b      	ldr	r3, [r7, #16]
 c0014c2:	0a1b      	lsrs	r3, r3, #8
 c0014c4:	f403 437f 	and.w	r3, r3, #65280	; 0xff00
 c0014c8:	431a      	orrs	r2, r3
 c0014ca:	693b      	ldr	r3, [r7, #16]
 c0014cc:	021b      	lsls	r3, r3, #8
 c0014ce:	f403 037f 	and.w	r3, r3, #16711680	; 0xff0000
 c0014d2:	431a      	orrs	r2, r3
 c0014d4:	693b      	ldr	r3, [r7, #16]
 c0014d6:	061b      	lsls	r3, r3, #24
 c0014d8:	4313      	orrs	r3, r2
 c0014da:	4619      	mov	r1, r3
 c0014dc:	6978      	ldr	r0, [r7, #20]
 c0014de:	f7ff ff85 	bl	c0013ec <store32>
  for (uint32_t i = (uint32_t)0U; i < len; i = i + (uint32_t)1U)
 c0014e2:	69fb      	ldr	r3, [r7, #28]
 c0014e4:	3301      	adds	r3, #1
 c0014e6:	61fb      	str	r3, [r7, #28]
 c0014e8:	69fa      	ldr	r2, [r7, #28]
 c0014ea:	687b      	ldr	r3, [r7, #4]
 c0014ec:	429a      	cmp	r2, r3
 c0014ee:	d3d8      	bcc.n	c0014a2 <Hacl_Hash_Lib_LoadStore_uint32s_to_be_bytes+0x12>
  }
}
 c0014f0:	bf00      	nop
 c0014f2:	bf00      	nop
 c0014f4:	3720      	adds	r7, #32
 c0014f6:	46bd      	mov	sp, r7
 c0014f8:	bd80      	pop	{r7, pc}
	...

0c0014fc <Hacl_Impl_SHA2_256_init>:

static void Hacl_Impl_SHA2_256_init(uint32_t *state)
{
 c0014fc:	b480      	push	{r7}
 c0014fe:	b0a3      	sub	sp, #140	; 0x8c
 c001500:	af00      	add	r7, sp, #0
 c001502:	6078      	str	r0, [r7, #4]
  uint32_t *k1 = state;
 c001504:	687b      	ldr	r3, [r7, #4]
 c001506:	f8c7 3084 	str.w	r3, [r7, #132]	; 0x84
  uint32_t *h_01 = state + (uint32_t)128U;
 c00150a:	687b      	ldr	r3, [r7, #4]
 c00150c:	f503 7300 	add.w	r3, r3, #512	; 0x200
 c001510:	f8c7 3080 	str.w	r3, [r7, #128]	; 0x80
  uint32_t *p10 = k1;
 c001514:	f8d7 3084 	ldr.w	r3, [r7, #132]	; 0x84
 c001518:	67fb      	str	r3, [r7, #124]	; 0x7c
  uint32_t *p20 = k1 + (uint32_t)16U;
 c00151a:	f8d7 3084 	ldr.w	r3, [r7, #132]	; 0x84
 c00151e:	3340      	adds	r3, #64	; 0x40
 c001520:	67bb      	str	r3, [r7, #120]	; 0x78
  uint32_t *p3 = k1 + (uint32_t)32U;
 c001522:	f8d7 3084 	ldr.w	r3, [r7, #132]	; 0x84
 c001526:	3380      	adds	r3, #128	; 0x80
 c001528:	677b      	str	r3, [r7, #116]	; 0x74
  uint32_t *p4 = k1 + (uint32_t)48U;
 c00152a:	f8d7 3084 	ldr.w	r3, [r7, #132]	; 0x84
 c00152e:	33c0      	adds	r3, #192	; 0xc0
 c001530:	673b      	str	r3, [r7, #112]	; 0x70
  uint32_t *p11 = p10;
 c001532:	6ffb      	ldr	r3, [r7, #124]	; 0x7c
 c001534:	66fb      	str	r3, [r7, #108]	; 0x6c
  uint32_t *p21 = p10 + (uint32_t)8U;
 c001536:	6ffb      	ldr	r3, [r7, #124]	; 0x7c
 c001538:	3320      	adds	r3, #32
 c00153a:	66bb      	str	r3, [r7, #104]	; 0x68
  uint32_t *p12 = p11;
 c00153c:	6efb      	ldr	r3, [r7, #108]	; 0x6c
 c00153e:	667b      	str	r3, [r7, #100]	; 0x64
  uint32_t *p22 = p11 + (uint32_t)4U;
 c001540:	6efb      	ldr	r3, [r7, #108]	; 0x6c
 c001542:	3310      	adds	r3, #16
 c001544:	663b      	str	r3, [r7, #96]	; 0x60
  p12[0U] = (uint32_t)0x428a2f98U;
 c001546:	6e7b      	ldr	r3, [r7, #100]	; 0x64
 c001548:	4a8d      	ldr	r2, [pc, #564]	; (c001780 <Hacl_Impl_SHA2_256_init+0x284>)
 c00154a:	601a      	str	r2, [r3, #0]
  p12[1U] = (uint32_t)0x71374491U;
 c00154c:	6e7b      	ldr	r3, [r7, #100]	; 0x64
 c00154e:	3304      	adds	r3, #4
 c001550:	4a8c      	ldr	r2, [pc, #560]	; (c001784 <Hacl_Impl_SHA2_256_init+0x288>)
 c001552:	601a      	str	r2, [r3, #0]
  p12[2U] = (uint32_t)0xb5c0fbcfU;
 c001554:	6e7b      	ldr	r3, [r7, #100]	; 0x64
 c001556:	3308      	adds	r3, #8
 c001558:	4a8b      	ldr	r2, [pc, #556]	; (c001788 <Hacl_Impl_SHA2_256_init+0x28c>)
 c00155a:	601a      	str	r2, [r3, #0]
  p12[3U] = (uint32_t)0xe9b5dba5U;
 c00155c:	6e7b      	ldr	r3, [r7, #100]	; 0x64
 c00155e:	330c      	adds	r3, #12
 c001560:	4a8a      	ldr	r2, [pc, #552]	; (c00178c <Hacl_Impl_SHA2_256_init+0x290>)
 c001562:	601a      	str	r2, [r3, #0]
  p22[0U] = (uint32_t)0x3956c25bU;
 c001564:	6e3b      	ldr	r3, [r7, #96]	; 0x60
 c001566:	4a8a      	ldr	r2, [pc, #552]	; (c001790 <Hacl_Impl_SHA2_256_init+0x294>)
 c001568:	601a      	str	r2, [r3, #0]
  p22[1U] = (uint32_t)0x59f111f1U;
 c00156a:	6e3b      	ldr	r3, [r7, #96]	; 0x60
 c00156c:	3304      	adds	r3, #4
 c00156e:	4a89      	ldr	r2, [pc, #548]	; (c001794 <Hacl_Impl_SHA2_256_init+0x298>)
 c001570:	601a      	str	r2, [r3, #0]
  p22[2U] = (uint32_t)0x923f82a4U;
 c001572:	6e3b      	ldr	r3, [r7, #96]	; 0x60
 c001574:	3308      	adds	r3, #8
 c001576:	4a88      	ldr	r2, [pc, #544]	; (c001798 <Hacl_Impl_SHA2_256_init+0x29c>)
 c001578:	601a      	str	r2, [r3, #0]
  p22[3U] = (uint32_t)0xab1c5ed5U;
 c00157a:	6e3b      	ldr	r3, [r7, #96]	; 0x60
 c00157c:	330c      	adds	r3, #12
 c00157e:	4a87      	ldr	r2, [pc, #540]	; (c00179c <Hacl_Impl_SHA2_256_init+0x2a0>)
 c001580:	601a      	str	r2, [r3, #0]
  uint32_t *p13 = p21;
 c001582:	6ebb      	ldr	r3, [r7, #104]	; 0x68
 c001584:	65fb      	str	r3, [r7, #92]	; 0x5c
  uint32_t *p23 = p21 + (uint32_t)4U;
 c001586:	6ebb      	ldr	r3, [r7, #104]	; 0x68
 c001588:	3310      	adds	r3, #16
 c00158a:	65bb      	str	r3, [r7, #88]	; 0x58
  p13[0U] = (uint32_t)0xd807aa98U;
 c00158c:	6dfb      	ldr	r3, [r7, #92]	; 0x5c
 c00158e:	4a84      	ldr	r2, [pc, #528]	; (c0017a0 <Hacl_Impl_SHA2_256_init+0x2a4>)
 c001590:	601a      	str	r2, [r3, #0]
  p13[1U] = (uint32_t)0x12835b01U;
 c001592:	6dfb      	ldr	r3, [r7, #92]	; 0x5c
 c001594:	3304      	adds	r3, #4
 c001596:	4a83      	ldr	r2, [pc, #524]	; (c0017a4 <Hacl_Impl_SHA2_256_init+0x2a8>)
 c001598:	601a      	str	r2, [r3, #0]
  p13[2U] = (uint32_t)0x243185beU;
 c00159a:	6dfb      	ldr	r3, [r7, #92]	; 0x5c
 c00159c:	3308      	adds	r3, #8
 c00159e:	4a82      	ldr	r2, [pc, #520]	; (c0017a8 <Hacl_Impl_SHA2_256_init+0x2ac>)
 c0015a0:	601a      	str	r2, [r3, #0]
  p13[3U] = (uint32_t)0x550c7dc3U;
 c0015a2:	6dfb      	ldr	r3, [r7, #92]	; 0x5c
 c0015a4:	330c      	adds	r3, #12
 c0015a6:	4a81      	ldr	r2, [pc, #516]	; (c0017ac <Hacl_Impl_SHA2_256_init+0x2b0>)
 c0015a8:	601a      	str	r2, [r3, #0]
  p23[0U] = (uint32_t)0x72be5d74U;
 c0015aa:	6dbb      	ldr	r3, [r7, #88]	; 0x58
 c0015ac:	4a80      	ldr	r2, [pc, #512]	; (c0017b0 <Hacl_Impl_SHA2_256_init+0x2b4>)
 c0015ae:	601a      	str	r2, [r3, #0]
  p23[1U] = (uint32_t)0x80deb1feU;
 c0015b0:	6dbb      	ldr	r3, [r7, #88]	; 0x58
 c0015b2:	3304      	adds	r3, #4
 c0015b4:	4a7f      	ldr	r2, [pc, #508]	; (c0017b4 <Hacl_Impl_SHA2_256_init+0x2b8>)
 c0015b6:	601a      	str	r2, [r3, #0]
  p23[2U] = (uint32_t)0x9bdc06a7U;
 c0015b8:	6dbb      	ldr	r3, [r7, #88]	; 0x58
 c0015ba:	3308      	adds	r3, #8
 c0015bc:	4a7e      	ldr	r2, [pc, #504]	; (c0017b8 <Hacl_Impl_SHA2_256_init+0x2bc>)
 c0015be:	601a      	str	r2, [r3, #0]
  p23[3U] = (uint32_t)0xc19bf174U;
 c0015c0:	6dbb      	ldr	r3, [r7, #88]	; 0x58
 c0015c2:	330c      	adds	r3, #12
 c0015c4:	4a7d      	ldr	r2, [pc, #500]	; (c0017bc <Hacl_Impl_SHA2_256_init+0x2c0>)
 c0015c6:	601a      	str	r2, [r3, #0]
  uint32_t *p14 = p20;
 c0015c8:	6fbb      	ldr	r3, [r7, #120]	; 0x78
 c0015ca:	657b      	str	r3, [r7, #84]	; 0x54
  uint32_t *p24 = p20 + (uint32_t)8U;
 c0015cc:	6fbb      	ldr	r3, [r7, #120]	; 0x78
 c0015ce:	3320      	adds	r3, #32
 c0015d0:	653b      	str	r3, [r7, #80]	; 0x50
  uint32_t *p15 = p14;
 c0015d2:	6d7b      	ldr	r3, [r7, #84]	; 0x54
 c0015d4:	64fb      	str	r3, [r7, #76]	; 0x4c
  uint32_t *p25 = p14 + (uint32_t)4U;
 c0015d6:	6d7b      	ldr	r3, [r7, #84]	; 0x54
 c0015d8:	3310      	adds	r3, #16
 c0015da:	64bb      	str	r3, [r7, #72]	; 0x48
  p15[0U] = (uint32_t)0xe49b69c1U;
 c0015dc:	6cfb      	ldr	r3, [r7, #76]	; 0x4c
 c0015de:	4a78      	ldr	r2, [pc, #480]	; (c0017c0 <Hacl_Impl_SHA2_256_init+0x2c4>)
 c0015e0:	601a      	str	r2, [r3, #0]
  p15[1U] = (uint32_t)0xefbe4786U;
 c0015e2:	6cfb      	ldr	r3, [r7, #76]	; 0x4c
 c0015e4:	3304      	adds	r3, #4
 c0015e6:	4a77      	ldr	r2, [pc, #476]	; (c0017c4 <Hacl_Impl_SHA2_256_init+0x2c8>)
 c0015e8:	601a      	str	r2, [r3, #0]
  p15[2U] = (uint32_t)0x0fc19dc6U;
 c0015ea:	6cfb      	ldr	r3, [r7, #76]	; 0x4c
 c0015ec:	3308      	adds	r3, #8
 c0015ee:	4a76      	ldr	r2, [pc, #472]	; (c0017c8 <Hacl_Impl_SHA2_256_init+0x2cc>)
 c0015f0:	601a      	str	r2, [r3, #0]
  p15[3U] = (uint32_t)0x240ca1ccU;
 c0015f2:	6cfb      	ldr	r3, [r7, #76]	; 0x4c
 c0015f4:	330c      	adds	r3, #12
 c0015f6:	4a75      	ldr	r2, [pc, #468]	; (c0017cc <Hacl_Impl_SHA2_256_init+0x2d0>)
 c0015f8:	601a      	str	r2, [r3, #0]
  p25[0U] = (uint32_t)0x2de92c6fU;
 c0015fa:	6cbb      	ldr	r3, [r7, #72]	; 0x48
 c0015fc:	4a74      	ldr	r2, [pc, #464]	; (c0017d0 <Hacl_Impl_SHA2_256_init+0x2d4>)
 c0015fe:	601a      	str	r2, [r3, #0]
  p25[1U] = (uint32_t)0x4a7484aaU;
 c001600:	6cbb      	ldr	r3, [r7, #72]	; 0x48
 c001602:	3304      	adds	r3, #4
 c001604:	4a73      	ldr	r2, [pc, #460]	; (c0017d4 <Hacl_Impl_SHA2_256_init+0x2d8>)
 c001606:	601a      	str	r2, [r3, #0]
  p25[2U] = (uint32_t)0x5cb0a9dcU;
 c001608:	6cbb      	ldr	r3, [r7, #72]	; 0x48
 c00160a:	3308      	adds	r3, #8
 c00160c:	4a72      	ldr	r2, [pc, #456]	; (c0017d8 <Hacl_Impl_SHA2_256_init+0x2dc>)
 c00160e:	601a      	str	r2, [r3, #0]
  p25[3U] = (uint32_t)0x76f988daU;
 c001610:	6cbb      	ldr	r3, [r7, #72]	; 0x48
 c001612:	330c      	adds	r3, #12
 c001614:	4a71      	ldr	r2, [pc, #452]	; (c0017dc <Hacl_Impl_SHA2_256_init+0x2e0>)
 c001616:	601a      	str	r2, [r3, #0]
  uint32_t *p16 = p24;
 c001618:	6d3b      	ldr	r3, [r7, #80]	; 0x50
 c00161a:	647b      	str	r3, [r7, #68]	; 0x44
  uint32_t *p26 = p24 + (uint32_t)4U;
 c00161c:	6d3b      	ldr	r3, [r7, #80]	; 0x50
 c00161e:	3310      	adds	r3, #16
 c001620:	643b      	str	r3, [r7, #64]	; 0x40
  p16[0U] = (uint32_t)0x983e5152U;
 c001622:	6c7b      	ldr	r3, [r7, #68]	; 0x44
 c001624:	4a6e      	ldr	r2, [pc, #440]	; (c0017e0 <Hacl_Impl_SHA2_256_init+0x2e4>)
 c001626:	601a      	str	r2, [r3, #0]
  p16[1U] = (uint32_t)0xa831c66dU;
 c001628:	6c7b      	ldr	r3, [r7, #68]	; 0x44
 c00162a:	3304      	adds	r3, #4
 c00162c:	4a6d      	ldr	r2, [pc, #436]	; (c0017e4 <Hacl_Impl_SHA2_256_init+0x2e8>)
 c00162e:	601a      	str	r2, [r3, #0]
  p16[2U] = (uint32_t)0xb00327c8U;
 c001630:	6c7b      	ldr	r3, [r7, #68]	; 0x44
 c001632:	3308      	adds	r3, #8
 c001634:	4a6c      	ldr	r2, [pc, #432]	; (c0017e8 <Hacl_Impl_SHA2_256_init+0x2ec>)
 c001636:	601a      	str	r2, [r3, #0]
  p16[3U] = (uint32_t)0xbf597fc7U;
 c001638:	6c7b      	ldr	r3, [r7, #68]	; 0x44
 c00163a:	330c      	adds	r3, #12
 c00163c:	4a6b      	ldr	r2, [pc, #428]	; (c0017ec <Hacl_Impl_SHA2_256_init+0x2f0>)
 c00163e:	601a      	str	r2, [r3, #0]
  p26[0U] = (uint32_t)0xc6e00bf3U;
 c001640:	6c3b      	ldr	r3, [r7, #64]	; 0x40
 c001642:	4a6b      	ldr	r2, [pc, #428]	; (c0017f0 <Hacl_Impl_SHA2_256_init+0x2f4>)
 c001644:	601a      	str	r2, [r3, #0]
  p26[1U] = (uint32_t)0xd5a79147U;
 c001646:	6c3b      	ldr	r3, [r7, #64]	; 0x40
 c001648:	3304      	adds	r3, #4
 c00164a:	4a6a      	ldr	r2, [pc, #424]	; (c0017f4 <Hacl_Impl_SHA2_256_init+0x2f8>)
 c00164c:	601a      	str	r2, [r3, #0]
  p26[2U] = (uint32_t)0x06ca6351U;
 c00164e:	6c3b      	ldr	r3, [r7, #64]	; 0x40
 c001650:	3308      	adds	r3, #8
 c001652:	4a69      	ldr	r2, [pc, #420]	; (c0017f8 <Hacl_Impl_SHA2_256_init+0x2fc>)
 c001654:	601a      	str	r2, [r3, #0]
  p26[3U] = (uint32_t)0x14292967U;
 c001656:	6c3b      	ldr	r3, [r7, #64]	; 0x40
 c001658:	330c      	adds	r3, #12
 c00165a:	4a68      	ldr	r2, [pc, #416]	; (c0017fc <Hacl_Impl_SHA2_256_init+0x300>)
 c00165c:	601a      	str	r2, [r3, #0]
  uint32_t *p17 = p3;
 c00165e:	6f7b      	ldr	r3, [r7, #116]	; 0x74
 c001660:	63fb      	str	r3, [r7, #60]	; 0x3c
  uint32_t *p27 = p3 + (uint32_t)8U;
 c001662:	6f7b      	ldr	r3, [r7, #116]	; 0x74
 c001664:	3320      	adds	r3, #32
 c001666:	63bb      	str	r3, [r7, #56]	; 0x38
  uint32_t *p18 = p17;
 c001668:	6bfb      	ldr	r3, [r7, #60]	; 0x3c
 c00166a:	637b      	str	r3, [r7, #52]	; 0x34
  uint32_t *p28 = p17 + (uint32_t)4U;
 c00166c:	6bfb      	ldr	r3, [r7, #60]	; 0x3c
 c00166e:	3310      	adds	r3, #16
 c001670:	633b      	str	r3, [r7, #48]	; 0x30
  p18[0U] = (uint32_t)0x27b70a85U;
 c001672:	6b7b      	ldr	r3, [r7, #52]	; 0x34
 c001674:	4a62      	ldr	r2, [pc, #392]	; (c001800 <Hacl_Impl_SHA2_256_init+0x304>)
 c001676:	601a      	str	r2, [r3, #0]
  p18[1U] = (uint32_t)0x2e1b2138U;
 c001678:	6b7b      	ldr	r3, [r7, #52]	; 0x34
 c00167a:	3304      	adds	r3, #4
 c00167c:	4a61      	ldr	r2, [pc, #388]	; (c001804 <Hacl_Impl_SHA2_256_init+0x308>)
 c00167e:	601a      	str	r2, [r3, #0]
  p18[2U] = (uint32_t)0x4d2c6dfcU;
 c001680:	6b7b      	ldr	r3, [r7, #52]	; 0x34
 c001682:	3308      	adds	r3, #8
 c001684:	4a60      	ldr	r2, [pc, #384]	; (c001808 <Hacl_Impl_SHA2_256_init+0x30c>)
 c001686:	601a      	str	r2, [r3, #0]
  p18[3U] = (uint32_t)0x53380d13U;
 c001688:	6b7b      	ldr	r3, [r7, #52]	; 0x34
 c00168a:	330c      	adds	r3, #12
 c00168c:	4a5f      	ldr	r2, [pc, #380]	; (c00180c <Hacl_Impl_SHA2_256_init+0x310>)
 c00168e:	601a      	str	r2, [r3, #0]
  p28[0U] = (uint32_t)0x650a7354U;
 c001690:	6b3b      	ldr	r3, [r7, #48]	; 0x30
 c001692:	4a5f      	ldr	r2, [pc, #380]	; (c001810 <Hacl_Impl_SHA2_256_init+0x314>)
 c001694:	601a      	str	r2, [r3, #0]
  p28[1U] = (uint32_t)0x766a0abbU;
 c001696:	6b3b      	ldr	r3, [r7, #48]	; 0x30
 c001698:	3304      	adds	r3, #4
 c00169a:	4a5e      	ldr	r2, [pc, #376]	; (c001814 <Hacl_Impl_SHA2_256_init+0x318>)
 c00169c:	601a      	str	r2, [r3, #0]
  p28[2U] = (uint32_t)0x81c2c92eU;
 c00169e:	6b3b      	ldr	r3, [r7, #48]	; 0x30
 c0016a0:	3308      	adds	r3, #8
 c0016a2:	4a5d      	ldr	r2, [pc, #372]	; (c001818 <Hacl_Impl_SHA2_256_init+0x31c>)
 c0016a4:	601a      	str	r2, [r3, #0]
  p28[3U] = (uint32_t)0x92722c85U;
 c0016a6:	6b3b      	ldr	r3, [r7, #48]	; 0x30
 c0016a8:	330c      	adds	r3, #12
 c0016aa:	4a5c      	ldr	r2, [pc, #368]	; (c00181c <Hacl_Impl_SHA2_256_init+0x320>)
 c0016ac:	601a      	str	r2, [r3, #0]
  uint32_t *p19 = p27;
 c0016ae:	6bbb      	ldr	r3, [r7, #56]	; 0x38
 c0016b0:	62fb      	str	r3, [r7, #44]	; 0x2c
  uint32_t *p29 = p27 + (uint32_t)4U;
 c0016b2:	6bbb      	ldr	r3, [r7, #56]	; 0x38
 c0016b4:	3310      	adds	r3, #16
 c0016b6:	62bb      	str	r3, [r7, #40]	; 0x28
  p19[0U] = (uint32_t)0xa2bfe8a1U;
 c0016b8:	6afb      	ldr	r3, [r7, #44]	; 0x2c
 c0016ba:	4a59      	ldr	r2, [pc, #356]	; (c001820 <Hacl_Impl_SHA2_256_init+0x324>)
 c0016bc:	601a      	str	r2, [r3, #0]
  p19[1U] = (uint32_t)0xa81a664bU;
 c0016be:	6afb      	ldr	r3, [r7, #44]	; 0x2c
 c0016c0:	3304      	adds	r3, #4
 c0016c2:	4a58      	ldr	r2, [pc, #352]	; (c001824 <Hacl_Impl_SHA2_256_init+0x328>)
 c0016c4:	601a      	str	r2, [r3, #0]
  p19[2U] = (uint32_t)0xc24b8b70U;
 c0016c6:	6afb      	ldr	r3, [r7, #44]	; 0x2c
 c0016c8:	3308      	adds	r3, #8
 c0016ca:	4a57      	ldr	r2, [pc, #348]	; (c001828 <Hacl_Impl_SHA2_256_init+0x32c>)
 c0016cc:	601a      	str	r2, [r3, #0]
  p19[3U] = (uint32_t)0xc76c51a3U;
 c0016ce:	6afb      	ldr	r3, [r7, #44]	; 0x2c
 c0016d0:	330c      	adds	r3, #12
 c0016d2:	4a56      	ldr	r2, [pc, #344]	; (c00182c <Hacl_Impl_SHA2_256_init+0x330>)
 c0016d4:	601a      	str	r2, [r3, #0]
  p29[0U] = (uint32_t)0xd192e819U;
 c0016d6:	6abb      	ldr	r3, [r7, #40]	; 0x28
 c0016d8:	4a55      	ldr	r2, [pc, #340]	; (c001830 <Hacl_Impl_SHA2_256_init+0x334>)
 c0016da:	601a      	str	r2, [r3, #0]
  p29[1U] = (uint32_t)0xd6990624U;
 c0016dc:	6abb      	ldr	r3, [r7, #40]	; 0x28
 c0016de:	3304      	adds	r3, #4
 c0016e0:	4a54      	ldr	r2, [pc, #336]	; (c001834 <Hacl_Impl_SHA2_256_init+0x338>)
 c0016e2:	601a      	str	r2, [r3, #0]
  p29[2U] = (uint32_t)0xf40e3585U;
 c0016e4:	6abb      	ldr	r3, [r7, #40]	; 0x28
 c0016e6:	3308      	adds	r3, #8
 c0016e8:	4a53      	ldr	r2, [pc, #332]	; (c001838 <Hacl_Impl_SHA2_256_init+0x33c>)
 c0016ea:	601a      	str	r2, [r3, #0]
  p29[3U] = (uint32_t)0x106aa070U;
 c0016ec:	6abb      	ldr	r3, [r7, #40]	; 0x28
 c0016ee:	330c      	adds	r3, #12
 c0016f0:	4a52      	ldr	r2, [pc, #328]	; (c00183c <Hacl_Impl_SHA2_256_init+0x340>)
 c0016f2:	601a      	str	r2, [r3, #0]
  uint32_t *p110 = p4;
 c0016f4:	6f3b      	ldr	r3, [r7, #112]	; 0x70
 c0016f6:	627b      	str	r3, [r7, #36]	; 0x24
  uint32_t *p210 = p4 + (uint32_t)8U;
 c0016f8:	6f3b      	ldr	r3, [r7, #112]	; 0x70
 c0016fa:	3320      	adds	r3, #32
 c0016fc:	623b      	str	r3, [r7, #32]
  uint32_t *p1 = p110;
 c0016fe:	6a7b      	ldr	r3, [r7, #36]	; 0x24
 c001700:	61fb      	str	r3, [r7, #28]
  uint32_t *p211 = p110 + (uint32_t)4U;
 c001702:	6a7b      	ldr	r3, [r7, #36]	; 0x24
 c001704:	3310      	adds	r3, #16
 c001706:	61bb      	str	r3, [r7, #24]
  p1[0U] = (uint32_t)0x19a4c116U;
 c001708:	69fb      	ldr	r3, [r7, #28]
 c00170a:	4a4d      	ldr	r2, [pc, #308]	; (c001840 <Hacl_Impl_SHA2_256_init+0x344>)
 c00170c:	601a      	str	r2, [r3, #0]
  p1[1U] = (uint32_t)0x1e376c08U;
 c00170e:	69fb      	ldr	r3, [r7, #28]
 c001710:	3304      	adds	r3, #4
 c001712:	4a4c      	ldr	r2, [pc, #304]	; (c001844 <Hacl_Impl_SHA2_256_init+0x348>)
 c001714:	601a      	str	r2, [r3, #0]
  p1[2U] = (uint32_t)0x2748774cU;
 c001716:	69fb      	ldr	r3, [r7, #28]
 c001718:	3308      	adds	r3, #8
 c00171a:	4a4b      	ldr	r2, [pc, #300]	; (c001848 <Hacl_Impl_SHA2_256_init+0x34c>)
 c00171c:	601a      	str	r2, [r3, #0]
  p1[3U] = (uint32_t)0x34b0bcb5U;
 c00171e:	69fb      	ldr	r3, [r7, #28]
 c001720:	330c      	adds	r3, #12
 c001722:	4a4a      	ldr	r2, [pc, #296]	; (c00184c <Hacl_Impl_SHA2_256_init+0x350>)
 c001724:	601a      	str	r2, [r3, #0]
  p211[0U] = (uint32_t)0x391c0cb3U;
 c001726:	69bb      	ldr	r3, [r7, #24]
 c001728:	4a49      	ldr	r2, [pc, #292]	; (c001850 <Hacl_Impl_SHA2_256_init+0x354>)
 c00172a:	601a      	str	r2, [r3, #0]
  p211[1U] = (uint32_t)0x4ed8aa4aU;
 c00172c:	69bb      	ldr	r3, [r7, #24]
 c00172e:	3304      	adds	r3, #4
 c001730:	4a48      	ldr	r2, [pc, #288]	; (c001854 <Hacl_Impl_SHA2_256_init+0x358>)
 c001732:	601a      	str	r2, [r3, #0]
  p211[2U] = (uint32_t)0x5b9cca4fU;
 c001734:	69bb      	ldr	r3, [r7, #24]
 c001736:	3308      	adds	r3, #8
 c001738:	4a47      	ldr	r2, [pc, #284]	; (c001858 <Hacl_Impl_SHA2_256_init+0x35c>)
 c00173a:	601a      	str	r2, [r3, #0]
  p211[3U] = (uint32_t)0x682e6ff3U;
 c00173c:	69bb      	ldr	r3, [r7, #24]
 c00173e:	330c      	adds	r3, #12
 c001740:	4a46      	ldr	r2, [pc, #280]	; (c00185c <Hacl_Impl_SHA2_256_init+0x360>)
 c001742:	601a      	str	r2, [r3, #0]
  uint32_t *p111 = p210;
 c001744:	6a3b      	ldr	r3, [r7, #32]
 c001746:	617b      	str	r3, [r7, #20]
  uint32_t *p212 = p210 + (uint32_t)4U;
 c001748:	6a3b      	ldr	r3, [r7, #32]
 c00174a:	3310      	adds	r3, #16
 c00174c:	613b      	str	r3, [r7, #16]
  p111[0U] = (uint32_t)0x748f82eeU;
 c00174e:	697b      	ldr	r3, [r7, #20]
 c001750:	4a43      	ldr	r2, [pc, #268]	; (c001860 <Hacl_Impl_SHA2_256_init+0x364>)
 c001752:	601a      	str	r2, [r3, #0]
  p111[1U] = (uint32_t)0x78a5636fU;
 c001754:	697b      	ldr	r3, [r7, #20]
 c001756:	3304      	adds	r3, #4
 c001758:	4a42      	ldr	r2, [pc, #264]	; (c001864 <Hacl_Impl_SHA2_256_init+0x368>)
 c00175a:	601a      	str	r2, [r3, #0]
  p111[2U] = (uint32_t)0x84c87814U;
 c00175c:	697b      	ldr	r3, [r7, #20]
 c00175e:	3308      	adds	r3, #8
 c001760:	4a41      	ldr	r2, [pc, #260]	; (c001868 <Hacl_Impl_SHA2_256_init+0x36c>)
 c001762:	601a      	str	r2, [r3, #0]
  p111[3U] = (uint32_t)0x8cc70208U;
 c001764:	697b      	ldr	r3, [r7, #20]
 c001766:	330c      	adds	r3, #12
 c001768:	4a40      	ldr	r2, [pc, #256]	; (c00186c <Hacl_Impl_SHA2_256_init+0x370>)
 c00176a:	601a      	str	r2, [r3, #0]
  p212[0U] = (uint32_t)0x90befffaU;
 c00176c:	693b      	ldr	r3, [r7, #16]
 c00176e:	4a40      	ldr	r2, [pc, #256]	; (c001870 <Hacl_Impl_SHA2_256_init+0x374>)
 c001770:	601a      	str	r2, [r3, #0]
  p212[1U] = (uint32_t)0xa4506cebU;
 c001772:	693b      	ldr	r3, [r7, #16]
 c001774:	3304      	adds	r3, #4
 c001776:	4a3f      	ldr	r2, [pc, #252]	; (c001874 <Hacl_Impl_SHA2_256_init+0x378>)
 c001778:	601a      	str	r2, [r3, #0]
  p212[2U] = (uint32_t)0xbef9a3f7U;
 c00177a:	693b      	ldr	r3, [r7, #16]
 c00177c:	e07c      	b.n	c001878 <Hacl_Impl_SHA2_256_init+0x37c>
 c00177e:	bf00      	nop
 c001780:	428a2f98 	.word	0x428a2f98
 c001784:	71374491 	.word	0x71374491
 c001788:	b5c0fbcf 	.word	0xb5c0fbcf
 c00178c:	e9b5dba5 	.word	0xe9b5dba5
 c001790:	3956c25b 	.word	0x3956c25b
 c001794:	59f111f1 	.word	0x59f111f1
 c001798:	923f82a4 	.word	0x923f82a4
 c00179c:	ab1c5ed5 	.word	0xab1c5ed5
 c0017a0:	d807aa98 	.word	0xd807aa98
 c0017a4:	12835b01 	.word	0x12835b01
 c0017a8:	243185be 	.word	0x243185be
 c0017ac:	550c7dc3 	.word	0x550c7dc3
 c0017b0:	72be5d74 	.word	0x72be5d74
 c0017b4:	80deb1fe 	.word	0x80deb1fe
 c0017b8:	9bdc06a7 	.word	0x9bdc06a7
 c0017bc:	c19bf174 	.word	0xc19bf174
 c0017c0:	e49b69c1 	.word	0xe49b69c1
 c0017c4:	efbe4786 	.word	0xefbe4786
 c0017c8:	0fc19dc6 	.word	0x0fc19dc6
 c0017cc:	240ca1cc 	.word	0x240ca1cc
 c0017d0:	2de92c6f 	.word	0x2de92c6f
 c0017d4:	4a7484aa 	.word	0x4a7484aa
 c0017d8:	5cb0a9dc 	.word	0x5cb0a9dc
 c0017dc:	76f988da 	.word	0x76f988da
 c0017e0:	983e5152 	.word	0x983e5152
 c0017e4:	a831c66d 	.word	0xa831c66d
 c0017e8:	b00327c8 	.word	0xb00327c8
 c0017ec:	bf597fc7 	.word	0xbf597fc7
 c0017f0:	c6e00bf3 	.word	0xc6e00bf3
 c0017f4:	d5a79147 	.word	0xd5a79147
 c0017f8:	06ca6351 	.word	0x06ca6351
 c0017fc:	14292967 	.word	0x14292967
 c001800:	27b70a85 	.word	0x27b70a85
 c001804:	2e1b2138 	.word	0x2e1b2138
 c001808:	4d2c6dfc 	.word	0x4d2c6dfc
 c00180c:	53380d13 	.word	0x53380d13
 c001810:	650a7354 	.word	0x650a7354
 c001814:	766a0abb 	.word	0x766a0abb
 c001818:	81c2c92e 	.word	0x81c2c92e
 c00181c:	92722c85 	.word	0x92722c85
 c001820:	a2bfe8a1 	.word	0xa2bfe8a1
 c001824:	a81a664b 	.word	0xa81a664b
 c001828:	c24b8b70 	.word	0xc24b8b70
 c00182c:	c76c51a3 	.word	0xc76c51a3
 c001830:	d192e819 	.word	0xd192e819
 c001834:	d6990624 	.word	0xd6990624
 c001838:	f40e3585 	.word	0xf40e3585
 c00183c:	106aa070 	.word	0x106aa070
 c001840:	19a4c116 	.word	0x19a4c116
 c001844:	1e376c08 	.word	0x1e376c08
 c001848:	2748774c 	.word	0x2748774c
 c00184c:	34b0bcb5 	.word	0x34b0bcb5
 c001850:	391c0cb3 	.word	0x391c0cb3
 c001854:	4ed8aa4a 	.word	0x4ed8aa4a
 c001858:	5b9cca4f 	.word	0x5b9cca4f
 c00185c:	682e6ff3 	.word	0x682e6ff3
 c001860:	748f82ee 	.word	0x748f82ee
 c001864:	78a5636f 	.word	0x78a5636f
 c001868:	84c87814 	.word	0x84c87814
 c00186c:	8cc70208 	.word	0x8cc70208
 c001870:	90befffa 	.word	0x90befffa
 c001874:	a4506ceb 	.word	0xa4506ceb
 c001878:	3308      	adds	r3, #8
 c00187a:	4a18      	ldr	r2, [pc, #96]	; (c0018dc <Hacl_Impl_SHA2_256_init+0x3e0>)
 c00187c:	601a      	str	r2, [r3, #0]
  p212[3U] = (uint32_t)0xc67178f2U;
 c00187e:	693b      	ldr	r3, [r7, #16]
 c001880:	330c      	adds	r3, #12
 c001882:	4a17      	ldr	r2, [pc, #92]	; (c0018e0 <Hacl_Impl_SHA2_256_init+0x3e4>)
 c001884:	601a      	str	r2, [r3, #0]
  uint32_t *p112 = h_01;
 c001886:	f8d7 3080 	ldr.w	r3, [r7, #128]	; 0x80
 c00188a:	60fb      	str	r3, [r7, #12]
  uint32_t *p2 = h_01 + (uint32_t)4U;
 c00188c:	f8d7 3080 	ldr.w	r3, [r7, #128]	; 0x80
 c001890:	3310      	adds	r3, #16
 c001892:	60bb      	str	r3, [r7, #8]
  p112[0U] = (uint32_t)0x6a09e667U;
 c001894:	68fb      	ldr	r3, [r7, #12]
 c001896:	4a13      	ldr	r2, [pc, #76]	; (c0018e4 <Hacl_Impl_SHA2_256_init+0x3e8>)
 c001898:	601a      	str	r2, [r3, #0]
  p112[1U] = (uint32_t)0xbb67ae85U;
 c00189a:	68fb      	ldr	r3, [r7, #12]
 c00189c:	3304      	adds	r3, #4
 c00189e:	4a12      	ldr	r2, [pc, #72]	; (c0018e8 <Hacl_Impl_SHA2_256_init+0x3ec>)
 c0018a0:	601a      	str	r2, [r3, #0]
  p112[2U] = (uint32_t)0x3c6ef372U;
 c0018a2:	68fb      	ldr	r3, [r7, #12]
 c0018a4:	3308      	adds	r3, #8
 c0018a6:	4a11      	ldr	r2, [pc, #68]	; (c0018ec <Hacl_Impl_SHA2_256_init+0x3f0>)
 c0018a8:	601a      	str	r2, [r3, #0]
  p112[3U] = (uint32_t)0xa54ff53aU;
 c0018aa:	68fb      	ldr	r3, [r7, #12]
 c0018ac:	330c      	adds	r3, #12
 c0018ae:	4a10      	ldr	r2, [pc, #64]	; (c0018f0 <Hacl_Impl_SHA2_256_init+0x3f4>)
 c0018b0:	601a      	str	r2, [r3, #0]
  p2[0U] = (uint32_t)0x510e527fU;
 c0018b2:	68bb      	ldr	r3, [r7, #8]
 c0018b4:	4a0f      	ldr	r2, [pc, #60]	; (c0018f4 <Hacl_Impl_SHA2_256_init+0x3f8>)
 c0018b6:	601a      	str	r2, [r3, #0]
  p2[1U] = (uint32_t)0x9b05688cU;
 c0018b8:	68bb      	ldr	r3, [r7, #8]
 c0018ba:	3304      	adds	r3, #4
 c0018bc:	4a0e      	ldr	r2, [pc, #56]	; (c0018f8 <Hacl_Impl_SHA2_256_init+0x3fc>)
 c0018be:	601a      	str	r2, [r3, #0]
  p2[2U] = (uint32_t)0x1f83d9abU;
 c0018c0:	68bb      	ldr	r3, [r7, #8]
 c0018c2:	3308      	adds	r3, #8
 c0018c4:	4a0d      	ldr	r2, [pc, #52]	; (c0018fc <Hacl_Impl_SHA2_256_init+0x400>)
 c0018c6:	601a      	str	r2, [r3, #0]
  p2[3U] = (uint32_t)0x5be0cd19U;
 c0018c8:	68bb      	ldr	r3, [r7, #8]
 c0018ca:	330c      	adds	r3, #12
 c0018cc:	4a0c      	ldr	r2, [pc, #48]	; (c001900 <Hacl_Impl_SHA2_256_init+0x404>)
 c0018ce:	601a      	str	r2, [r3, #0]
}
 c0018d0:	bf00      	nop
 c0018d2:	378c      	adds	r7, #140	; 0x8c
 c0018d4:	46bd      	mov	sp, r7
 c0018d6:	f85d 7b04 	ldr.w	r7, [sp], #4
 c0018da:	4770      	bx	lr
 c0018dc:	bef9a3f7 	.word	0xbef9a3f7
 c0018e0:	c67178f2 	.word	0xc67178f2
 c0018e4:	6a09e667 	.word	0x6a09e667
 c0018e8:	bb67ae85 	.word	0xbb67ae85
 c0018ec:	3c6ef372 	.word	0x3c6ef372
 c0018f0:	a54ff53a 	.word	0xa54ff53a
 c0018f4:	510e527f 	.word	0x510e527f
 c0018f8:	9b05688c 	.word	0x9b05688c
 c0018fc:	1f83d9ab 	.word	0x1f83d9ab
 c001900:	5be0cd19 	.word	0x5be0cd19

0c001904 <Hacl_Impl_SHA2_256_update>:

static void Hacl_Impl_SHA2_256_update(uint32_t *state, uint8_t *data)
{
 c001904:	b580      	push	{r7, lr}
 c001906:	b0bc      	sub	sp, #240	; 0xf0
 c001908:	af00      	add	r7, sp, #0
 c00190a:	6078      	str	r0, [r7, #4]
 c00190c:	6039      	str	r1, [r7, #0]
  uint32_t data_w[16U] = { 0U };
 c00190e:	f107 032c 	add.w	r3, r7, #44	; 0x2c
 c001912:	2240      	movs	r2, #64	; 0x40
 c001914:	2100      	movs	r1, #0
 c001916:	4618      	mov	r0, r3
 c001918:	f006 f9d5 	bl	c007cc6 <memset>
  Hacl_Hash_Lib_LoadStore_uint32s_from_be_bytes(data_w, data, (uint32_t)16U);
 c00191c:	f107 032c 	add.w	r3, r7, #44	; 0x2c
 c001920:	2210      	movs	r2, #16
 c001922:	6839      	ldr	r1, [r7, #0]
 c001924:	4618      	mov	r0, r3
 c001926:	f7ff fd7f 	bl	c001428 <Hacl_Hash_Lib_LoadStore_uint32s_from_be_bytes>
  uint32_t *hash_w = state + (uint32_t)128U;
 c00192a:	687b      	ldr	r3, [r7, #4]
 c00192c:	f503 7300 	add.w	r3, r3, #512	; 0x200
 c001930:	f8c7 30dc 	str.w	r3, [r7, #220]	; 0xdc
  uint32_t *ws_w = state + (uint32_t)64U;
 c001934:	687b      	ldr	r3, [r7, #4]
 c001936:	f503 7380 	add.w	r3, r3, #256	; 0x100
 c00193a:	f8c7 30d8 	str.w	r3, [r7, #216]	; 0xd8
  uint32_t *k_w = state;
 c00193e:	687b      	ldr	r3, [r7, #4]
 c001940:	f8c7 30d4 	str.w	r3, [r7, #212]	; 0xd4
  uint32_t *counter_w = state + (uint32_t)136U;
 c001944:	687b      	ldr	r3, [r7, #4]
 c001946:	f503 7308 	add.w	r3, r3, #544	; 0x220
 c00194a:	f8c7 30d0 	str.w	r3, [r7, #208]	; 0xd0
  for (uint32_t i = (uint32_t)0U; i < (uint32_t)16U; i = i + (uint32_t)1U)
 c00194e:	2300      	movs	r3, #0
 c001950:	f8c7 30ec 	str.w	r3, [r7, #236]	; 0xec
 c001954:	e014      	b.n	c001980 <Hacl_Impl_SHA2_256_update+0x7c>
  {
    uint32_t b = data_w[i];
 c001956:	f8d7 30ec 	ldr.w	r3, [r7, #236]	; 0xec
 c00195a:	009b      	lsls	r3, r3, #2
 c00195c:	33f0      	adds	r3, #240	; 0xf0
 c00195e:	443b      	add	r3, r7
 c001960:	f853 3cc4 	ldr.w	r3, [r3, #-196]
 c001964:	66fb      	str	r3, [r7, #108]	; 0x6c
    ws_w[i] = b;
 c001966:	f8d7 30ec 	ldr.w	r3, [r7, #236]	; 0xec
 c00196a:	009b      	lsls	r3, r3, #2
 c00196c:	f8d7 20d8 	ldr.w	r2, [r7, #216]	; 0xd8
 c001970:	4413      	add	r3, r2
 c001972:	6efa      	ldr	r2, [r7, #108]	; 0x6c
 c001974:	601a      	str	r2, [r3, #0]
  for (uint32_t i = (uint32_t)0U; i < (uint32_t)16U; i = i + (uint32_t)1U)
 c001976:	f8d7 30ec 	ldr.w	r3, [r7, #236]	; 0xec
 c00197a:	3301      	adds	r3, #1
 c00197c:	f8c7 30ec 	str.w	r3, [r7, #236]	; 0xec
 c001980:	f8d7 30ec 	ldr.w	r3, [r7, #236]	; 0xec
 c001984:	2b0f      	cmp	r3, #15
 c001986:	d9e6      	bls.n	c001956 <Hacl_Impl_SHA2_256_update+0x52>
  }
  for (uint32_t i = (uint32_t)16U; i < (uint32_t)64U; i = i + (uint32_t)1U)
 c001988:	2310      	movs	r3, #16
 c00198a:	f8c7 30e8 	str.w	r3, [r7, #232]	; 0xe8
 c00198e:	e050      	b.n	c001a32 <Hacl_Impl_SHA2_256_update+0x12e>
  {
    uint32_t t16 = ws_w[i - (uint32_t)16U];
 c001990:	f8d7 30e8 	ldr.w	r3, [r7, #232]	; 0xe8
 c001994:	f103 4380 	add.w	r3, r3, #1073741824	; 0x40000000
 c001998:	3b10      	subs	r3, #16
 c00199a:	009b      	lsls	r3, r3, #2
 c00199c:	f8d7 20d8 	ldr.w	r2, [r7, #216]	; 0xd8
 c0019a0:	4413      	add	r3, r2
 c0019a2:	681b      	ldr	r3, [r3, #0]
 c0019a4:	67fb      	str	r3, [r7, #124]	; 0x7c
    uint32_t t15 = ws_w[i - (uint32_t)15U];
 c0019a6:	f8d7 30e8 	ldr.w	r3, [r7, #232]	; 0xe8
 c0019aa:	f103 4380 	add.w	r3, r3, #1073741824	; 0x40000000
 c0019ae:	3b0f      	subs	r3, #15
 c0019b0:	009b      	lsls	r3, r3, #2
 c0019b2:	f8d7 20d8 	ldr.w	r2, [r7, #216]	; 0xd8
 c0019b6:	4413      	add	r3, r2
 c0019b8:	681b      	ldr	r3, [r3, #0]
 c0019ba:	67bb      	str	r3, [r7, #120]	; 0x78
    uint32_t t7 = ws_w[i - (uint32_t)7U];
 c0019bc:	f8d7 30e8 	ldr.w	r3, [r7, #232]	; 0xe8
 c0019c0:	f103 4380 	add.w	r3, r3, #1073741824	; 0x40000000
 c0019c4:	3b07      	subs	r3, #7
 c0019c6:	009b      	lsls	r3, r3, #2
 c0019c8:	f8d7 20d8 	ldr.w	r2, [r7, #216]	; 0xd8
 c0019cc:	4413      	add	r3, r2
 c0019ce:	681b      	ldr	r3, [r3, #0]
 c0019d0:	677b      	str	r3, [r7, #116]	; 0x74
    uint32_t t2 = ws_w[i - (uint32_t)2U];
 c0019d2:	f8d7 30e8 	ldr.w	r3, [r7, #232]	; 0xe8
 c0019d6:	f103 4380 	add.w	r3, r3, #1073741824	; 0x40000000
 c0019da:	3b02      	subs	r3, #2
 c0019dc:	009b      	lsls	r3, r3, #2
 c0019de:	f8d7 20d8 	ldr.w	r2, [r7, #216]	; 0xd8
 c0019e2:	4413      	add	r3, r2
 c0019e4:	681b      	ldr	r3, [r3, #0]
 c0019e6:	673b      	str	r3, [r7, #112]	; 0x70
    ws_w[i] =
      ((t2 >> (uint32_t)17U | t2 << ((uint32_t)32U - (uint32_t)17U))
 c0019e8:	6f3b      	ldr	r3, [r7, #112]	; 0x70
 c0019ea:	ea4f 4273 	mov.w	r2, r3, ror #17
      ^ ((t2 >> (uint32_t)19U | t2 << ((uint32_t)32U - (uint32_t)19U)) ^ t2 >> (uint32_t)10U))
 c0019ee:	6f3b      	ldr	r3, [r7, #112]	; 0x70
 c0019f0:	ea4f 41f3 	mov.w	r1, r3, ror #19
 c0019f4:	6f3b      	ldr	r3, [r7, #112]	; 0x70
 c0019f6:	0a9b      	lsrs	r3, r3, #10
 c0019f8:	404b      	eors	r3, r1
 c0019fa:	405a      	eors	r2, r3
      +
 c0019fc:	6f7b      	ldr	r3, [r7, #116]	; 0x74
 c0019fe:	441a      	add	r2, r3
        t7
        +
          ((t15 >> (uint32_t)7U | t15 << ((uint32_t)32U - (uint32_t)7U))
 c001a00:	6fbb      	ldr	r3, [r7, #120]	; 0x78
 c001a02:	ea4f 11f3 	mov.w	r1, r3, ror #7
          ^ ((t15 >> (uint32_t)18U | t15 << ((uint32_t)32U - (uint32_t)18U)) ^ t15 >> (uint32_t)3U))
 c001a06:	6fbb      	ldr	r3, [r7, #120]	; 0x78
 c001a08:	ea4f 40b3 	mov.w	r0, r3, ror #18
 c001a0c:	6fbb      	ldr	r3, [r7, #120]	; 0x78
 c001a0e:	08db      	lsrs	r3, r3, #3
 c001a10:	4043      	eors	r3, r0
 c001a12:	404b      	eors	r3, r1
        +
 c001a14:	18d1      	adds	r1, r2, r3
    ws_w[i] =
 c001a16:	f8d7 30e8 	ldr.w	r3, [r7, #232]	; 0xe8
 c001a1a:	009b      	lsls	r3, r3, #2
 c001a1c:	f8d7 20d8 	ldr.w	r2, [r7, #216]	; 0xd8
 c001a20:	4413      	add	r3, r2
          + t16;
 c001a22:	6ffa      	ldr	r2, [r7, #124]	; 0x7c
 c001a24:	440a      	add	r2, r1
    ws_w[i] =
 c001a26:	601a      	str	r2, [r3, #0]
  for (uint32_t i = (uint32_t)16U; i < (uint32_t)64U; i = i + (uint32_t)1U)
 c001a28:	f8d7 30e8 	ldr.w	r3, [r7, #232]	; 0xe8
 c001a2c:	3301      	adds	r3, #1
 c001a2e:	f8c7 30e8 	str.w	r3, [r7, #232]	; 0xe8
 c001a32:	f8d7 30e8 	ldr.w	r3, [r7, #232]	; 0xe8
 c001a36:	2b3f      	cmp	r3, #63	; 0x3f
 c001a38:	d9aa      	bls.n	c001990 <Hacl_Impl_SHA2_256_update+0x8c>
  }
  uint32_t hash_0[8U] = { 0U };
 c001a3a:	f107 030c 	add.w	r3, r7, #12
 c001a3e:	2220      	movs	r2, #32
 c001a40:	2100      	movs	r1, #0
 c001a42:	4618      	mov	r0, r3
 c001a44:	f006 f93f 	bl	c007cc6 <memset>
  memcpy(hash_0, hash_w, (uint32_t)8U * sizeof hash_w[0U]);
 c001a48:	f107 030c 	add.w	r3, r7, #12
 c001a4c:	2220      	movs	r2, #32
 c001a4e:	f8d7 10dc 	ldr.w	r1, [r7, #220]	; 0xdc
 c001a52:	4618      	mov	r0, r3
 c001a54:	f006 f92a 	bl	c007cac <memcpy>
  for (uint32_t i = (uint32_t)0U; i < (uint32_t)64U; i = i + (uint32_t)1U)
 c001a58:	2300      	movs	r3, #0
 c001a5a:	f8c7 30e4 	str.w	r3, [r7, #228]	; 0xe4
 c001a5e:	e0b8      	b.n	c001bd2 <Hacl_Impl_SHA2_256_update+0x2ce>
  {
    uint32_t a = hash_0[0U];
 c001a60:	68fb      	ldr	r3, [r7, #12]
 c001a62:	f8c7 30bc 	str.w	r3, [r7, #188]	; 0xbc
    uint32_t b = hash_0[1U];
 c001a66:	693b      	ldr	r3, [r7, #16]
 c001a68:	f8c7 30b8 	str.w	r3, [r7, #184]	; 0xb8
    uint32_t c = hash_0[2U];
 c001a6c:	697b      	ldr	r3, [r7, #20]
 c001a6e:	f8c7 30b4 	str.w	r3, [r7, #180]	; 0xb4
    uint32_t d = hash_0[3U];
 c001a72:	69bb      	ldr	r3, [r7, #24]
 c001a74:	f8c7 30b0 	str.w	r3, [r7, #176]	; 0xb0
    uint32_t e = hash_0[4U];
 c001a78:	69fb      	ldr	r3, [r7, #28]
 c001a7a:	f8c7 30ac 	str.w	r3, [r7, #172]	; 0xac
    uint32_t f1 = hash_0[5U];
 c001a7e:	6a3b      	ldr	r3, [r7, #32]
 c001a80:	f8c7 30a8 	str.w	r3, [r7, #168]	; 0xa8
    uint32_t g = hash_0[6U];
 c001a84:	6a7b      	ldr	r3, [r7, #36]	; 0x24
 c001a86:	f8c7 30a4 	str.w	r3, [r7, #164]	; 0xa4
    uint32_t h = hash_0[7U];
 c001a8a:	6abb      	ldr	r3, [r7, #40]	; 0x28
 c001a8c:	f8c7 30a0 	str.w	r3, [r7, #160]	; 0xa0
    uint32_t kt = k_w[i];
 c001a90:	f8d7 30e4 	ldr.w	r3, [r7, #228]	; 0xe4
 c001a94:	009b      	lsls	r3, r3, #2
 c001a96:	f8d7 20d4 	ldr.w	r2, [r7, #212]	; 0xd4
 c001a9a:	4413      	add	r3, r2
 c001a9c:	681b      	ldr	r3, [r3, #0]
 c001a9e:	f8c7 309c 	str.w	r3, [r7, #156]	; 0x9c
    uint32_t wst = ws_w[i];
 c001aa2:	f8d7 30e4 	ldr.w	r3, [r7, #228]	; 0xe4
 c001aa6:	009b      	lsls	r3, r3, #2
 c001aa8:	f8d7 20d8 	ldr.w	r2, [r7, #216]	; 0xd8
 c001aac:	4413      	add	r3, r2
 c001aae:	681b      	ldr	r3, [r3, #0]
 c001ab0:	f8c7 3098 	str.w	r3, [r7, #152]	; 0x98
    uint32_t
    t1 =
      h
      +
        ((e >> (uint32_t)6U | e << ((uint32_t)32U - (uint32_t)6U))
 c001ab4:	f8d7 30ac 	ldr.w	r3, [r7, #172]	; 0xac
 c001ab8:	ea4f 12b3 	mov.w	r2, r3, ror #6
        ^
          ((e >> (uint32_t)11U | e << ((uint32_t)32U - (uint32_t)11U))
 c001abc:	f8d7 30ac 	ldr.w	r3, [r7, #172]	; 0xac
 c001ac0:	ea4f 21f3 	mov.w	r1, r3, ror #11
          ^ (e >> (uint32_t)25U | e << ((uint32_t)32U - (uint32_t)25U))))
 c001ac4:	f8d7 30ac 	ldr.w	r3, [r7, #172]	; 0xac
 c001ac8:	ea4f 6373 	mov.w	r3, r3, ror #25
 c001acc:	404b      	eors	r3, r1
        ^
 c001ace:	405a      	eors	r2, r3
      +
 c001ad0:	f8d7 30a0 	ldr.w	r3, [r7, #160]	; 0xa0
 c001ad4:	441a      	add	r2, r3
      + ((e & f1) ^ (~e & g))
 c001ad6:	f8d7 10ac 	ldr.w	r1, [r7, #172]	; 0xac
 c001ada:	f8d7 30a8 	ldr.w	r3, [r7, #168]	; 0xa8
 c001ade:	4019      	ands	r1, r3
 c001ae0:	f8d7 30ac 	ldr.w	r3, [r7, #172]	; 0xac
 c001ae4:	43d8      	mvns	r0, r3
 c001ae6:	f8d7 30a4 	ldr.w	r3, [r7, #164]	; 0xa4
 c001aea:	4003      	ands	r3, r0
 c001aec:	404b      	eors	r3, r1
 c001aee:	441a      	add	r2, r3
      + kt
 c001af0:	f8d7 309c 	ldr.w	r3, [r7, #156]	; 0x9c
 c001af4:	4413      	add	r3, r2
    t1 =
 c001af6:	f8d7 2098 	ldr.w	r2, [r7, #152]	; 0x98
 c001afa:	4413      	add	r3, r2
 c001afc:	f8c7 3094 	str.w	r3, [r7, #148]	; 0x94
      + wst;
    uint32_t
    t2 =
      ((a >> (uint32_t)2U | a << ((uint32_t)32U - (uint32_t)2U))
 c001b00:	f8d7 30bc 	ldr.w	r3, [r7, #188]	; 0xbc
 c001b04:	ea4f 02b3 	mov.w	r2, r3, ror #2
      ^
        ((a >> (uint32_t)13U | a << ((uint32_t)32U - (uint32_t)13U))
 c001b08:	f8d7 30bc 	ldr.w	r3, [r7, #188]	; 0xbc
 c001b0c:	ea4f 3173 	mov.w	r1, r3, ror #13
        ^ (a >> (uint32_t)22U | a << ((uint32_t)32U - (uint32_t)22U))))
 c001b10:	f8d7 30bc 	ldr.w	r3, [r7, #188]	; 0xbc
 c001b14:	ea4f 53b3 	mov.w	r3, r3, ror #22
 c001b18:	404b      	eors	r3, r1
      ^
 c001b1a:	405a      	eors	r2, r3
      + ((a & b) ^ ((a & c) ^ (b & c)));
 c001b1c:	f8d7 10bc 	ldr.w	r1, [r7, #188]	; 0xbc
 c001b20:	f8d7 30b8 	ldr.w	r3, [r7, #184]	; 0xb8
 c001b24:	4019      	ands	r1, r3
 c001b26:	f8d7 00bc 	ldr.w	r0, [r7, #188]	; 0xbc
 c001b2a:	f8d7 30b8 	ldr.w	r3, [r7, #184]	; 0xb8
 c001b2e:	4058      	eors	r0, r3
 c001b30:	f8d7 30b4 	ldr.w	r3, [r7, #180]	; 0xb4
 c001b34:	4003      	ands	r3, r0
 c001b36:	404b      	eors	r3, r1
    t2 =
 c001b38:	4413      	add	r3, r2
 c001b3a:	f8c7 3090 	str.w	r3, [r7, #144]	; 0x90
    uint32_t x1 = t1 + t2;
 c001b3e:	f8d7 2094 	ldr.w	r2, [r7, #148]	; 0x94
 c001b42:	f8d7 3090 	ldr.w	r3, [r7, #144]	; 0x90
 c001b46:	4413      	add	r3, r2
 c001b48:	f8c7 308c 	str.w	r3, [r7, #140]	; 0x8c
    uint32_t x5 = d + t1;
 c001b4c:	f8d7 20b0 	ldr.w	r2, [r7, #176]	; 0xb0
 c001b50:	f8d7 3094 	ldr.w	r3, [r7, #148]	; 0x94
 c001b54:	4413      	add	r3, r2
 c001b56:	f8c7 3088 	str.w	r3, [r7, #136]	; 0x88
    uint32_t *p1 = hash_0;
 c001b5a:	f107 030c 	add.w	r3, r7, #12
 c001b5e:	f8c7 3084 	str.w	r3, [r7, #132]	; 0x84
    uint32_t *p2 = hash_0 + (uint32_t)4U;
 c001b62:	f107 030c 	add.w	r3, r7, #12
 c001b66:	3310      	adds	r3, #16
 c001b68:	f8c7 3080 	str.w	r3, [r7, #128]	; 0x80
    p1[0U] = x1;
 c001b6c:	f8d7 3084 	ldr.w	r3, [r7, #132]	; 0x84
 c001b70:	f8d7 208c 	ldr.w	r2, [r7, #140]	; 0x8c
 c001b74:	601a      	str	r2, [r3, #0]
    p1[1U] = a;
 c001b76:	f8d7 3084 	ldr.w	r3, [r7, #132]	; 0x84
 c001b7a:	3304      	adds	r3, #4
 c001b7c:	f8d7 20bc 	ldr.w	r2, [r7, #188]	; 0xbc
 c001b80:	601a      	str	r2, [r3, #0]
    p1[2U] = b;
 c001b82:	f8d7 3084 	ldr.w	r3, [r7, #132]	; 0x84
 c001b86:	3308      	adds	r3, #8
 c001b88:	f8d7 20b8 	ldr.w	r2, [r7, #184]	; 0xb8
 c001b8c:	601a      	str	r2, [r3, #0]
    p1[3U] = c;
 c001b8e:	f8d7 3084 	ldr.w	r3, [r7, #132]	; 0x84
 c001b92:	330c      	adds	r3, #12
 c001b94:	f8d7 20b4 	ldr.w	r2, [r7, #180]	; 0xb4
 c001b98:	601a      	str	r2, [r3, #0]
    p2[0U] = x5;
 c001b9a:	f8d7 3080 	ldr.w	r3, [r7, #128]	; 0x80
 c001b9e:	f8d7 2088 	ldr.w	r2, [r7, #136]	; 0x88
 c001ba2:	601a      	str	r2, [r3, #0]
    p2[1U] = e;
 c001ba4:	f8d7 3080 	ldr.w	r3, [r7, #128]	; 0x80
 c001ba8:	3304      	adds	r3, #4
 c001baa:	f8d7 20ac 	ldr.w	r2, [r7, #172]	; 0xac
 c001bae:	601a      	str	r2, [r3, #0]
    p2[2U] = f1;
 c001bb0:	f8d7 3080 	ldr.w	r3, [r7, #128]	; 0x80
 c001bb4:	3308      	adds	r3, #8
 c001bb6:	f8d7 20a8 	ldr.w	r2, [r7, #168]	; 0xa8
 c001bba:	601a      	str	r2, [r3, #0]
    p2[3U] = g;
 c001bbc:	f8d7 3080 	ldr.w	r3, [r7, #128]	; 0x80
 c001bc0:	330c      	adds	r3, #12
 c001bc2:	f8d7 20a4 	ldr.w	r2, [r7, #164]	; 0xa4
 c001bc6:	601a      	str	r2, [r3, #0]
  for (uint32_t i = (uint32_t)0U; i < (uint32_t)64U; i = i + (uint32_t)1U)
 c001bc8:	f8d7 30e4 	ldr.w	r3, [r7, #228]	; 0xe4
 c001bcc:	3301      	adds	r3, #1
 c001bce:	f8c7 30e4 	str.w	r3, [r7, #228]	; 0xe4
 c001bd2:	f8d7 30e4 	ldr.w	r3, [r7, #228]	; 0xe4
 c001bd6:	2b3f      	cmp	r3, #63	; 0x3f
 c001bd8:	f67f af42 	bls.w	c001a60 <Hacl_Impl_SHA2_256_update+0x15c>
  }
  for (uint32_t i = (uint32_t)0U; i < (uint32_t)8U; i = i + (uint32_t)1U)
 c001bdc:	2300      	movs	r3, #0
 c001bde:	f8c7 30e0 	str.w	r3, [r7, #224]	; 0xe0
 c001be2:	e022      	b.n	c001c2a <Hacl_Impl_SHA2_256_update+0x326>
  {
    uint32_t xi = hash_w[i];
 c001be4:	f8d7 30e0 	ldr.w	r3, [r7, #224]	; 0xe0
 c001be8:	009b      	lsls	r3, r3, #2
 c001bea:	f8d7 20dc 	ldr.w	r2, [r7, #220]	; 0xdc
 c001bee:	4413      	add	r3, r2
 c001bf0:	681b      	ldr	r3, [r3, #0]
 c001bf2:	f8c7 30c4 	str.w	r3, [r7, #196]	; 0xc4
    uint32_t yi = hash_0[i];
 c001bf6:	f8d7 30e0 	ldr.w	r3, [r7, #224]	; 0xe0
 c001bfa:	009b      	lsls	r3, r3, #2
 c001bfc:	33f0      	adds	r3, #240	; 0xf0
 c001bfe:	443b      	add	r3, r7
 c001c00:	f853 3ce4 	ldr.w	r3, [r3, #-228]
 c001c04:	f8c7 30c0 	str.w	r3, [r7, #192]	; 0xc0
    hash_w[i] = xi + yi;
 c001c08:	f8d7 30e0 	ldr.w	r3, [r7, #224]	; 0xe0
 c001c0c:	009b      	lsls	r3, r3, #2
 c001c0e:	f8d7 20dc 	ldr.w	r2, [r7, #220]	; 0xdc
 c001c12:	4413      	add	r3, r2
 c001c14:	f8d7 10c4 	ldr.w	r1, [r7, #196]	; 0xc4
 c001c18:	f8d7 20c0 	ldr.w	r2, [r7, #192]	; 0xc0
 c001c1c:	440a      	add	r2, r1
 c001c1e:	601a      	str	r2, [r3, #0]
  for (uint32_t i = (uint32_t)0U; i < (uint32_t)8U; i = i + (uint32_t)1U)
 c001c20:	f8d7 30e0 	ldr.w	r3, [r7, #224]	; 0xe0
 c001c24:	3301      	adds	r3, #1
 c001c26:	f8c7 30e0 	str.w	r3, [r7, #224]	; 0xe0
 c001c2a:	f8d7 30e0 	ldr.w	r3, [r7, #224]	; 0xe0
 c001c2e:	2b07      	cmp	r3, #7
 c001c30:	d9d8      	bls.n	c001be4 <Hacl_Impl_SHA2_256_update+0x2e0>
  }
  uint32_t c0 = counter_w[0U];
 c001c32:	f8d7 30d0 	ldr.w	r3, [r7, #208]	; 0xd0
 c001c36:	681b      	ldr	r3, [r3, #0]
 c001c38:	f8c7 30cc 	str.w	r3, [r7, #204]	; 0xcc
  uint32_t one1 = (uint32_t)1U;
 c001c3c:	2301      	movs	r3, #1
 c001c3e:	f8c7 30c8 	str.w	r3, [r7, #200]	; 0xc8
  counter_w[0U] = c0 + one1;
 c001c42:	f8d7 20cc 	ldr.w	r2, [r7, #204]	; 0xcc
 c001c46:	f8d7 30c8 	ldr.w	r3, [r7, #200]	; 0xc8
 c001c4a:	441a      	add	r2, r3
 c001c4c:	f8d7 30d0 	ldr.w	r3, [r7, #208]	; 0xd0
 c001c50:	601a      	str	r2, [r3, #0]
}
 c001c52:	bf00      	nop
 c001c54:	37f0      	adds	r7, #240	; 0xf0
 c001c56:	46bd      	mov	sp, r7
 c001c58:	bd80      	pop	{r7, pc}

0c001c5a <Hacl_Impl_SHA2_256_update_multi>:

static void Hacl_Impl_SHA2_256_update_multi(uint32_t *state, uint8_t *data, uint32_t n1)
{
 c001c5a:	b580      	push	{r7, lr}
 c001c5c:	b086      	sub	sp, #24
 c001c5e:	af00      	add	r7, sp, #0
 c001c60:	60f8      	str	r0, [r7, #12]
 c001c62:	60b9      	str	r1, [r7, #8]
 c001c64:	607a      	str	r2, [r7, #4]
  for (uint32_t i = (uint32_t)0U; i < n1; i = i + (uint32_t)1U)
 c001c66:	2300      	movs	r3, #0
 c001c68:	617b      	str	r3, [r7, #20]
 c001c6a:	e00b      	b.n	c001c84 <Hacl_Impl_SHA2_256_update_multi+0x2a>
  {
    uint8_t *b = data + i * (uint32_t)64U;
 c001c6c:	697b      	ldr	r3, [r7, #20]
 c001c6e:	019b      	lsls	r3, r3, #6
 c001c70:	68ba      	ldr	r2, [r7, #8]
 c001c72:	4413      	add	r3, r2
 c001c74:	613b      	str	r3, [r7, #16]
    Hacl_Impl_SHA2_256_update(state, b);
 c001c76:	6939      	ldr	r1, [r7, #16]
 c001c78:	68f8      	ldr	r0, [r7, #12]
 c001c7a:	f7ff fe43 	bl	c001904 <Hacl_Impl_SHA2_256_update>
  for (uint32_t i = (uint32_t)0U; i < n1; i = i + (uint32_t)1U)
 c001c7e:	697b      	ldr	r3, [r7, #20]
 c001c80:	3301      	adds	r3, #1
 c001c82:	617b      	str	r3, [r7, #20]
 c001c84:	697a      	ldr	r2, [r7, #20]
 c001c86:	687b      	ldr	r3, [r7, #4]
 c001c88:	429a      	cmp	r2, r3
 c001c8a:	d3ef      	bcc.n	c001c6c <Hacl_Impl_SHA2_256_update_multi+0x12>
  }
}
 c001c8c:	bf00      	nop
 c001c8e:	bf00      	nop
 c001c90:	3718      	adds	r7, #24
 c001c92:	46bd      	mov	sp, r7
 c001c94:	bd80      	pop	{r7, pc}

0c001c96 <Hacl_Impl_SHA2_256_update_last>:

static void Hacl_Impl_SHA2_256_update_last(uint32_t *state, uint8_t *data, uint32_t len)
{
 c001c96:	e92d 4fb0 	stmdb	sp!, {r4, r5, r7, r8, r9, sl, fp, lr}
 c001c9a:	b0ba      	sub	sp, #232	; 0xe8
 c001c9c:	af00      	add	r7, sp, #0
 c001c9e:	6278      	str	r0, [r7, #36]	; 0x24
 c001ca0:	6239      	str	r1, [r7, #32]
 c001ca2:	61fa      	str	r2, [r7, #28]
  uint8_t blocks[128U] = { 0U };
 c001ca4:	2300      	movs	r3, #0
 c001ca6:	62bb      	str	r3, [r7, #40]	; 0x28
 c001ca8:	f107 002c 	add.w	r0, r7, #44	; 0x2c
 c001cac:	237c      	movs	r3, #124	; 0x7c
 c001cae:	461a      	mov	r2, r3
 c001cb0:	2100      	movs	r1, #0
 c001cb2:	f006 f808 	bl	c007cc6 <memset>
  uint32_t nb;
  if (len < (uint32_t)56U)
 c001cb6:	69fb      	ldr	r3, [r7, #28]
 c001cb8:	2b37      	cmp	r3, #55	; 0x37
 c001cba:	d803      	bhi.n	c001cc4 <Hacl_Impl_SHA2_256_update_last+0x2e>
    nb = (uint32_t)1U;
 c001cbc:	2301      	movs	r3, #1
 c001cbe:	f8c7 30e4 	str.w	r3, [r7, #228]	; 0xe4
 c001cc2:	e002      	b.n	c001cca <Hacl_Impl_SHA2_256_update_last+0x34>
  else
    nb = (uint32_t)2U;
 c001cc4:	2302      	movs	r3, #2
 c001cc6:	f8c7 30e4 	str.w	r3, [r7, #228]	; 0xe4
  uint8_t *final_blocks;
  if (len < (uint32_t)56U)
 c001cca:	69fb      	ldr	r3, [r7, #28]
 c001ccc:	2b37      	cmp	r3, #55	; 0x37
 c001cce:	d805      	bhi.n	c001cdc <Hacl_Impl_SHA2_256_update_last+0x46>
    final_blocks = blocks + (uint32_t)64U;
 c001cd0:	f107 0328 	add.w	r3, r7, #40	; 0x28
 c001cd4:	3340      	adds	r3, #64	; 0x40
 c001cd6:	f8c7 30e0 	str.w	r3, [r7, #224]	; 0xe0
 c001cda:	e003      	b.n	c001ce4 <Hacl_Impl_SHA2_256_update_last+0x4e>
  else
    final_blocks = blocks;
 c001cdc:	f107 0328 	add.w	r3, r7, #40	; 0x28
 c001ce0:	f8c7 30e0 	str.w	r3, [r7, #224]	; 0xe0
  memcpy(final_blocks, data, len * sizeof data[0U]);
 c001ce4:	69fa      	ldr	r2, [r7, #28]
 c001ce6:	6a39      	ldr	r1, [r7, #32]
 c001ce8:	f8d7 00e0 	ldr.w	r0, [r7, #224]	; 0xe0
 c001cec:	f005 ffde 	bl	c007cac <memcpy>
  uint32_t n1 = state[136U];
 c001cf0:	6a7b      	ldr	r3, [r7, #36]	; 0x24
 c001cf2:	f8d3 3220 	ldr.w	r3, [r3, #544]	; 0x220
 c001cf6:	f8c7 30dc 	str.w	r3, [r7, #220]	; 0xdc
  uint8_t *padding = final_blocks + len;
 c001cfa:	f8d7 20e0 	ldr.w	r2, [r7, #224]	; 0xe0
 c001cfe:	69fb      	ldr	r3, [r7, #28]
 c001d00:	4413      	add	r3, r2
 c001d02:	f8c7 30d8 	str.w	r3, [r7, #216]	; 0xd8
  uint32_t
  pad0len = ((uint32_t)64U - (len + (uint32_t)8U + (uint32_t)1U) % (uint32_t)64U) % (uint32_t)64U;
 c001d06:	69fa      	ldr	r2, [r7, #28]
 c001d08:	f06f 0308 	mvn.w	r3, #8
 c001d0c:	1a9b      	subs	r3, r3, r2
 c001d0e:	f003 033f 	and.w	r3, r3, #63	; 0x3f
 c001d12:	f8c7 30d4 	str.w	r3, [r7, #212]	; 0xd4
  uint8_t *buf1 = padding;
 c001d16:	f8d7 30d8 	ldr.w	r3, [r7, #216]	; 0xd8
 c001d1a:	f8c7 30d0 	str.w	r3, [r7, #208]	; 0xd0
  uint8_t *buf2 = padding + (uint32_t)1U + pad0len;
 c001d1e:	f8d7 30d4 	ldr.w	r3, [r7, #212]	; 0xd4
 c001d22:	3301      	adds	r3, #1
 c001d24:	f8d7 20d8 	ldr.w	r2, [r7, #216]	; 0xd8
 c001d28:	4413      	add	r3, r2
 c001d2a:	f8c7 30cc 	str.w	r3, [r7, #204]	; 0xcc
  uint64_t
  encodedlen = ((uint64_t)n1 * (uint64_t)(uint32_t)64U + (uint64_t)len) * (uint64_t)(uint32_t)8U;
 c001d2e:	f8d7 30dc 	ldr.w	r3, [r7, #220]	; 0xdc
 c001d32:	2200      	movs	r2, #0
 c001d34:	4698      	mov	r8, r3
 c001d36:	4691      	mov	r9, r2
 c001d38:	f04f 0200 	mov.w	r2, #0
 c001d3c:	f04f 0300 	mov.w	r3, #0
 c001d40:	ea4f 1389 	mov.w	r3, r9, lsl #6
 c001d44:	ea43 6398 	orr.w	r3, r3, r8, lsr #26
 c001d48:	ea4f 1288 	mov.w	r2, r8, lsl #6
 c001d4c:	69f9      	ldr	r1, [r7, #28]
 c001d4e:	2000      	movs	r0, #0
 c001d50:	6139      	str	r1, [r7, #16]
 c001d52:	6178      	str	r0, [r7, #20]
 c001d54:	e9d7 8904 	ldrd	r8, r9, [r7, #16]
 c001d58:	4641      	mov	r1, r8
 c001d5a:	1854      	adds	r4, r2, r1
 c001d5c:	4649      	mov	r1, r9
 c001d5e:	eb43 0101 	adc.w	r1, r3, r1
 c001d62:	460d      	mov	r5, r1
 c001d64:	f04f 0200 	mov.w	r2, #0
 c001d68:	f04f 0300 	mov.w	r3, #0
 c001d6c:	00eb      	lsls	r3, r5, #3
 c001d6e:	ea43 7354 	orr.w	r3, r3, r4, lsr #29
 c001d72:	00e2      	lsls	r2, r4, #3
 c001d74:	e9c7 2330 	strd	r2, r3, [r7, #192]	; 0xc0
  buf1[0U] = (uint8_t)0x80U;
 c001d78:	f8d7 30d0 	ldr.w	r3, [r7, #208]	; 0xd0
 c001d7c:	2280      	movs	r2, #128	; 0x80
 c001d7e:	701a      	strb	r2, [r3, #0]
  store64_be(buf2, encodedlen);
 c001d80:	e9d7 2330 	ldrd	r2, r3, [r7, #192]	; 0xc0
 c001d84:	e9c7 232e 	strd	r2, r3, [r7, #184]	; 0xb8
 c001d88:	f8d7 30b8 	ldr.w	r3, [r7, #184]	; 0xb8
 c001d8c:	f8c7 30b4 	str.w	r3, [r7, #180]	; 0xb4
 c001d90:	f8d7 30b4 	ldr.w	r3, [r7, #180]	; 0xb4
 c001d94:	0e1a      	lsrs	r2, r3, #24
 c001d96:	f8d7 30b4 	ldr.w	r3, [r7, #180]	; 0xb4
 c001d9a:	0a1b      	lsrs	r3, r3, #8
 c001d9c:	f403 437f 	and.w	r3, r3, #65280	; 0xff00
 c001da0:	431a      	orrs	r2, r3
 c001da2:	f8d7 30b4 	ldr.w	r3, [r7, #180]	; 0xb4
 c001da6:	021b      	lsls	r3, r3, #8
 c001da8:	f403 037f 	and.w	r3, r3, #16711680	; 0xff0000
 c001dac:	431a      	orrs	r2, r3
 c001dae:	f8d7 30b4 	ldr.w	r3, [r7, #180]	; 0xb4
 c001db2:	061b      	lsls	r3, r3, #24
 c001db4:	4313      	orrs	r3, r2
 c001db6:	f8c7 30b0 	str.w	r3, [r7, #176]	; 0xb0
 c001dba:	e9d7 012e 	ldrd	r0, r1, [r7, #184]	; 0xb8
 c001dbe:	f04f 0200 	mov.w	r2, #0
 c001dc2:	f04f 0300 	mov.w	r3, #0
 c001dc6:	000a      	movs	r2, r1
 c001dc8:	2300      	movs	r3, #0
 c001dca:	4613      	mov	r3, r2
 c001dcc:	f8c7 30ac 	str.w	r3, [r7, #172]	; 0xac
 c001dd0:	f8d7 30ac 	ldr.w	r3, [r7, #172]	; 0xac
 c001dd4:	0e1a      	lsrs	r2, r3, #24
 c001dd6:	f8d7 30ac 	ldr.w	r3, [r7, #172]	; 0xac
 c001dda:	0a1b      	lsrs	r3, r3, #8
 c001ddc:	f403 437f 	and.w	r3, r3, #65280	; 0xff00
 c001de0:	431a      	orrs	r2, r3
 c001de2:	f8d7 30ac 	ldr.w	r3, [r7, #172]	; 0xac
 c001de6:	021b      	lsls	r3, r3, #8
 c001de8:	f403 037f 	and.w	r3, r3, #16711680	; 0xff0000
 c001dec:	431a      	orrs	r2, r3
 c001dee:	f8d7 30ac 	ldr.w	r3, [r7, #172]	; 0xac
 c001df2:	061b      	lsls	r3, r3, #24
 c001df4:	4313      	orrs	r3, r2
 c001df6:	f8c7 30a8 	str.w	r3, [r7, #168]	; 0xa8
 c001dfa:	f8d7 30b0 	ldr.w	r3, [r7, #176]	; 0xb0
 c001dfe:	2200      	movs	r2, #0
 c001e00:	60bb      	str	r3, [r7, #8]
 c001e02:	60fa      	str	r2, [r7, #12]
 c001e04:	f04f 0200 	mov.w	r2, #0
 c001e08:	f04f 0300 	mov.w	r3, #0
 c001e0c:	68b9      	ldr	r1, [r7, #8]
 c001e0e:	000b      	movs	r3, r1
 c001e10:	2200      	movs	r2, #0
 c001e12:	f8d7 10a8 	ldr.w	r1, [r7, #168]	; 0xa8
 c001e16:	2000      	movs	r0, #0
 c001e18:	468a      	mov	sl, r1
 c001e1a:	4683      	mov	fp, r0
 c001e1c:	ea42 010a 	orr.w	r1, r2, sl
 c001e20:	6039      	str	r1, [r7, #0]
 c001e22:	ea43 030b 	orr.w	r3, r3, fp
 c001e26:	607b      	str	r3, [r7, #4]
 c001e28:	e9d7 2300 	ldrd	r2, r3, [r7]
 c001e2c:	f8d7 00cc 	ldr.w	r0, [r7, #204]	; 0xcc
 c001e30:	f7ff faea 	bl	c001408 <store64>
  Hacl_Impl_SHA2_256_update_multi(state, final_blocks, nb);
 c001e34:	f8d7 20e4 	ldr.w	r2, [r7, #228]	; 0xe4
 c001e38:	f8d7 10e0 	ldr.w	r1, [r7, #224]	; 0xe0
 c001e3c:	6a78      	ldr	r0, [r7, #36]	; 0x24
 c001e3e:	f7ff ff0c 	bl	c001c5a <Hacl_Impl_SHA2_256_update_multi>
}
 c001e42:	bf00      	nop
 c001e44:	37e8      	adds	r7, #232	; 0xe8
 c001e46:	46bd      	mov	sp, r7
 c001e48:	e8bd 8fb0 	ldmia.w	sp!, {r4, r5, r7, r8, r9, sl, fp, pc}

0c001e4c <Hacl_Impl_SHA2_256_finish>:

static void Hacl_Impl_SHA2_256_finish(uint32_t *state, uint8_t *hash1)
{
 c001e4c:	b580      	push	{r7, lr}
 c001e4e:	b084      	sub	sp, #16
 c001e50:	af00      	add	r7, sp, #0
 c001e52:	6078      	str	r0, [r7, #4]
 c001e54:	6039      	str	r1, [r7, #0]
  uint32_t *hash_w = state + (uint32_t)128U;
 c001e56:	687b      	ldr	r3, [r7, #4]
 c001e58:	f503 7300 	add.w	r3, r3, #512	; 0x200
 c001e5c:	60fb      	str	r3, [r7, #12]
  Hacl_Hash_Lib_LoadStore_uint32s_to_be_bytes(hash1, hash_w, (uint32_t)8U);
 c001e5e:	2208      	movs	r2, #8
 c001e60:	68f9      	ldr	r1, [r7, #12]
 c001e62:	6838      	ldr	r0, [r7, #0]
 c001e64:	f7ff fb14 	bl	c001490 <Hacl_Hash_Lib_LoadStore_uint32s_to_be_bytes>
}
 c001e68:	bf00      	nop
 c001e6a:	3710      	adds	r7, #16
 c001e6c:	46bd      	mov	sp, r7
 c001e6e:	bd80      	pop	{r7, pc}

0c001e70 <Hacl_Impl_SHA2_256_hash>:

static void Hacl_Impl_SHA2_256_hash(uint8_t *hash1, uint8_t *input, uint32_t len)
{
 c001e70:	b580      	push	{r7, lr}
 c001e72:	f5ad 7d12 	sub.w	sp, sp, #584	; 0x248
 c001e76:	af00      	add	r7, sp, #0
 c001e78:	f507 7312 	add.w	r3, r7, #584	; 0x248
 c001e7c:	f5a3 730f 	sub.w	r3, r3, #572	; 0x23c
 c001e80:	6018      	str	r0, [r3, #0]
 c001e82:	f507 7312 	add.w	r3, r7, #584	; 0x248
 c001e86:	f5a3 7310 	sub.w	r3, r3, #576	; 0x240
 c001e8a:	6019      	str	r1, [r3, #0]
 c001e8c:	f507 7312 	add.w	r3, r7, #584	; 0x248
 c001e90:	f5a3 7311 	sub.w	r3, r3, #580	; 0x244
 c001e94:	601a      	str	r2, [r3, #0]
  uint32_t state[137U] = { 0U };
 c001e96:	f507 7312 	add.w	r3, r7, #584	; 0x248
 c001e9a:	f5a3 730d 	sub.w	r3, r3, #564	; 0x234
 c001e9e:	4618      	mov	r0, r3
 c001ea0:	f44f 7309 	mov.w	r3, #548	; 0x224
 c001ea4:	461a      	mov	r2, r3
 c001ea6:	2100      	movs	r1, #0
 c001ea8:	f005 ff0d 	bl	c007cc6 <memset>
  uint32_t n1 = len / (uint32_t)64U;
 c001eac:	f507 7312 	add.w	r3, r7, #584	; 0x248
 c001eb0:	f5a3 7311 	sub.w	r3, r3, #580	; 0x244
 c001eb4:	681b      	ldr	r3, [r3, #0]
 c001eb6:	099b      	lsrs	r3, r3, #6
 c001eb8:	f8c7 3244 	str.w	r3, [r7, #580]	; 0x244
  uint32_t r = len % (uint32_t)64U;
 c001ebc:	f507 7312 	add.w	r3, r7, #584	; 0x248
 c001ec0:	f5a3 7311 	sub.w	r3, r3, #580	; 0x244
 c001ec4:	681b      	ldr	r3, [r3, #0]
 c001ec6:	f003 033f 	and.w	r3, r3, #63	; 0x3f
 c001eca:	f8c7 3240 	str.w	r3, [r7, #576]	; 0x240
  uint8_t *input_blocks = input;
 c001ece:	f507 7312 	add.w	r3, r7, #584	; 0x248
 c001ed2:	f5a3 7310 	sub.w	r3, r3, #576	; 0x240
 c001ed6:	681b      	ldr	r3, [r3, #0]
 c001ed8:	f8c7 323c 	str.w	r3, [r7, #572]	; 0x23c
  uint8_t *input_last = input + n1 * (uint32_t)64U;
 c001edc:	f8d7 3244 	ldr.w	r3, [r7, #580]	; 0x244
 c001ee0:	019b      	lsls	r3, r3, #6
 c001ee2:	f507 7212 	add.w	r2, r7, #584	; 0x248
 c001ee6:	f5a2 7210 	sub.w	r2, r2, #576	; 0x240
 c001eea:	6812      	ldr	r2, [r2, #0]
 c001eec:	4413      	add	r3, r2
 c001eee:	f8c7 3238 	str.w	r3, [r7, #568]	; 0x238
  Hacl_Impl_SHA2_256_init(state);
 c001ef2:	f107 0314 	add.w	r3, r7, #20
 c001ef6:	4618      	mov	r0, r3
 c001ef8:	f7ff fb00 	bl	c0014fc <Hacl_Impl_SHA2_256_init>
  Hacl_Impl_SHA2_256_update_multi(state, input_blocks, n1);
 c001efc:	f107 0314 	add.w	r3, r7, #20
 c001f00:	f8d7 2244 	ldr.w	r2, [r7, #580]	; 0x244
 c001f04:	f8d7 123c 	ldr.w	r1, [r7, #572]	; 0x23c
 c001f08:	4618      	mov	r0, r3
 c001f0a:	f7ff fea6 	bl	c001c5a <Hacl_Impl_SHA2_256_update_multi>
  Hacl_Impl_SHA2_256_update_last(state, input_last, r);
 c001f0e:	f107 0314 	add.w	r3, r7, #20
 c001f12:	f8d7 2240 	ldr.w	r2, [r7, #576]	; 0x240
 c001f16:	f8d7 1238 	ldr.w	r1, [r7, #568]	; 0x238
 c001f1a:	4618      	mov	r0, r3
 c001f1c:	f7ff febb 	bl	c001c96 <Hacl_Impl_SHA2_256_update_last>
  Hacl_Impl_SHA2_256_finish(state, hash1);
 c001f20:	f507 7312 	add.w	r3, r7, #584	; 0x248
 c001f24:	f5a3 730f 	sub.w	r3, r3, #572	; 0x23c
 c001f28:	f107 0214 	add.w	r2, r7, #20
 c001f2c:	6819      	ldr	r1, [r3, #0]
 c001f2e:	4610      	mov	r0, r2
 c001f30:	f7ff ff8c 	bl	c001e4c <Hacl_Impl_SHA2_256_finish>
}
 c001f34:	bf00      	nop
 c001f36:	f507 7712 	add.w	r7, r7, #584	; 0x248
 c001f3a:	46bd      	mov	sp, r7
 c001f3c:	bd80      	pop	{r7, pc}

0c001f3e <Hacl_SHA2_256_hash>:
{
  Hacl_Impl_SHA2_256_finish(state, hash1);
}

void Hacl_SHA2_256_hash(uint8_t *hash1, uint8_t *input, uint32_t len)
{
 c001f3e:	b580      	push	{r7, lr}
 c001f40:	b084      	sub	sp, #16
 c001f42:	af00      	add	r7, sp, #0
 c001f44:	60f8      	str	r0, [r7, #12]
 c001f46:	60b9      	str	r1, [r7, #8]
 c001f48:	607a      	str	r2, [r7, #4]
  Hacl_Impl_SHA2_256_hash(hash1, input, len);
 c001f4a:	687a      	ldr	r2, [r7, #4]
 c001f4c:	68b9      	ldr	r1, [r7, #8]
 c001f4e:	68f8      	ldr	r0, [r7, #12]
 c001f50:	f7ff ff8e 	bl	c001e70 <Hacl_Impl_SHA2_256_hash>
}
 c001f54:	bf00      	nop
 c001f56:	3710      	adds	r7, #16
 c001f58:	46bd      	mov	sp, r7
 c001f5a:	bd80      	pop	{r7, pc}

0c001f5c <_setup_data>:
	----------------------------- SUPERVISOR  --------------------------------------------
	---------------------------------------------------------------------------------
*/

//-------------------------- UTILS -------//
void _setup_data(){
 c001f5c:	b480      	push	{r7}
 c001f5e:	b083      	sub	sp, #12
 c001f60:	af00      	add	r7, sp, #0
	for(unsigned int i = 0; i < CHAL_SIZE; ++i ){
 c001f62:	2300      	movs	r3, #0
 c001f64:	607b      	str	r3, [r7, #4]
 c001f66:	e014      	b.n	c001f92 <_setup_data+0x36>
		cfa_engine_conf.hash_key[i] = i;
 c001f68:	687b      	ldr	r3, [r7, #4]
 c001f6a:	b2d9      	uxtb	r1, r3
 c001f6c:	4a0e      	ldr	r2, [pc, #56]	; (c001fa8 <_setup_data+0x4c>)
 c001f6e:	687b      	ldr	r3, [r7, #4]
 c001f70:	4413      	add	r3, r2
 c001f72:	334a      	adds	r3, #74	; 0x4a
 c001f74:	460a      	mov	r2, r1
 c001f76:	701a      	strb	r2, [r3, #0]
		cfa_engine_conf.challenge[i] = 0x65+i;
 c001f78:	687b      	ldr	r3, [r7, #4]
 c001f7a:	b2db      	uxtb	r3, r3
 c001f7c:	3365      	adds	r3, #101	; 0x65
 c001f7e:	b2d9      	uxtb	r1, r3
 c001f80:	4a09      	ldr	r2, [pc, #36]	; (c001fa8 <_setup_data+0x4c>)
 c001f82:	687b      	ldr	r3, [r7, #4]
 c001f84:	4413      	add	r3, r2
 c001f86:	3308      	adds	r3, #8
 c001f88:	460a      	mov	r2, r1
 c001f8a:	701a      	strb	r2, [r3, #0]
	for(unsigned int i = 0; i < CHAL_SIZE; ++i ){
 c001f8c:	687b      	ldr	r3, [r7, #4]
 c001f8e:	3301      	adds	r3, #1
 c001f90:	607b      	str	r3, [r7, #4]
 c001f92:	687b      	ldr	r3, [r7, #4]
 c001f94:	2b3f      	cmp	r3, #63	; 0x3f
 c001f96:	d9e7      	bls.n	c001f68 <_setup_data+0xc>
	}
}
 c001f98:	bf00      	nop
 c001f9a:	bf00      	nop
 c001f9c:	370c      	adds	r7, #12
 c001f9e:	46bd      	mov	sp, r7
 c001fa0:	f85d 7b04 	ldr.w	r7, [sp], #4
 c001fa4:	4770      	bx	lr
 c001fa6:	bf00      	nop
 c001fa8:	300004b8 	.word	0x300004b8

0c001fac <_update_challenge>:

void _update_challenge(uint8_t* chl){
 c001fac:	b4f0      	push	{r4, r5, r6, r7}
 c001fae:	b082      	sub	sp, #8
 c001fb0:	af00      	add	r7, sp, #0
 c001fb2:	6078      	str	r0, [r7, #4]
	memcpy(cfa_engine_conf.challenge,chl, CHAL_SIZE);
 c001fb4:	4b15      	ldr	r3, [pc, #84]	; (c00200c <_update_challenge+0x60>)
 c001fb6:	687a      	ldr	r2, [r7, #4]
 c001fb8:	4614      	mov	r4, r2
 c001fba:	f103 0608 	add.w	r6, r3, #8
 c001fbe:	f104 0c40 	add.w	ip, r4, #64	; 0x40
 c001fc2:	4635      	mov	r5, r6
 c001fc4:	4623      	mov	r3, r4
 c001fc6:	6818      	ldr	r0, [r3, #0]
 c001fc8:	6859      	ldr	r1, [r3, #4]
 c001fca:	689a      	ldr	r2, [r3, #8]
 c001fcc:	68db      	ldr	r3, [r3, #12]
 c001fce:	c50f      	stmia	r5!, {r0, r1, r2, r3}
 c001fd0:	3410      	adds	r4, #16
 c001fd2:	3610      	adds	r6, #16
 c001fd4:	4564      	cmp	r4, ip
 c001fd6:	d1f4      	bne.n	c001fc2 <_update_challenge+0x16>
	memcpy(vrf_resp.new_challenge,chl, CHAL_SIZE);
 c001fd8:	4a0d      	ldr	r2, [pc, #52]	; (c002010 <_update_challenge+0x64>)
 c001fda:	687b      	ldr	r3, [r7, #4]
 c001fdc:	461c      	mov	r4, r3
 c001fde:	4616      	mov	r6, r2
 c001fe0:	f104 0c40 	add.w	ip, r4, #64	; 0x40
 c001fe4:	4635      	mov	r5, r6
 c001fe6:	4623      	mov	r3, r4
 c001fe8:	6818      	ldr	r0, [r3, #0]
 c001fea:	6859      	ldr	r1, [r3, #4]
 c001fec:	689a      	ldr	r2, [r3, #8]
 c001fee:	68db      	ldr	r3, [r3, #12]
 c001ff0:	c50f      	stmia	r5!, {r0, r1, r2, r3}
 c001ff2:	3410      	adds	r4, #16
 c001ff4:	3610      	adds	r6, #16
 c001ff6:	4564      	cmp	r4, ip
 c001ff8:	d1f4      	bne.n	c001fe4 <_update_challenge+0x38>
	cfa_engine_conf.challenge_renewed = TRUE;
 c001ffa:	4b04      	ldr	r3, [pc, #16]	; (c00200c <_update_challenge+0x60>)
 c001ffc:	2201      	movs	r2, #1
 c001ffe:	f883 2048 	strb.w	r2, [r3, #72]	; 0x48
}
 c002002:	bf00      	nop
 c002004:	3708      	adds	r7, #8
 c002006:	46bd      	mov	sp, r7
 c002008:	bcf0      	pop	{r4, r5, r6, r7}
 c00200a:	4770      	bx	lr
 c00200c:	300004b8 	.word	0x300004b8
 c002010:	30000544 	.word	0x30000544

0c002014 <_clean>:

void _clean(){
 c002014:	b480      	push	{r7}
 c002016:	af00      	add	r7, sp, #0
	cfa_engine_conf.log_counter = 0;
 c002018:	4b0f      	ldr	r3, [pc, #60]	; (c002058 <_clean+0x44>)
 c00201a:	2200      	movs	r2, #0
 c00201c:	80da      	strh	r2, [r3, #6]
	report_secure.number_of_logs_sent = 0;
 c00201e:	4b0f      	ldr	r3, [pc, #60]	; (c00205c <_clean+0x48>)
 c002020:	2200      	movs	r2, #0
 c002022:	f8a3 2464 	strh.w	r2, [r3, #1124]	; 0x464
	cfa_engine_conf.initialized = INITIALIZED;
 c002026:	4b0c      	ldr	r3, [pc, #48]	; (c002058 <_clean+0x44>)
 c002028:	22ee      	movs	r2, #238	; 0xee
 c00202a:	f883 2049 	strb.w	r2, [r3, #73]	; 0x49
	cfa_engine_conf.attestation_status = INACTIVE;
 c00202e:	4b0a      	ldr	r3, [pc, #40]	; (c002058 <_clean+0x44>)
 c002030:	2200      	movs	r2, #0
 c002032:	711a      	strb	r2, [r3, #4]
	report_secure.num_CF_Log_size = 0;
 c002034:	4b09      	ldr	r3, [pc, #36]	; (c00205c <_clean+0x48>)
 c002036:	2200      	movs	r2, #0
 c002038:	f8a3 2062 	strh.w	r2, [r3, #98]	; 0x62
	cfa_engine_conf.challenge_renewed = FALSE;
 c00203c:	4b06      	ldr	r3, [pc, #24]	; (c002058 <_clean+0x44>)
 c00203e:	2200      	movs	r2, #0
 c002040:	f883 2048 	strb.w	r2, [r3, #72]	; 0x48
	report_secure.isFinal = FALSE;
 c002044:	4b05      	ldr	r3, [pc, #20]	; (c00205c <_clean+0x48>)
 c002046:	2200      	movs	r2, #0
 c002048:	f8a3 2040 	strh.w	r2, [r3, #64]	; 0x40
}
 c00204c:	bf00      	nop
 c00204e:	46bd      	mov	sp, r7
 c002050:	f85d 7b04 	ldr.w	r7, [sp], #4
 c002054:	4770      	bx	lr
 c002056:	bf00      	nop
 c002058:	300004b8 	.word	0x300004b8
 c00205c:	30000034 	.word	0x30000034

0c002060 <_clean_partial>:

void _clean_partial(){
 c002060:	b480      	push	{r7}
 c002062:	af00      	add	r7, sp, #0
	report_secure.num_CF_Log_size = 0;
 c002064:	4b04      	ldr	r3, [pc, #16]	; (c002078 <_clean_partial+0x18>)
 c002066:	2200      	movs	r2, #0
 c002068:	f8a3 2062 	strh.w	r2, [r3, #98]	; 0x62
}
 c00206c:	bf00      	nop
 c00206e:	46bd      	mov	sp, r7
 c002070:	f85d 7b04 	ldr.w	r7, [sp], #4
 c002074:	4770      	bx	lr
 c002076:	bf00      	nop
 c002078:	30000034 	.word	0x30000034

0c00207c <_run_application>:

void _run_application(){
 c00207c:	b598      	push	{r3, r4, r7, lr}
 c00207e:	af00      	add	r7, sp, #0
	//start app
	if (cfa_engine_conf.iac.app_start_address != NULL){
 c002080:	4b18      	ldr	r3, [pc, #96]	; (c0020e4 <_run_application+0x68>)
 c002082:	681b      	ldr	r3, [r3, #0]
 c002084:	2b00      	cmp	r3, #0
 c002086:	d02b      	beq.n	c0020e0 <_run_application+0x64>
		cfa_engine_conf.iac.app_start_address();
 c002088:	4b16      	ldr	r3, [pc, #88]	; (c0020e4 <_run_application+0x68>)
 c00208a:	681b      	ldr	r3, [r3, #0]
 c00208c:	461c      	mov	r4, r3
 c00208e:	0864      	lsrs	r4, r4, #1
 c002090:	0064      	lsls	r4, r4, #1
 c002092:	4620      	mov	r0, r4
 c002094:	4621      	mov	r1, r4
 c002096:	4622      	mov	r2, r4
 c002098:	4623      	mov	r3, r4
 c00209a:	eeb7 0a00 	vmov.f32	s0, #112	; 0x3f800000  1.0
 c00209e:	eef7 0a00 	vmov.f32	s1, #112	; 0x3f800000  1.0
 c0020a2:	eeb7 1a00 	vmov.f32	s2, #112	; 0x3f800000  1.0
 c0020a6:	eef7 1a00 	vmov.f32	s3, #112	; 0x3f800000  1.0
 c0020aa:	eeb7 2a00 	vmov.f32	s4, #112	; 0x3f800000  1.0
 c0020ae:	eef7 2a00 	vmov.f32	s5, #112	; 0x3f800000  1.0
 c0020b2:	eeb7 3a00 	vmov.f32	s6, #112	; 0x3f800000  1.0
 c0020b6:	eef7 3a00 	vmov.f32	s7, #112	; 0x3f800000  1.0
 c0020ba:	eeb7 4a00 	vmov.f32	s8, #112	; 0x3f800000  1.0
 c0020be:	eef7 4a00 	vmov.f32	s9, #112	; 0x3f800000  1.0
 c0020c2:	eeb7 5a00 	vmov.f32	s10, #112	; 0x3f800000  1.0
 c0020c6:	eef7 5a00 	vmov.f32	s11, #112	; 0x3f800000  1.0
 c0020ca:	eeb7 6a00 	vmov.f32	s12, #112	; 0x3f800000  1.0
 c0020ce:	eef7 6a00 	vmov.f32	s13, #112	; 0x3f800000  1.0
 c0020d2:	eeb7 7a00 	vmov.f32	s14, #112	; 0x3f800000  1.0
 c0020d6:	eef7 7a00 	vmov.f32	s15, #112	; 0x3f800000  1.0
 c0020da:	f7fe f8b5 	bl	c000248 <__gnu_cmse_nonsecure_call>
	}
	return;
 c0020de:	bf00      	nop
 c0020e0:	bf00      	nop
}
 c0020e2:	bd98      	pop	{r3, r4, r7, pc}
 c0020e4:	300004b8 	.word	0x300004b8

0c0020e8 <record_output_data>:

uint32_t output_data = 0;
void record_output_data(uint32_t value){
 c0020e8:	b480      	push	{r7}
 c0020ea:	b083      	sub	sp, #12
 c0020ec:	af00      	add	r7, sp, #0
 c0020ee:	6078      	str	r0, [r7, #4]
	output_data = value;
 c0020f0:	4a04      	ldr	r2, [pc, #16]	; (c002104 <record_output_data+0x1c>)
 c0020f2:	687b      	ldr	r3, [r7, #4]
 c0020f4:	6013      	str	r3, [r2, #0]
}
 c0020f6:	bf00      	nop
 c0020f8:	370c      	adds	r7, #12
 c0020fa:	46bd      	mov	sp, r7
 c0020fc:	f85d 7b04 	ldr.w	r7, [sp], #4
 c002100:	4770      	bx	lr
 c002102:	bf00      	nop
 c002104:	30000694 	.word	0x30000694

0c002108 <CFA_ENGINE_start>:
}
#endif

/* -------------  NON SECURE CALLABLES */

void CFA_ENGINE_start(){
 c002108:	b580      	push	{r7, lr}
 c00210a:	af00      	add	r7, sp, #0
	while(1){
		_attest_memory();
 c00210c:	f000 fb10 	bl	c002730 <_attest_memory>
		_setup_data();
 c002110:	f7ff ff24 	bl	c001f5c <_setup_data>
		_clean();
 c002114:	f7ff ff7e 	bl	c002014 <_clean>
		_read_serial_loop();
 c002118:	f000 f8f6 	bl	c002308 <_read_serial_loop>
		_attest_memory();
 c00211c:	e7f6      	b.n	c00210c <CFA_ENGINE_start+0x4>
	...

0c002120 <CFA_ENGINE_register_callback>:
	}
}

void CFA_ENGINE_register_callback(){
 c002120:	b480      	push	{r7}
 c002122:	af00      	add	r7, sp, #0
	cfa_engine_conf.iac.app_start_address = (funcptr_NS)  pAttestationFunctionCallback;
 c002124:	4b04      	ldr	r3, [pc, #16]	; (c002138 <CFA_ENGINE_register_callback+0x18>)
 c002126:	681b      	ldr	r3, [r3, #0]
 c002128:	461a      	mov	r2, r3
 c00212a:	4b04      	ldr	r3, [pc, #16]	; (c00213c <CFA_ENGINE_register_callback+0x1c>)
 c00212c:	601a      	str	r2, [r3, #0]
	return;
 c00212e:	bf00      	nop
}
 c002130:	46bd      	mov	sp, r7
 c002132:	f85d 7b04 	ldr.w	r7, [sp], #4
 c002136:	4770      	bx	lr
 c002138:	30000704 	.word	0x30000704
 c00213c:	300004b8 	.word	0x300004b8

0c002140 <STATE_initialize_attestation>:

/* --------------- - STATE HANDLING --------------------- */


uint32_t total_runtime = 0;
int STATE_initialize_attestation(){
 c002140:	b580      	push	{r7, lr}
 c002142:	b082      	sub	sp, #8
 c002144:	af00      	add	r7, sp, #0
	if (cfa_engine_conf.attestation_status == INACTIVE){
 c002146:	4b1c      	ldr	r3, [pc, #112]	; (c0021b8 <STATE_initialize_attestation+0x78>)
 c002148:	791b      	ldrb	r3, [r3, #4]
 c00214a:	2b00      	cmp	r3, #0
 c00214c:	d11c      	bne.n	c002188 <STATE_initialize_attestation+0x48>

		// send response to vrf
		uint8_t ready_char[COMMAND_SIZE+1] = INIT_ATTESTATION;
 c00214e:	4a1b      	ldr	r2, [pc, #108]	; (c0021bc <STATE_initialize_attestation+0x7c>)
 c002150:	463b      	mov	r3, r7
 c002152:	e892 0003 	ldmia.w	r2, {r0, r1}
 c002156:	6018      	str	r0, [r3, #0]
 c002158:	3304      	adds	r3, #4
 c00215a:	7019      	strb	r1, [r3, #0]
		SecureUartTx(ready_char, COMMAND_SIZE);
 c00215c:	463b      	mov	r3, r7
 c00215e:	2104      	movs	r1, #4
 c002160:	4618      	mov	r0, r3
 c002162:	f001 fcff 	bl	c003b64 <SecureUartTx>

		// receive challange
		if(_receive_challenge()) return 1;
 c002166:	f000 f973 	bl	c002450 <_receive_challenge>
 c00216a:	4603      	mov	r3, r0
 c00216c:	2b00      	cmp	r3, #0
 c00216e:	d001      	beq.n	c002174 <STATE_initialize_attestation+0x34>
 c002170:	2301      	movs	r3, #1
 c002172:	e01d      	b.n	c0021b0 <STATE_initialize_attestation+0x70>

		// start application
		cfa_engine_conf.attestation_status = ACTIVE;
 c002174:	4b10      	ldr	r3, [pc, #64]	; (c0021b8 <STATE_initialize_attestation+0x78>)
 c002176:	2201      	movs	r2, #1
 c002178:	711a      	strb	r2, [r3, #4]
		CFA_ENGINE_run_attestation();
 c00217a:	f000 fbf3 	bl	c002964 <CFA_ENGINE_run_attestation>
		cfa_engine_conf.attestation_status = COMPLETE;
 c00217e:	4b0e      	ldr	r3, [pc, #56]	; (c0021b8 <STATE_initialize_attestation+0x78>)
 c002180:	2202      	movs	r2, #2
 c002182:	711a      	strb	r2, [r3, #4]

		// Send final report
		_send_report();
 c002184:	f000 fa86 	bl	c002694 <_send_report>
	}

	total_runtime += app_exec_time + time_sign_report + send_report_time + receive_resp_time + verify_resp_time;
 c002188:	4b0d      	ldr	r3, [pc, #52]	; (c0021c0 <STATE_initialize_attestation+0x80>)
 c00218a:	681a      	ldr	r2, [r3, #0]
 c00218c:	4b0d      	ldr	r3, [pc, #52]	; (c0021c4 <STATE_initialize_attestation+0x84>)
 c00218e:	681b      	ldr	r3, [r3, #0]
 c002190:	441a      	add	r2, r3
 c002192:	4b0d      	ldr	r3, [pc, #52]	; (c0021c8 <STATE_initialize_attestation+0x88>)
 c002194:	681b      	ldr	r3, [r3, #0]
 c002196:	441a      	add	r2, r3
 c002198:	4b0c      	ldr	r3, [pc, #48]	; (c0021cc <STATE_initialize_attestation+0x8c>)
 c00219a:	681b      	ldr	r3, [r3, #0]
 c00219c:	441a      	add	r2, r3
 c00219e:	4b0c      	ldr	r3, [pc, #48]	; (c0021d0 <STATE_initialize_attestation+0x90>)
 c0021a0:	681b      	ldr	r3, [r3, #0]
 c0021a2:	441a      	add	r2, r3
 c0021a4:	4b0b      	ldr	r3, [pc, #44]	; (c0021d4 <STATE_initialize_attestation+0x94>)
 c0021a6:	681b      	ldr	r3, [r3, #0]
 c0021a8:	4413      	add	r3, r2
 c0021aa:	4a0a      	ldr	r2, [pc, #40]	; (c0021d4 <STATE_initialize_attestation+0x94>)
 c0021ac:	6013      	str	r3, [r2, #0]

	return CONTINUE_LOOP;
 c0021ae:	2301      	movs	r3, #1
}
 c0021b0:	4618      	mov	r0, r3
 c0021b2:	3708      	adds	r7, #8
 c0021b4:	46bd      	mov	sp, r7
 c0021b6:	bd80      	pop	{r7, pc}
 c0021b8:	300004b8 	.word	0x300004b8
 c0021bc:	0c007cf0 	.word	0x0c007cf0
 c0021c0:	30000650 	.word	0x30000650
 c0021c4:	30000654 	.word	0x30000654
 c0021c8:	30000658 	.word	0x30000658
 c0021cc:	3000065c 	.word	0x3000065c
 c0021d0:	30000660 	.word	0x30000660
 c0021d4:	30000698 	.word	0x30000698

0c0021d8 <STATE_accept_report>:

int STATE_accept_report(){
 c0021d8:	b580      	push	{r7, lr}
 c0021da:	af00      	add	r7, sp, #0
	if (cfa_engine_conf.attestation_status == COMPLETE){
 c0021dc:	4b06      	ldr	r3, [pc, #24]	; (c0021f8 <STATE_accept_report+0x20>)
 c0021de:	791b      	ldrb	r3, [r3, #4]
 c0021e0:	2b02      	cmp	r3, #2
 c0021e2:	d106      	bne.n	c0021f2 <STATE_accept_report+0x1a>
		cfa_engine_conf.attestation_status = INACTIVE; //temp
 c0021e4:	4b04      	ldr	r3, [pc, #16]	; (c0021f8 <STATE_accept_report+0x20>)
 c0021e6:	2200      	movs	r2, #0
 c0021e8:	711a      	strb	r2, [r3, #4]
		_clean();
 c0021ea:	f7ff ff13 	bl	c002014 <_clean>
		return EXIT_LOOP;
 c0021ee:	2300      	movs	r3, #0
 c0021f0:	e000      	b.n	c0021f4 <STATE_accept_report+0x1c>
	}
	return CONTINUE_LOOP;
 c0021f2:	2301      	movs	r3, #1
}
 c0021f4:	4618      	mov	r0, r3
 c0021f6:	bd80      	pop	{r7, pc}
 c0021f8:	300004b8 	.word	0x300004b8

0c0021fc <STATE_heal>:

int STATE_heal(){
 c0021fc:	b580      	push	{r7, lr}
 c0021fe:	af00      	add	r7, sp, #0
	if (cfa_engine_conf.attestation_status == COMPLETE || cfa_engine_conf.attestation_status == WAITING_PARTIAL){
 c002200:	4b07      	ldr	r3, [pc, #28]	; (c002220 <STATE_heal+0x24>)
 c002202:	791b      	ldrb	r3, [r3, #4]
 c002204:	2b02      	cmp	r3, #2
 c002206:	d003      	beq.n	c002210 <STATE_heal+0x14>
 c002208:	4b05      	ldr	r3, [pc, #20]	; (c002220 <STATE_heal+0x24>)
 c00220a:	791b      	ldrb	r3, [r3, #4]
 c00220c:	2b04      	cmp	r3, #4
 c00220e:	d103      	bne.n	c002218 <STATE_heal+0x1c>
		_heal_function();
 c002210:	f000 fc6a 	bl	c002ae8 <_heal_function>
		return EXIT_LOOP;
 c002214:	2300      	movs	r3, #0
 c002216:	e000      	b.n	c00221a <STATE_heal+0x1e>
	}
	return CONTINUE_LOOP;
 c002218:	2301      	movs	r3, #1
}
 c00221a:	4618      	mov	r0, r3
 c00221c:	bd80      	pop	{r7, pc}
 c00221e:	bf00      	nop
 c002220:	300004b8 	.word	0x300004b8

0c002224 <STATE_continue>:

int STATE_continue(){
 c002224:	b580      	push	{r7, lr}
 c002226:	af00      	add	r7, sp, #0

	_receive_challenge();
 c002228:	f000 f912 	bl	c002450 <_receive_challenge>

	cfa_engine_conf.attestation_status = ACTIVE;
 c00222c:	4b02      	ldr	r3, [pc, #8]	; (c002238 <STATE_continue+0x14>)
 c00222e:	2201      	movs	r2, #1
 c002230:	711a      	strb	r2, [r3, #4]

//	_initialize_timer_interrupt();

	return EXIT_LOOP;
 c002232:	2300      	movs	r3, #0
}
 c002234:	4618      	mov	r0, r3
 c002236:	bd80      	pop	{r7, pc}
 c002238:	300004b8 	.word	0x300004b8

0c00223c <translate_command>:

/* ---------------------------  PROTOCOL  ----------------------------------------- */


char translate_command(int8_t command_received[]){
 c00223c:	b580      	push	{r7, lr}
 c00223e:	b082      	sub	sp, #8
 c002240:	af00      	add	r7, sp, #0
 c002242:	6078      	str	r0, [r7, #4]
	command_received[COMMAND_SIZE] = '\0';
 c002244:	687b      	ldr	r3, [r7, #4]
 c002246:	3304      	adds	r3, #4
 c002248:	2200      	movs	r2, #0
 c00224a:	701a      	strb	r2, [r3, #0]
	if (!strcmp(command_received,INIT_ATTESTATION))
 c00224c:	4914      	ldr	r1, [pc, #80]	; (c0022a0 <translate_command+0x64>)
 c00224e:	6878      	ldr	r0, [r7, #4]
 c002250:	f7fd fff0 	bl	c000234 <strcmp>
 c002254:	4603      	mov	r3, r0
 c002256:	2b00      	cmp	r3, #0
 c002258:	d101      	bne.n	c00225e <translate_command+0x22>
		return INIT_ATTESTATION_CHAR;
 c00225a:	2369      	movs	r3, #105	; 0x69
 c00225c:	e01b      	b.n	c002296 <translate_command+0x5a>
	else if (!strcmp(command_received,ACCEPTED_REPORT))
 c00225e:	4911      	ldr	r1, [pc, #68]	; (c0022a4 <translate_command+0x68>)
 c002260:	6878      	ldr	r0, [r7, #4]
 c002262:	f7fd ffe7 	bl	c000234 <strcmp>
 c002266:	4603      	mov	r3, r0
 c002268:	2b00      	cmp	r3, #0
 c00226a:	d101      	bne.n	c002270 <translate_command+0x34>
		return ACCEPT_REPORT_CHAR;
 c00226c:	2376      	movs	r3, #118	; 0x76
 c00226e:	e012      	b.n	c002296 <translate_command+0x5a>
	else if (!strcmp(command_received,CONTINUE_REQUEST))
 c002270:	490d      	ldr	r1, [pc, #52]	; (c0022a8 <translate_command+0x6c>)
 c002272:	6878      	ldr	r0, [r7, #4]
 c002274:	f7fd ffde 	bl	c000234 <strcmp>
 c002278:	4603      	mov	r3, r0
 c00227a:	2b00      	cmp	r3, #0
 c00227c:	d101      	bne.n	c002282 <translate_command+0x46>
		return CONTINUE_CHAR;
 c00227e:	2363      	movs	r3, #99	; 0x63
 c002280:	e009      	b.n	c002296 <translate_command+0x5a>
	else if (!strcmp(command_received,HEAL_REQUEST))
 c002282:	490a      	ldr	r1, [pc, #40]	; (c0022ac <translate_command+0x70>)
 c002284:	6878      	ldr	r0, [r7, #4]
 c002286:	f7fd ffd5 	bl	c000234 <strcmp>
 c00228a:	4603      	mov	r3, r0
 c00228c:	2b00      	cmp	r3, #0
 c00228e:	d101      	bne.n	c002294 <translate_command+0x58>
		return HEAL_CHAR;
 c002290:	2368      	movs	r3, #104	; 0x68
 c002292:	e000      	b.n	c002296 <translate_command+0x5a>
	return 'X';
 c002294:	2358      	movs	r3, #88	; 0x58

}
 c002296:	4618      	mov	r0, r3
 c002298:	3708      	adds	r7, #8
 c00229a:	46bd      	mov	sp, r7
 c00229c:	bd80      	pop	{r7, pc}
 c00229e:	bf00      	nop
 c0022a0:	0c007cf0 	.word	0x0c007cf0
 c0022a4:	0c007cf8 	.word	0x0c007cf8
 c0022a8:	0c007d00 	.word	0x0c007d00
 c0022ac:	0c007d08 	.word	0x0c007d08

0c0022b0 <wait_for_command>:

void wait_for_command(char pattern[],int size){
 c0022b0:	b580      	push	{r7, lr}
 c0022b2:	b086      	sub	sp, #24
 c0022b4:	af00      	add	r7, sp, #0
 c0022b6:	6078      	str	r0, [r7, #4]
 c0022b8:	6039      	str	r1, [r7, #0]
	int found_size = 0;
 c0022ba:	2300      	movs	r3, #0
 c0022bc:	617b      	str	r3, [r7, #20]
	int i = 0;
 c0022be:	2300      	movs	r3, #0
 c0022c0:	613b      	str	r3, [r7, #16]
	char read_char;
	while(found_size != size){
 c0022c2:	e017      	b.n	c0022f4 <wait_for_command+0x44>
		SecureUartRx((uint8_t*)&read_char, 1);
 c0022c4:	f107 030f 	add.w	r3, r7, #15
 c0022c8:	2101      	movs	r1, #1
 c0022ca:	4618      	mov	r0, r3
 c0022cc:	f001 fc5e 	bl	c003b8c <SecureUartRx>
		if (read_char == pattern[i]){
 c0022d0:	693b      	ldr	r3, [r7, #16]
 c0022d2:	687a      	ldr	r2, [r7, #4]
 c0022d4:	4413      	add	r3, r2
 c0022d6:	781a      	ldrb	r2, [r3, #0]
 c0022d8:	7bfb      	ldrb	r3, [r7, #15]
 c0022da:	429a      	cmp	r2, r3
 c0022dc:	d106      	bne.n	c0022ec <wait_for_command+0x3c>
			i++;
 c0022de:	693b      	ldr	r3, [r7, #16]
 c0022e0:	3301      	adds	r3, #1
 c0022e2:	613b      	str	r3, [r7, #16]
			found_size++;
 c0022e4:	697b      	ldr	r3, [r7, #20]
 c0022e6:	3301      	adds	r3, #1
 c0022e8:	617b      	str	r3, [r7, #20]
 c0022ea:	e003      	b.n	c0022f4 <wait_for_command+0x44>
		}
		else{
			i = 0;
 c0022ec:	2300      	movs	r3, #0
 c0022ee:	613b      	str	r3, [r7, #16]
			found_size = 0;
 c0022f0:	2300      	movs	r3, #0
 c0022f2:	617b      	str	r3, [r7, #20]
	while(found_size != size){
 c0022f4:	697a      	ldr	r2, [r7, #20]
 c0022f6:	683b      	ldr	r3, [r7, #0]
 c0022f8:	429a      	cmp	r2, r3
 c0022fa:	d1e3      	bne.n	c0022c4 <wait_for_command+0x14>
		}
	}
}
 c0022fc:	bf00      	nop
 c0022fe:	bf00      	nop
 c002300:	3718      	adds	r7, #24
 c002302:	46bd      	mov	sp, r7
 c002304:	bd80      	pop	{r7, pc}
	...

0c002308 <_read_serial_loop>:

void _read_serial_loop(){
 c002308:	b580      	push	{r7, lr}
 c00230a:	b082      	sub	sp, #8
 c00230c:	af00      	add	r7, sp, #0
	uint8_t command_received[COMMAND_SIZE+1];
	uint8_t state = CONTINUE_LOOP;
 c00230e:	2301      	movs	r3, #1
 c002310:	71fb      	strb	r3, [r7, #7]
	char aaa;
	while(state == CONTINUE_LOOP){
 c002312:	e054      	b.n	c0023be <_read_serial_loop+0xb6>
		wait_for_command(BEGGINING_OF_COMMAND,COMMAND_SIZE);
 c002314:	2104      	movs	r1, #4
 c002316:	482e      	ldr	r0, [pc, #184]	; (c0023d0 <_read_serial_loop+0xc8>)
 c002318:	f7ff ffca 	bl	c0022b0 <wait_for_command>
		_receive_request(COMMAND_SIZE, command_received);
 c00231c:	463b      	mov	r3, r7
 c00231e:	4619      	mov	r1, r3
 c002320:	2004      	movs	r0, #4
 c002322:	f000 f95d 	bl	c0025e0 <_receive_request>
		aaa = translate_command(command_received);
 c002326:	463b      	mov	r3, r7
 c002328:	4618      	mov	r0, r3
 c00232a:	f7ff ff87 	bl	c00223c <translate_command>
 c00232e:	4603      	mov	r3, r0
 c002330:	71bb      	strb	r3, [r7, #6]
		switch(aaa){
 c002332:	79bb      	ldrb	r3, [r7, #6]
 c002334:	3b63      	subs	r3, #99	; 0x63
 c002336:	2b13      	cmp	r3, #19
 c002338:	d83e      	bhi.n	c0023b8 <_read_serial_loop+0xb0>
 c00233a:	a201      	add	r2, pc, #4	; (adr r2, c002340 <_read_serial_loop+0x38>)
 c00233c:	f852 f023 	ldr.w	pc, [r2, r3, lsl #2]
 c002340:	0c0023af 	.word	0x0c0023af
 c002344:	0c0023b9 	.word	0x0c0023b9
 c002348:	0c0023b9 	.word	0x0c0023b9
 c00234c:	0c0023b9 	.word	0x0c0023b9
 c002350:	0c0023b9 	.word	0x0c0023b9
 c002354:	0c0023a5 	.word	0x0c0023a5
 c002358:	0c002391 	.word	0x0c002391
 c00235c:	0c0023b9 	.word	0x0c0023b9
 c002360:	0c0023b9 	.word	0x0c0023b9
 c002364:	0c0023b9 	.word	0x0c0023b9
 c002368:	0c0023b9 	.word	0x0c0023b9
 c00236c:	0c0023b9 	.word	0x0c0023b9
 c002370:	0c0023b9 	.word	0x0c0023b9
 c002374:	0c0023b9 	.word	0x0c0023b9
 c002378:	0c0023b9 	.word	0x0c0023b9
 c00237c:	0c0023b9 	.word	0x0c0023b9
 c002380:	0c0023b9 	.word	0x0c0023b9
 c002384:	0c0023b9 	.word	0x0c0023b9
 c002388:	0c0023b9 	.word	0x0c0023b9
 c00238c:	0c00239b 	.word	0x0c00239b

			case INIT_ATTESTATION_CHAR:
				state = STATE_initialize_attestation();
 c002390:	f7ff fed6 	bl	c002140 <STATE_initialize_attestation>
 c002394:	4603      	mov	r3, r0
 c002396:	71fb      	strb	r3, [r7, #7]
				break;
 c002398:	e011      	b.n	c0023be <_read_serial_loop+0xb6>

			case ACCEPT_REPORT_CHAR:
				state = STATE_accept_report();
 c00239a:	f7ff ff1d 	bl	c0021d8 <STATE_accept_report>
 c00239e:	4603      	mov	r3, r0
 c0023a0:	71fb      	strb	r3, [r7, #7]
				break;
 c0023a2:	e00c      	b.n	c0023be <_read_serial_loop+0xb6>

			case HEAL_CHAR:
				state = STATE_heal();
 c0023a4:	f7ff ff2a 	bl	c0021fc <STATE_heal>
 c0023a8:	4603      	mov	r3, r0
 c0023aa:	71fb      	strb	r3, [r7, #7]
				break;
 c0023ac:	e007      	b.n	c0023be <_read_serial_loop+0xb6>

			case CONTINUE_CHAR:
				state = STATE_continue();
 c0023ae:	f7ff ff39 	bl	c002224 <STATE_continue>
 c0023b2:	4603      	mov	r3, r0
 c0023b4:	71fb      	strb	r3, [r7, #7]
				break;
 c0023b6:	e002      	b.n	c0023be <_read_serial_loop+0xb6>

			default:
				state = CONTINUE_LOOP;
 c0023b8:	2301      	movs	r3, #1
 c0023ba:	71fb      	strb	r3, [r7, #7]
				break;
 c0023bc:	bf00      	nop
	while(state == CONTINUE_LOOP){
 c0023be:	79fb      	ldrb	r3, [r7, #7]
 c0023c0:	2b01      	cmp	r3, #1
 c0023c2:	d0a7      	beq.n	c002314 <_read_serial_loop+0xc>
		}
	}
}
 c0023c4:	bf00      	nop
 c0023c6:	bf00      	nop
 c0023c8:	3708      	adds	r7, #8
 c0023ca:	46bd      	mov	sp, r7
 c0023cc:	bd80      	pop	{r7, pc}
 c0023ce:	bf00      	nop
 c0023d0:	0c007d10 	.word	0x0c007d10

0c0023d4 <_deactivate_timer_interrupt>:
void _activate_timeout_interrupt(){
	HAL_TIM_Base_Start(&htim3);
}


void _deactivate_timer_interrupt(){
 c0023d4:	b580      	push	{r7, lr}
 c0023d6:	af00      	add	r7, sp, #0
	HAL_TIM_Base_Stop(&htim3);
 c0023d8:	4804      	ldr	r0, [pc, #16]	; (c0023ec <_deactivate_timer_interrupt+0x18>)
 c0023da:	f004 f900 	bl	c0065de <HAL_TIM_Base_Stop>
	__HAL_TIM_SET_COUNTER(&htim3, 0); // reset count
 c0023de:	4b03      	ldr	r3, [pc, #12]	; (c0023ec <_deactivate_timer_interrupt+0x18>)
 c0023e0:	681b      	ldr	r3, [r3, #0]
 c0023e2:	2200      	movs	r2, #0
 c0023e4:	625a      	str	r2, [r3, #36]	; 0x24
}
 c0023e6:	bf00      	nop
 c0023e8:	bd80      	pop	{r7, pc}
 c0023ea:	bf00      	nop
 c0023ec:	30000708 	.word	0x30000708

0c0023f0 <CFA_time_interrupt_handler>:

void CFA_time_interrupt_handler(){
 c0023f0:	b580      	push	{r7, lr}
 c0023f2:	b082      	sub	sp, #8
 c0023f4:	af00      	add	r7, sp, #0
	__HAL_RCC_TIM3_CLK_DISABLE();
 c0023f6:	4b13      	ldr	r3, [pc, #76]	; (c002444 <CFA_time_interrupt_handler+0x54>)
 c0023f8:	6d9b      	ldr	r3, [r3, #88]	; 0x58
 c0023fa:	4a12      	ldr	r2, [pc, #72]	; (c002444 <CFA_time_interrupt_handler+0x54>)
 c0023fc:	f023 0302 	bic.w	r3, r3, #2
 c002400:	6593      	str	r3, [r2, #88]	; 0x58
	report_secure.isFinal = PARTIAL_REPORT;
 c002402:	4b11      	ldr	r3, [pc, #68]	; (c002448 <CFA_time_interrupt_handler+0x58>)
 c002404:	2250      	movs	r2, #80	; 0x50
 c002406:	f8a3 2040 	strh.w	r2, [r3, #64]	; 0x40
	_sign_report();
 c00240a:	f000 f9b7 	bl	c00277c <_sign_report>
	_send_report_message();
 c00240e:	f000 f8f7 	bl	c002600 <_send_report_message>
	_clean_partial();
 c002412:	f7ff fe25 	bl	c002060 <_clean_partial>
	_read_serial_loop();
 c002416:	f7ff ff77 	bl	c002308 <_read_serial_loop>
	ti_reset_timer_counter(TIMER_INTERRUPT);
 c00241a:	4b0c      	ldr	r3, [pc, #48]	; (c00244c <CFA_time_interrupt_handler+0x5c>)
 c00241c:	681b      	ldr	r3, [r3, #0]
 c00241e:	2200      	movs	r2, #0
 c002420:	625a      	str	r2, [r3, #36]	; 0x24
	__HAL_RCC_TIM3_CLK_ENABLE();
 c002422:	4b08      	ldr	r3, [pc, #32]	; (c002444 <CFA_time_interrupt_handler+0x54>)
 c002424:	6d9b      	ldr	r3, [r3, #88]	; 0x58
 c002426:	4a07      	ldr	r2, [pc, #28]	; (c002444 <CFA_time_interrupt_handler+0x54>)
 c002428:	f043 0302 	orr.w	r3, r3, #2
 c00242c:	6593      	str	r3, [r2, #88]	; 0x58
 c00242e:	4b05      	ldr	r3, [pc, #20]	; (c002444 <CFA_time_interrupt_handler+0x54>)
 c002430:	6d9b      	ldr	r3, [r3, #88]	; 0x58
 c002432:	f003 0302 	and.w	r3, r3, #2
 c002436:	607b      	str	r3, [r7, #4]
 c002438:	687b      	ldr	r3, [r7, #4]
}
 c00243a:	bf00      	nop
 c00243c:	3708      	adds	r7, #8
 c00243e:	46bd      	mov	sp, r7
 c002440:	bd80      	pop	{r7, pc}
 c002442:	bf00      	nop
 c002444:	50021000 	.word	0x50021000
 c002448:	30000034 	.word	0x30000034
 c00244c:	30000708 	.word	0x30000708

0c002450 <_receive_challenge>:

/* -----------------------------  SENDING REPORT ------------------------------------ */

uint8_t  _receive_challenge(){
 c002450:	b580      	push	{r7, lr}
 c002452:	b09e      	sub	sp, #120	; 0x78
 c002454:	af02      	add	r7, sp, #8
	uint8_t chl[64];
//	uint8_t init_chal[] = BEGGINING_OF_CHALLANGE;

	SecureUartRx((uint8_t*)(&chl[0]), 1);
 c002456:	1d3b      	adds	r3, r7, #4
 c002458:	2101      	movs	r1, #1
 c00245a:	4618      	mov	r0, r3
 c00245c:	f001 fb96 	bl	c003b8c <SecureUartRx>
	receive_resp_start = HAL_GetTick();
 c002460:	f001 fc3c 	bl	c003cdc <HAL_GetTick>
 c002464:	4603      	mov	r3, r0
 c002466:	4a51      	ldr	r2, [pc, #324]	; (c0025ac <_receive_challenge+0x15c>)
 c002468:	6013      	str	r3, [r2, #0]
	SecureUartRx((uint8_t*)(&chl[1]), CHAL_SIZE-1);
 c00246a:	1d3b      	adds	r3, r7, #4
 c00246c:	3301      	adds	r3, #1
 c00246e:	213f      	movs	r1, #63	; 0x3f
 c002470:	4618      	mov	r0, r3
 c002472:	f001 fb8b 	bl	c003b8c <SecureUartRx>
	uint32_t recv_chal_stop = HAL_GetTick();
 c002476:	f001 fc31 	bl	c003cdc <HAL_GetTick>
 c00247a:	6638      	str	r0, [r7, #96]	; 0x60
	uint32_t recv_chal = recv_chal_stop - receive_resp_start;
 c00247c:	4b4b      	ldr	r3, [pc, #300]	; (c0025ac <_receive_challenge+0x15c>)
 c00247e:	681b      	ldr	r3, [r3, #0]
 c002480:	6e3a      	ldr	r2, [r7, #96]	; 0x60
 c002482:	1ad3      	subs	r3, r2, r3
 c002484:	65fb      	str	r3, [r7, #92]	; 0x5c
//	SecureUartTx(init_chal, COMMAND_SIZE); // echo for debug
//	SecureUartTx((uint8_t*)chl, 64);

	// read verifier signature
	uint32_t recv_sig_start = HAL_GetTick();
 c002486:	f001 fc29 	bl	c003cdc <HAL_GetTick>
 c00248a:	65b8      	str	r0, [r7, #88]	; 0x58
	SecureUartRx((uint8_t*)(&vrf_resp.signature), 32);
 c00248c:	2120      	movs	r1, #32
 c00248e:	4848      	ldr	r0, [pc, #288]	; (c0025b0 <_receive_challenge+0x160>)
 c002490:	f001 fb7c 	bl	c003b8c <SecureUartRx>
//	SecureUartTx((uint8_t*)(&vrf_resp.signature), SIGNATURE_SIZE_BYTES);
	uint32_t recv_sig_stop = HAL_GetTick();
 c002494:	f001 fc22 	bl	c003cdc <HAL_GetTick>
 c002498:	6578      	str	r0, [r7, #84]	; 0x54
	uint32_t recv_sig = recv_sig_stop - recv_sig_start;
 c00249a:	6d7a      	ldr	r2, [r7, #84]	; 0x54
 c00249c:	6dbb      	ldr	r3, [r7, #88]	; 0x58
 c00249e:	1ad3      	subs	r3, r2, r3
 c0024a0:	653b      	str	r3, [r7, #80]	; 0x50

	receive_resp_stop = HAL_GetTick();
 c0024a2:	f001 fc1b 	bl	c003cdc <HAL_GetTick>
 c0024a6:	4603      	mov	r3, r0
 c0024a8:	4a42      	ldr	r2, [pc, #264]	; (c0025b4 <_receive_challenge+0x164>)
 c0024aa:	6013      	str	r3, [r2, #0]
	receive_resp_time += receive_resp_stop-receive_resp_start;
 c0024ac:	4b41      	ldr	r3, [pc, #260]	; (c0025b4 <_receive_challenge+0x164>)
 c0024ae:	681a      	ldr	r2, [r3, #0]
 c0024b0:	4b3e      	ldr	r3, [pc, #248]	; (c0025ac <_receive_challenge+0x15c>)
 c0024b2:	681b      	ldr	r3, [r3, #0]
 c0024b4:	1ad2      	subs	r2, r2, r3
 c0024b6:	4b40      	ldr	r3, [pc, #256]	; (c0025b8 <_receive_challenge+0x168>)
 c0024b8:	681b      	ldr	r3, [r3, #0]
 c0024ba:	4413      	add	r3, r2
 c0024bc:	4a3e      	ldr	r2, [pc, #248]	; (c0025b8 <_receive_challenge+0x168>)
 c0024be:	6013      	str	r3, [r2, #0]

	verify_resp_start = HAL_GetTick();
 c0024c0:	f001 fc0c 	bl	c003cdc <HAL_GetTick>
 c0024c4:	4603      	mov	r3, r0
 c0024c6:	4a3d      	ldr	r2, [pc, #244]	; (c0025bc <_receive_challenge+0x16c>)
 c0024c8:	6013      	str	r3, [r2, #0]

	// Check chal is greater than prev chal
	int valid_next_chal = 1;
 c0024ca:	2301      	movs	r3, #1
 c0024cc:	66fb      	str	r3, [r7, #108]	; 0x6c
	unsigned int i;
	#if MODE == AUD
	for(i=0; i<CHAL_SIZE; i++){
 c0024ce:	2300      	movs	r3, #0
 c0024d0:	66bb      	str	r3, [r7, #104]	; 0x68
 c0024d2:	e00f      	b.n	c0024f4 <_receive_challenge+0xa4>
		if(chl[i] < cfa_engine_conf.challenge[i]){
 c0024d4:	1d3a      	adds	r2, r7, #4
 c0024d6:	6ebb      	ldr	r3, [r7, #104]	; 0x68
 c0024d8:	4413      	add	r3, r2
 c0024da:	781a      	ldrb	r2, [r3, #0]
 c0024dc:	4938      	ldr	r1, [pc, #224]	; (c0025c0 <_receive_challenge+0x170>)
 c0024de:	6ebb      	ldr	r3, [r7, #104]	; 0x68
 c0024e0:	440b      	add	r3, r1
 c0024e2:	3308      	adds	r3, #8
 c0024e4:	781b      	ldrb	r3, [r3, #0]
 c0024e6:	429a      	cmp	r2, r3
 c0024e8:	d201      	bcs.n	c0024ee <_receive_challenge+0x9e>
			valid_next_chal = 0;
 c0024ea:	2300      	movs	r3, #0
 c0024ec:	66fb      	str	r3, [r7, #108]	; 0x6c
	for(i=0; i<CHAL_SIZE; i++){
 c0024ee:	6ebb      	ldr	r3, [r7, #104]	; 0x68
 c0024f0:	3301      	adds	r3, #1
 c0024f2:	66bb      	str	r3, [r7, #104]	; 0x68
 c0024f4:	6ebb      	ldr	r3, [r7, #104]	; 0x68
 c0024f6:	2b3f      	cmp	r3, #63	; 0x3f
 c0024f8:	d9ec      	bls.n	c0024d4 <_receive_challenge+0x84>
		}
	}
	#endif

	_update_challenge(chl);
 c0024fa:	1d3b      	adds	r3, r7, #4
 c0024fc:	4618      	mov	r0, r3
 c0024fe:	f7ff fd55 	bl	c001fac <_update_challenge>

	// check verifier signature by sig = ECDSA(private_key, hash(report))
	// 1) get SHA256 hash over report (excluding buffer that holds signature)
	uint32_t response_size = CHAL_SIZE + 1 + HASH_SIZE_BYTES;
 c002502:	2361      	movs	r3, #97	; 0x61
 c002504:	64fb      	str	r3, [r7, #76]	; 0x4c
//	Hacl_SHA2_256_hash(response_hash, (uint8_t*)(&vrf_resp), response_size);
	// 2) verify signature of hash
//    curve = uECC_secp256r1();
//    int valid_sig =  uECC_verify(public_key, response_hash, HASH_SIZE_BYTES, vrf_resp.signature, curve);

	uint32_t hmac_start = HAL_GetTick();
 c002506:	f001 fbe9 	bl	c003cdc <HAL_GetTick>
 c00250a:	64b8      	str	r0, [r7, #72]	; 0x48
	#ifdef HASH_ENGINE
    HMAC_SHA_265((uint8_t*)(&vrf_resp), response_size, hash_output);
	#else
    hmac(hash_output, att_key, 32, (uint8_t*)(&vrf_resp), (uint32_t) response_size);
 c00250c:	4b2d      	ldr	r3, [pc, #180]	; (c0025c4 <_receive_challenge+0x174>)
 c00250e:	6819      	ldr	r1, [r3, #0]
 c002510:	6cfb      	ldr	r3, [r7, #76]	; 0x4c
 c002512:	9300      	str	r3, [sp, #0]
 c002514:	4b2c      	ldr	r3, [pc, #176]	; (c0025c8 <_receive_challenge+0x178>)
 c002516:	2220      	movs	r2, #32
 c002518:	482c      	ldr	r0, [pc, #176]	; (c0025cc <_receive_challenge+0x17c>)
 c00251a:	f7fe ff46 	bl	c0013aa <hmac>
	#endif
    uint32_t hmac_stop = HAL_GetTick();
 c00251e:	f001 fbdd 	bl	c003cdc <HAL_GetTick>
 c002522:	6478      	str	r0, [r7, #68]	; 0x44
    hmac_time = hmac_stop-hmac_start;
 c002524:	6c7a      	ldr	r2, [r7, #68]	; 0x44
 c002526:	6cbb      	ldr	r3, [r7, #72]	; 0x48
 c002528:	1ad3      	subs	r3, r2, r3
 c00252a:	4a29      	ldr	r2, [pc, #164]	; (c0025d0 <_receive_challenge+0x180>)
 c00252c:	6013      	str	r3, [r2, #0]

    int valid_sig = 1;
 c00252e:	2301      	movs	r3, #1
 c002530:	667b      	str	r3, [r7, #100]	; 0x64
    for(i=0; i<32; i++){
 c002532:	2300      	movs	r3, #0
 c002534:	66bb      	str	r3, [r7, #104]	; 0x68
 c002536:	e00f      	b.n	c002558 <_receive_challenge+0x108>
    	if(hash_output[i] != vrf_resp.signature[i]){
 c002538:	4a24      	ldr	r2, [pc, #144]	; (c0025cc <_receive_challenge+0x17c>)
 c00253a:	6ebb      	ldr	r3, [r7, #104]	; 0x68
 c00253c:	4413      	add	r3, r2
 c00253e:	781a      	ldrb	r2, [r3, #0]
 c002540:	4921      	ldr	r1, [pc, #132]	; (c0025c8 <_receive_challenge+0x178>)
 c002542:	6ebb      	ldr	r3, [r7, #104]	; 0x68
 c002544:	440b      	add	r3, r1
 c002546:	3341      	adds	r3, #65	; 0x41
 c002548:	781b      	ldrb	r3, [r3, #0]
 c00254a:	429a      	cmp	r2, r3
 c00254c:	d001      	beq.n	c002552 <_receive_challenge+0x102>
    		valid_sig = 0;
 c00254e:	2300      	movs	r3, #0
 c002550:	667b      	str	r3, [r7, #100]	; 0x64
    for(i=0; i<32; i++){
 c002552:	6ebb      	ldr	r3, [r7, #104]	; 0x68
 c002554:	3301      	adds	r3, #1
 c002556:	66bb      	str	r3, [r7, #104]	; 0x68
 c002558:	6ebb      	ldr	r3, [r7, #104]	; 0x68
 c00255a:	2b1f      	cmp	r3, #31
 c00255c:	d9ec      	bls.n	c002538 <_receive_challenge+0xe8>
    	}
    }

    vrf_resp.verify_result = (valid_next_chal & valid_sig);
 c00255e:	6efb      	ldr	r3, [r7, #108]	; 0x6c
 c002560:	b25a      	sxtb	r2, r3
 c002562:	6e7b      	ldr	r3, [r7, #100]	; 0x64
 c002564:	b25b      	sxtb	r3, r3
 c002566:	4013      	ands	r3, r2
 c002568:	b25b      	sxtb	r3, r3
 c00256a:	b2da      	uxtb	r2, r3
 c00256c:	4b16      	ldr	r3, [pc, #88]	; (c0025c8 <_receive_challenge+0x178>)
 c00256e:	f883 2040 	strb.w	r2, [r3, #64]	; 0x40

    verify_resp_stop = HAL_GetTick();
 c002572:	f001 fbb3 	bl	c003cdc <HAL_GetTick>
 c002576:	4603      	mov	r3, r0
 c002578:	4a16      	ldr	r2, [pc, #88]	; (c0025d4 <_receive_challenge+0x184>)
 c00257a:	6013      	str	r3, [r2, #0]
    verify_resp_time += verify_resp_stop-verify_resp_start;
 c00257c:	4b15      	ldr	r3, [pc, #84]	; (c0025d4 <_receive_challenge+0x184>)
 c00257e:	681a      	ldr	r2, [r3, #0]
 c002580:	4b0e      	ldr	r3, [pc, #56]	; (c0025bc <_receive_challenge+0x16c>)
 c002582:	681b      	ldr	r3, [r3, #0]
 c002584:	1ad2      	subs	r2, r2, r3
 c002586:	4b14      	ldr	r3, [pc, #80]	; (c0025d8 <_receive_challenge+0x188>)
 c002588:	681b      	ldr	r3, [r3, #0]
 c00258a:	4413      	add	r3, r2
 c00258c:	4a12      	ldr	r2, [pc, #72]	; (c0025d8 <_receive_challenge+0x188>)
 c00258e:	6013      	str	r3, [r2, #0]
    recv_verify_response_time = receive_resp_time + verify_resp_time;
 c002590:	4b09      	ldr	r3, [pc, #36]	; (c0025b8 <_receive_challenge+0x168>)
 c002592:	681a      	ldr	r2, [r3, #0]
 c002594:	4b10      	ldr	r3, [pc, #64]	; (c0025d8 <_receive_challenge+0x188>)
 c002596:	681b      	ldr	r3, [r3, #0]
 c002598:	4413      	add	r3, r2
 c00259a:	4a10      	ldr	r2, [pc, #64]	; (c0025dc <_receive_challenge+0x18c>)
 c00259c:	6013      	str	r3, [r2, #0]

	return vrf_resp.verify_result;
 c00259e:	4b0a      	ldr	r3, [pc, #40]	; (c0025c8 <_receive_challenge+0x178>)
 c0025a0:	f893 3040 	ldrb.w	r3, [r3, #64]	; 0x40
}
 c0025a4:	4618      	mov	r0, r3
 c0025a6:	3770      	adds	r7, #112	; 0x70
 c0025a8:	46bd      	mov	sp, r7
 c0025aa:	bd80      	pop	{r7, pc}
 c0025ac:	30000670 	.word	0x30000670
 c0025b0:	30000585 	.word	0x30000585
 c0025b4:	30000674 	.word	0x30000674
 c0025b8:	3000065c 	.word	0x3000065c
 c0025bc:	30000678 	.word	0x30000678
 c0025c0:	300004b8 	.word	0x300004b8
 c0025c4:	30000020 	.word	0x30000020
 c0025c8:	30000544 	.word	0x30000544
 c0025cc:	30000630 	.word	0x30000630
 c0025d0:	30000680 	.word	0x30000680
 c0025d4:	3000067c 	.word	0x3000067c
 c0025d8:	30000660 	.word	0x30000660
 c0025dc:	30000664 	.word	0x30000664

0c0025e0 <_receive_request>:

void _receive_request(int size,uint8_t* read_char){
 c0025e0:	b580      	push	{r7, lr}
 c0025e2:	b082      	sub	sp, #8
 c0025e4:	af00      	add	r7, sp, #0
 c0025e6:	6078      	str	r0, [r7, #4]
 c0025e8:	6039      	str	r1, [r7, #0]
	SecureUartRx(read_char, size);
 c0025ea:	687b      	ldr	r3, [r7, #4]
 c0025ec:	b29b      	uxth	r3, r3
 c0025ee:	4619      	mov	r1, r3
 c0025f0:	6838      	ldr	r0, [r7, #0]
 c0025f2:	f001 facb 	bl	c003b8c <SecureUartRx>
	return;
 c0025f6:	bf00      	nop
}
 c0025f8:	3708      	adds	r7, #8
 c0025fa:	46bd      	mov	sp, r7
 c0025fc:	bd80      	pop	{r7, pc}
	...

0c002600 <_send_report_message>:

void _send_report_message(){
 c002600:	b580      	push	{r7, lr}
 c002602:	b084      	sub	sp, #16
 c002604:	af00      	add	r7, sp, #0
	send_report_start = HAL_GetTick();
 c002606:	f001 fb69 	bl	c003cdc <HAL_GetTick>
 c00260a:	4603      	mov	r3, r0
 c00260c:	4a1b      	ldr	r2, [pc, #108]	; (c00267c <_send_report_message+0x7c>)
 c00260e:	6013      	str	r3, [r2, #0]
	uint8_t init_report[] = BEGGINING_OF_REPORT;
 c002610:	4a1b      	ldr	r2, [pc, #108]	; (c002680 <_send_report_message+0x80>)
 c002612:	463b      	mov	r3, r7
 c002614:	e892 0003 	ldmia.w	r2, {r0, r1}
 c002618:	6018      	str	r0, [r3, #0]
 c00261a:	3304      	adds	r3, #4
 c00261c:	7019      	strb	r1, [r3, #0]
	SecureUartTx(init_report, COMMAND_SIZE);
 c00261e:	463b      	mov	r3, r7
 c002620:	2104      	movs	r1, #4
 c002622:	4618      	mov	r0, r3
 c002624:	f001 fa9e 	bl	c003b64 <SecureUartTx>
	#if MODE == SENSE_APP
	SecureUartTx((uint8_t *)(&output_data), 4);
	SecureUartTx(report_secure.signature, SIGNATURE_SIZE_BYTES);
	#else
	// CFA or TRACES
	SecureUartTx(report_secure.signature, SIGNATURE_SIZE_BYTES+2);
 c002628:	2142      	movs	r1, #66	; 0x42
 c00262a:	4816      	ldr	r0, [pc, #88]	; (c002684 <_send_report_message+0x84>)
 c00262c:	f001 fa9a 	bl	c003b64 <SecureUartTx>
	int data_size = 2 + 4*report_secure.num_CF_Log_size;
 c002630:	4b14      	ldr	r3, [pc, #80]	; (c002684 <_send_report_message+0x84>)
 c002632:	f8b3 3062 	ldrh.w	r3, [r3, #98]	; 0x62
 c002636:	009b      	lsls	r3, r3, #2
 c002638:	3302      	adds	r3, #2
 c00263a:	60fb      	str	r3, [r7, #12]
	uint8_t * report_addr = (uint8_t*)(&(report_secure.num_CF_Log_size));
 c00263c:	4b12      	ldr	r3, [pc, #72]	; (c002688 <_send_report_message+0x88>)
 c00263e:	60bb      	str	r3, [r7, #8]
	SecureUartTx(report_addr, data_size);
 c002640:	68fb      	ldr	r3, [r7, #12]
 c002642:	b29b      	uxth	r3, r3
 c002644:	4619      	mov	r1, r3
 c002646:	68b8      	ldr	r0, [r7, #8]
 c002648:	f001 fa8c 	bl	c003b64 <SecureUartTx>
	#endif
	send_report_stop = HAL_GetTick();
 c00264c:	f001 fb46 	bl	c003cdc <HAL_GetTick>
 c002650:	4603      	mov	r3, r0
 c002652:	4a0e      	ldr	r2, [pc, #56]	; (c00268c <_send_report_message+0x8c>)
 c002654:	6013      	str	r3, [r2, #0]
	send_report_time += send_report_stop - send_report_start;
 c002656:	4b0d      	ldr	r3, [pc, #52]	; (c00268c <_send_report_message+0x8c>)
 c002658:	681a      	ldr	r2, [r3, #0]
 c00265a:	4b08      	ldr	r3, [pc, #32]	; (c00267c <_send_report_message+0x7c>)
 c00265c:	681b      	ldr	r3, [r3, #0]
 c00265e:	1ad2      	subs	r2, r2, r3
 c002660:	4b0b      	ldr	r3, [pc, #44]	; (c002690 <_send_report_message+0x90>)
 c002662:	681b      	ldr	r3, [r3, #0]
 c002664:	4413      	add	r3, r2
 c002666:	4a0a      	ldr	r2, [pc, #40]	; (c002690 <_send_report_message+0x90>)
 c002668:	6013      	str	r3, [r2, #0]

	// timing for debug
	SecureUartTx((uint8_t *)(&send_report_time), 4);
 c00266a:	2104      	movs	r1, #4
 c00266c:	4808      	ldr	r0, [pc, #32]	; (c002690 <_send_report_message+0x90>)
 c00266e:	f001 fa79 	bl	c003b64 <SecureUartTx>
}
 c002672:	bf00      	nop
 c002674:	3710      	adds	r7, #16
 c002676:	46bd      	mov	sp, r7
 c002678:	bd80      	pop	{r7, pc}
 c00267a:	bf00      	nop
 c00267c:	30000684 	.word	0x30000684
 c002680:	0c007d18 	.word	0x0c007d18
 c002684:	30000034 	.word	0x30000034
 c002688:	30000096 	.word	0x30000096
 c00268c:	30000688 	.word	0x30000688
 c002690:	30000658 	.word	0x30000658

0c002694 <_send_report>:

uint32_t compute_send_report_time;
uint32_t compute_send_report_start;
uint32_t compute_send_report_stop;
void _send_report(){
 c002694:	b580      	push	{r7, lr}
 c002696:	af00      	add	r7, sp, #0
	_deactivate_timer_interrupt();
 c002698:	f7ff fe9c 	bl	c0023d4 <_deactivate_timer_interrupt>
	report_secure.number_of_logs_sent ++;
 c00269c:	4b1f      	ldr	r3, [pc, #124]	; (c00271c <_send_report+0x88>)
 c00269e:	f8b3 3464 	ldrh.w	r3, [r3, #1124]	; 0x464
 c0026a2:	3301      	adds	r3, #1
 c0026a4:	b29a      	uxth	r2, r3
 c0026a6:	4b1d      	ldr	r3, [pc, #116]	; (c00271c <_send_report+0x88>)
 c0026a8:	f8a3 2464 	strh.w	r2, [r3, #1124]	; 0x464
	if (cfa_engine_conf.attestation_status == COMPLETE){
 c0026ac:	4b1c      	ldr	r3, [pc, #112]	; (c002720 <_send_report+0x8c>)
 c0026ae:	791b      	ldrb	r3, [r3, #4]
 c0026b0:	2b02      	cmp	r3, #2
 c0026b2:	d112      	bne.n	c0026da <_send_report+0x46>
		report_secure.isFinal = FINAL_REPORT;
 c0026b4:	4b19      	ldr	r3, [pc, #100]	; (c00271c <_send_report+0x88>)
 c0026b6:	2246      	movs	r2, #70	; 0x46
 c0026b8:	f8a3 2040 	strh.w	r2, [r3, #64]	; 0x40
		compute_send_report_start = HAL_GetTick();
 c0026bc:	f001 fb0e 	bl	c003cdc <HAL_GetTick>
 c0026c0:	4603      	mov	r3, r0
 c0026c2:	4a18      	ldr	r2, [pc, #96]	; (c002724 <_send_report+0x90>)
 c0026c4:	6013      	str	r3, [r2, #0]
		_sign_report(); // must come after isFinal is set since signs all report data
 c0026c6:	f000 f859 	bl	c00277c <_sign_report>
		_send_report_message();
 c0026ca:	f7ff ff99 	bl	c002600 <_send_report_message>
		compute_send_report_stop = HAL_GetTick();
 c0026ce:	f001 fb05 	bl	c003cdc <HAL_GetTick>
 c0026d2:	4603      	mov	r3, r0
 c0026d4:	4a14      	ldr	r2, [pc, #80]	; (c002728 <_send_report+0x94>)
 c0026d6:	6013      	str	r3, [r2, #0]
 c0026d8:	e017      	b.n	c00270a <_send_report+0x76>
	}
	else if(cfa_engine_conf.attestation_status == WAITING_PARTIAL){
 c0026da:	4b11      	ldr	r3, [pc, #68]	; (c002720 <_send_report+0x8c>)
 c0026dc:	791b      	ldrb	r3, [r3, #4]
 c0026de:	2b04      	cmp	r3, #4
 c0026e0:	d113      	bne.n	c00270a <_send_report+0x76>
		report_secure.isFinal = PARTIAL_REPORT;
 c0026e2:	4b0e      	ldr	r3, [pc, #56]	; (c00271c <_send_report+0x88>)
 c0026e4:	2250      	movs	r2, #80	; 0x50
 c0026e6:	f8a3 2040 	strh.w	r2, [r3, #64]	; 0x40
		compute_send_report_start = HAL_GetTick();
 c0026ea:	f001 faf7 	bl	c003cdc <HAL_GetTick>
 c0026ee:	4603      	mov	r3, r0
 c0026f0:	4a0c      	ldr	r2, [pc, #48]	; (c002724 <_send_report+0x90>)
 c0026f2:	6013      	str	r3, [r2, #0]
		_sign_report();
 c0026f4:	f000 f842 	bl	c00277c <_sign_report>
		_send_report_message();
 c0026f8:	f7ff ff82 	bl	c002600 <_send_report_message>
		_clean_partial();
 c0026fc:	f7ff fcb0 	bl	c002060 <_clean_partial>
		compute_send_report_stop = HAL_GetTick();
 c002700:	f001 faec 	bl	c003cdc <HAL_GetTick>
 c002704:	4603      	mov	r3, r0
 c002706:	4a08      	ldr	r2, [pc, #32]	; (c002728 <_send_report+0x94>)
 c002708:	6013      	str	r3, [r2, #0]
	}

	compute_send_report_time = compute_send_report_stop - compute_send_report_start;
 c00270a:	4b07      	ldr	r3, [pc, #28]	; (c002728 <_send_report+0x94>)
 c00270c:	681a      	ldr	r2, [r3, #0]
 c00270e:	4b05      	ldr	r3, [pc, #20]	; (c002724 <_send_report+0x90>)
 c002710:	681b      	ldr	r3, [r3, #0]
 c002712:	1ad3      	subs	r3, r2, r3
 c002714:	4a05      	ldr	r2, [pc, #20]	; (c00272c <_send_report+0x98>)
 c002716:	6013      	str	r3, [r2, #0]
	return;
 c002718:	bf00      	nop
}
 c00271a:	bd80      	pop	{r7, pc}
 c00271c:	30000034 	.word	0x30000034
 c002720:	300004b8 	.word	0x300004b8
 c002724:	300006a0 	.word	0x300006a0
 c002728:	300006a4 	.word	0x300006a4
 c00272c:	3000069c 	.word	0x3000069c

0c002730 <_attest_memory>:

/* ----------------------------- CRYPTO-OPERATIONS --------------------------------- */
uint32_t time_hash_memory;
uint32_t time_hash_memory_start;
uint32_t time_hash_memory_end;
void _attest_memory(){
 c002730:	b580      	push	{r7, lr}
 c002732:	af00      	add	r7, sp, #0
	time_hash_memory_start = HAL_GetTick();
 c002734:	f001 fad2 	bl	c003cdc <HAL_GetTick>
 c002738:	4603      	mov	r3, r0
 c00273a:	4a0b      	ldr	r2, [pc, #44]	; (c002768 <_attest_memory+0x38>)
 c00273c:	6013      	str	r3, [r2, #0]
	// Compute sigle hash of non-secure memory
	Hacl_SHA2_256_hash(report_secure.mem_hash, (uint8_t*)(NONSECURE_FLASH_START), NONSECURE_FLASH_SIZE);
 c00273e:	f640 6258 	movw	r2, #3672	; 0xe58
 c002742:	490a      	ldr	r1, [pc, #40]	; (c00276c <_attest_memory+0x3c>)
 c002744:	480a      	ldr	r0, [pc, #40]	; (c002770 <_attest_memory+0x40>)
 c002746:	f7ff fbfa 	bl	c001f3e <Hacl_SHA2_256_hash>
	time_hash_memory_end = HAL_GetTick();
 c00274a:	f001 fac7 	bl	c003cdc <HAL_GetTick>
 c00274e:	4603      	mov	r3, r0
 c002750:	4a08      	ldr	r2, [pc, #32]	; (c002774 <_attest_memory+0x44>)
 c002752:	6013      	str	r3, [r2, #0]
	time_hash_memory = time_hash_memory_end-time_hash_memory_start;
 c002754:	4b07      	ldr	r3, [pc, #28]	; (c002774 <_attest_memory+0x44>)
 c002756:	681a      	ldr	r2, [r3, #0]
 c002758:	4b03      	ldr	r3, [pc, #12]	; (c002768 <_attest_memory+0x38>)
 c00275a:	681b      	ldr	r3, [r3, #0]
 c00275c:	1ad3      	subs	r3, r2, r3
 c00275e:	4a06      	ldr	r2, [pc, #24]	; (c002778 <_attest_memory+0x48>)
 c002760:	6013      	str	r3, [r2, #0]
}
 c002762:	bf00      	nop
 c002764:	bd80      	pop	{r7, pc}
 c002766:	bf00      	nop
 c002768:	300006ac 	.word	0x300006ac
 c00276c:	080401f8 	.word	0x080401f8
 c002770:	30000076 	.word	0x30000076
 c002774:	300006b0 	.word	0x300006b0
 c002778:	300006a8 	.word	0x300006a8

0c00277c <_sign_report>:


void _sign_report(){
 c00277c:	b580      	push	{r7, lr}
 c00277e:	b084      	sub	sp, #16
 c002780:	af02      	add	r7, sp, #8
	time_sign_report_start = HAL_GetTick();
 c002782:	f001 faab 	bl	c003cdc <HAL_GetTick>
 c002786:	4603      	mov	r3, r0
 c002788:	4a11      	ldr	r2, [pc, #68]	; (c0027d0 <_sign_report+0x54>)
 c00278a:	6013      	str	r3, [r2, #0]
	#else
	Hacl_SHA2_256_hash(report_hash, (uint8_t*)(&output_data), report_size);
	#endif
	#else
	// CFA or TRACES
	uint32_t report_size = 2 + HASH_SIZE_BYTES + 2 + 4*report_secure.num_CF_Log_size;
 c00278c:	4b11      	ldr	r3, [pc, #68]	; (c0027d4 <_sign_report+0x58>)
 c00278e:	f8b3 3062 	ldrh.w	r3, [r3, #98]	; 0x62
 c002792:	3309      	adds	r3, #9
 c002794:	009b      	lsls	r3, r3, #2
 c002796:	607b      	str	r3, [r7, #4]
//	Hacl_SHA2_256_hash(report_hash, (uint8_t*)(&report_secure.isFinal), report_size);

	#ifdef HASH_ENGINE
	HMAC_SHA_265((uint8_t*)(&report_secure.isFinal), report_size, report_secure.signature);
	#else
	hmac(report_secure.signature, att_key, 32, (uint8_t*)(&report_secure.isFinal), (uint32_t) report_size);
 c002798:	4b0f      	ldr	r3, [pc, #60]	; (c0027d8 <_sign_report+0x5c>)
 c00279a:	6819      	ldr	r1, [r3, #0]
 c00279c:	687b      	ldr	r3, [r7, #4]
 c00279e:	9300      	str	r3, [sp, #0]
 c0027a0:	4b0e      	ldr	r3, [pc, #56]	; (c0027dc <_sign_report+0x60>)
 c0027a2:	2220      	movs	r2, #32
 c0027a4:	480b      	ldr	r0, [pc, #44]	; (c0027d4 <_sign_report+0x58>)
 c0027a6:	f7fe fe00 	bl	c0013aa <hmac>
//
//	// sign hash
//    curve = uECC_secp256r1();
//    int t =  uECC_sign(private_key, report_hash, HASH_SIZE_BYTES, report_secure.signature, curve);

    time_sign_report_end = HAL_GetTick();
 c0027aa:	f001 fa97 	bl	c003cdc <HAL_GetTick>
 c0027ae:	4603      	mov	r3, r0
 c0027b0:	4a0b      	ldr	r2, [pc, #44]	; (c0027e0 <_sign_report+0x64>)
 c0027b2:	6013      	str	r3, [r2, #0]
	time_sign_report += time_sign_report_end-time_sign_report_start;
 c0027b4:	4b0a      	ldr	r3, [pc, #40]	; (c0027e0 <_sign_report+0x64>)
 c0027b6:	681a      	ldr	r2, [r3, #0]
 c0027b8:	4b05      	ldr	r3, [pc, #20]	; (c0027d0 <_sign_report+0x54>)
 c0027ba:	681b      	ldr	r3, [r3, #0]
 c0027bc:	1ad2      	subs	r2, r2, r3
 c0027be:	4b09      	ldr	r3, [pc, #36]	; (c0027e4 <_sign_report+0x68>)
 c0027c0:	681b      	ldr	r3, [r3, #0]
 c0027c2:	4413      	add	r3, r2
 c0027c4:	4a07      	ldr	r2, [pc, #28]	; (c0027e4 <_sign_report+0x68>)
 c0027c6:	6013      	str	r3, [r2, #0]
}
 c0027c8:	bf00      	nop
 c0027ca:	3708      	adds	r7, #8
 c0027cc:	46bd      	mov	sp, r7
 c0027ce:	bd80      	pop	{r7, pc}
 c0027d0:	3000068c 	.word	0x3000068c
 c0027d4:	30000034 	.word	0x30000034
 c0027d8:	30000020 	.word	0x30000020
 c0027dc:	30000074 	.word	0x30000074
 c0027e0:	30000690 	.word	0x30000690
 c0027e4:	30000654 	.word	0x30000654

0c0027e8 <CFA_ENGINE_new_log_entry>:
uint8_t loop_detect = 0;
uint16_t loop_counter = 1;
uint32_t prev_entry;

//void CFA_ENGINE_new_log_entry(CFA_ENTRY value){
void CFA_ENGINE_new_log_entry(uint32_t value){
 c0027e8:	b580      	push	{r7, lr}
 c0027ea:	b082      	sub	sp, #8
 c0027ec:	af00      	add	r7, sp, #0
 c0027ee:	6078      	str	r0, [r7, #4]
	if(report_secure.num_CF_Log_size >= MAX_CF_LOG_SIZE){
 c0027f0:	4b55      	ldr	r3, [pc, #340]	; (c002948 <CFA_ENGINE_new_log_entry+0x160>)
 c0027f2:	f8b3 3062 	ldrh.w	r3, [r3, #98]	; 0x62
 c0027f6:	2bff      	cmp	r3, #255	; 0xff
 c0027f8:	d932      	bls.n	c002860 <CFA_ENGINE_new_log_entry+0x78>
		end = HAL_GetTick();
 c0027fa:	f001 fa6f 	bl	c003cdc <HAL_GetTick>
 c0027fe:	4603      	mov	r3, r0
 c002800:	4a52      	ldr	r2, [pc, #328]	; (c00294c <CFA_ENGINE_new_log_entry+0x164>)
 c002802:	6013      	str	r3, [r2, #0]
		app_exec_time += end - start;
 c002804:	4b51      	ldr	r3, [pc, #324]	; (c00294c <CFA_ENGINE_new_log_entry+0x164>)
 c002806:	681a      	ldr	r2, [r3, #0]
 c002808:	4b51      	ldr	r3, [pc, #324]	; (c002950 <CFA_ENGINE_new_log_entry+0x168>)
 c00280a:	681b      	ldr	r3, [r3, #0]
 c00280c:	1ad2      	subs	r2, r2, r3
 c00280e:	4b51      	ldr	r3, [pc, #324]	; (c002954 <CFA_ENGINE_new_log_entry+0x16c>)
 c002810:	681b      	ldr	r3, [r3, #0]
 c002812:	4413      	add	r3, r2
 c002814:	4a4f      	ldr	r2, [pc, #316]	; (c002954 <CFA_ENGINE_new_log_entry+0x16c>)
 c002816:	6013      	str	r3, [r2, #0]
		cfa_engine_conf.attestation_status = WAITING_PARTIAL;
 c002818:	4b4f      	ldr	r3, [pc, #316]	; (c002958 <CFA_ENGINE_new_log_entry+0x170>)
 c00281a:	2204      	movs	r2, #4
 c00281c:	711a      	strb	r2, [r3, #4]
		_send_report();
 c00281e:	f7ff ff39 	bl	c002694 <_send_report>

		#if CFLOG_TYPE == CFLOG_RAM
		report_secure.CFLog[report_secure.num_CF_Log_size] = value;
 c002822:	4b49      	ldr	r3, [pc, #292]	; (c002948 <CFA_ENGINE_new_log_entry+0x160>)
 c002824:	f8b3 3062 	ldrh.w	r3, [r3, #98]	; 0x62
 c002828:	4a47      	ldr	r2, [pc, #284]	; (c002948 <CFA_ENGINE_new_log_entry+0x160>)
 c00282a:	3318      	adds	r3, #24
 c00282c:	009b      	lsls	r3, r3, #2
 c00282e:	4413      	add	r3, r2
 c002830:	687a      	ldr	r2, [r7, #4]
 c002832:	605a      	str	r2, [r3, #4]
		uint32_t addr = (uint32_t)(&FLASH_CFLog[report_secure.num_CF_Log_size]);
//		update_flash(addr, value);
		FLASH_CFLog[report_secure.num_CF_Log_size] = value;
		#endif

		report_secure.num_CF_Log_size++;
 c002834:	4b44      	ldr	r3, [pc, #272]	; (c002948 <CFA_ENGINE_new_log_entry+0x160>)
 c002836:	f8b3 3062 	ldrh.w	r3, [r3, #98]	; 0x62
 c00283a:	3301      	adds	r3, #1
 c00283c:	b29a      	uxth	r2, r3
 c00283e:	4b42      	ldr	r3, [pc, #264]	; (c002948 <CFA_ENGINE_new_log_entry+0x160>)
 c002840:	f8a3 2062 	strh.w	r2, [r3, #98]	; 0x62
		cfa_engine_conf.log_counter++;
 c002844:	4b44      	ldr	r3, [pc, #272]	; (c002958 <CFA_ENGINE_new_log_entry+0x170>)
 c002846:	88db      	ldrh	r3, [r3, #6]
 c002848:	3301      	adds	r3, #1
 c00284a:	b29a      	uxth	r2, r3
 c00284c:	4b42      	ldr	r3, [pc, #264]	; (c002958 <CFA_ENGINE_new_log_entry+0x170>)
 c00284e:	80da      	strh	r2, [r3, #6]
		_read_serial_loop();
 c002850:	f7ff fd5a 	bl	c002308 <_read_serial_loop>
		start = HAL_GetTick();
 c002854:	f001 fa42 	bl	c003cdc <HAL_GetTick>
 c002858:	4603      	mov	r3, r0
 c00285a:	4a3d      	ldr	r2, [pc, #244]	; (c002950 <CFA_ENGINE_new_log_entry+0x168>)
 c00285c:	6013      	str	r3, [r2, #0]

			cfa_engine_conf.log_counter++;
			report_secure.num_CF_Log_size++;
		}
	}
	return;
 c00285e:	e070      	b.n	c002942 <CFA_ENGINE_new_log_entry+0x15a>
		if(report_secure.num_CF_Log_size == MAX_CF_LOG_SIZE)
 c002860:	4b39      	ldr	r3, [pc, #228]	; (c002948 <CFA_ENGINE_new_log_entry+0x160>)
 c002862:	f8b3 3062 	ldrh.w	r3, [r3, #98]	; 0x62
 c002866:	f5b3 7f80 	cmp.w	r3, #256	; 0x100
 c00286a:	d103      	bne.n	c002874 <CFA_ENGINE_new_log_entry+0x8c>
			loop_detect = loop_detect;
 c00286c:	4b3b      	ldr	r3, [pc, #236]	; (c00295c <CFA_ENGINE_new_log_entry+0x174>)
 c00286e:	781a      	ldrb	r2, [r3, #0]
 c002870:	4b3a      	ldr	r3, [pc, #232]	; (c00295c <CFA_ENGINE_new_log_entry+0x174>)
 c002872:	701a      	strb	r2, [r3, #0]
		if(report_secure.num_CF_Log_size != 0 && report_secure.CFLog[report_secure.num_CF_Log_size - 1] == value){
 c002874:	4b34      	ldr	r3, [pc, #208]	; (c002948 <CFA_ENGINE_new_log_entry+0x160>)
 c002876:	f8b3 3062 	ldrh.w	r3, [r3, #98]	; 0x62
 c00287a:	2b00      	cmp	r3, #0
 c00287c:	d022      	beq.n	c0028c4 <CFA_ENGINE_new_log_entry+0xdc>
 c00287e:	4b32      	ldr	r3, [pc, #200]	; (c002948 <CFA_ENGINE_new_log_entry+0x160>)
 c002880:	f8b3 3062 	ldrh.w	r3, [r3, #98]	; 0x62
 c002884:	3b01      	subs	r3, #1
 c002886:	4a30      	ldr	r2, [pc, #192]	; (c002948 <CFA_ENGINE_new_log_entry+0x160>)
 c002888:	3318      	adds	r3, #24
 c00288a:	009b      	lsls	r3, r3, #2
 c00288c:	4413      	add	r3, r2
 c00288e:	685b      	ldr	r3, [r3, #4]
 c002890:	687a      	ldr	r2, [r7, #4]
 c002892:	429a      	cmp	r2, r3
 c002894:	d116      	bne.n	c0028c4 <CFA_ENGINE_new_log_entry+0xdc>
			if (loop_detect == 0){
 c002896:	4b31      	ldr	r3, [pc, #196]	; (c00295c <CFA_ENGINE_new_log_entry+0x174>)
 c002898:	781b      	ldrb	r3, [r3, #0]
 c00289a:	2b00      	cmp	r3, #0
 c00289c:	d107      	bne.n	c0028ae <CFA_ENGINE_new_log_entry+0xc6>
				loop_detect ^= 1;
 c00289e:	4b2f      	ldr	r3, [pc, #188]	; (c00295c <CFA_ENGINE_new_log_entry+0x174>)
 c0028a0:	781b      	ldrb	r3, [r3, #0]
 c0028a2:	f083 0301 	eor.w	r3, r3, #1
 c0028a6:	b2da      	uxtb	r2, r3
 c0028a8:	4b2c      	ldr	r3, [pc, #176]	; (c00295c <CFA_ENGINE_new_log_entry+0x174>)
 c0028aa:	701a      	strb	r2, [r3, #0]
			if (loop_detect == 0){
 c0028ac:	e047      	b.n	c00293e <CFA_ENGINE_new_log_entry+0x156>
			} else if (loop_detect == 1){
 c0028ae:	4b2b      	ldr	r3, [pc, #172]	; (c00295c <CFA_ENGINE_new_log_entry+0x174>)
 c0028b0:	781b      	ldrb	r3, [r3, #0]
 c0028b2:	2b01      	cmp	r3, #1
 c0028b4:	d143      	bne.n	c00293e <CFA_ENGINE_new_log_entry+0x156>
				loop_counter++;
 c0028b6:	4b2a      	ldr	r3, [pc, #168]	; (c002960 <CFA_ENGINE_new_log_entry+0x178>)
 c0028b8:	881b      	ldrh	r3, [r3, #0]
 c0028ba:	3301      	adds	r3, #1
 c0028bc:	b29a      	uxth	r2, r3
 c0028be:	4b28      	ldr	r3, [pc, #160]	; (c002960 <CFA_ENGINE_new_log_entry+0x178>)
 c0028c0:	801a      	strh	r2, [r3, #0]
			if (loop_detect == 0){
 c0028c2:	e03c      	b.n	c00293e <CFA_ENGINE_new_log_entry+0x156>
			if(loop_detect == 1){
 c0028c4:	4b25      	ldr	r3, [pc, #148]	; (c00295c <CFA_ENGINE_new_log_entry+0x174>)
 c0028c6:	781b      	ldrb	r3, [r3, #0]
 c0028c8:	2b01      	cmp	r3, #1
 c0028ca:	d120      	bne.n	c00290e <CFA_ENGINE_new_log_entry+0x126>
					report_secure.CFLog[report_secure.num_CF_Log_size] = (0xffff0000 + loop_counter);
 c0028cc:	4b24      	ldr	r3, [pc, #144]	; (c002960 <CFA_ENGINE_new_log_entry+0x178>)
 c0028ce:	881b      	ldrh	r3, [r3, #0]
 c0028d0:	461a      	mov	r2, r3
 c0028d2:	4b1d      	ldr	r3, [pc, #116]	; (c002948 <CFA_ENGINE_new_log_entry+0x160>)
 c0028d4:	f8b3 3062 	ldrh.w	r3, [r3, #98]	; 0x62
 c0028d8:	f5a2 3280 	sub.w	r2, r2, #65536	; 0x10000
 c0028dc:	491a      	ldr	r1, [pc, #104]	; (c002948 <CFA_ENGINE_new_log_entry+0x160>)
 c0028de:	3318      	adds	r3, #24
 c0028e0:	009b      	lsls	r3, r3, #2
 c0028e2:	440b      	add	r3, r1
 c0028e4:	605a      	str	r2, [r3, #4]
				loop_detect = 0;
 c0028e6:	4b1d      	ldr	r3, [pc, #116]	; (c00295c <CFA_ENGINE_new_log_entry+0x174>)
 c0028e8:	2200      	movs	r2, #0
 c0028ea:	701a      	strb	r2, [r3, #0]
				cfa_engine_conf.log_counter++;
 c0028ec:	4b1a      	ldr	r3, [pc, #104]	; (c002958 <CFA_ENGINE_new_log_entry+0x170>)
 c0028ee:	88db      	ldrh	r3, [r3, #6]
 c0028f0:	3301      	adds	r3, #1
 c0028f2:	b29a      	uxth	r2, r3
 c0028f4:	4b18      	ldr	r3, [pc, #96]	; (c002958 <CFA_ENGINE_new_log_entry+0x170>)
 c0028f6:	80da      	strh	r2, [r3, #6]
				report_secure.num_CF_Log_size++;
 c0028f8:	4b13      	ldr	r3, [pc, #76]	; (c002948 <CFA_ENGINE_new_log_entry+0x160>)
 c0028fa:	f8b3 3062 	ldrh.w	r3, [r3, #98]	; 0x62
 c0028fe:	3301      	adds	r3, #1
 c002900:	b29a      	uxth	r2, r3
 c002902:	4b11      	ldr	r3, [pc, #68]	; (c002948 <CFA_ENGINE_new_log_entry+0x160>)
 c002904:	f8a3 2062 	strh.w	r2, [r3, #98]	; 0x62
				loop_counter = 1;
 c002908:	4b15      	ldr	r3, [pc, #84]	; (c002960 <CFA_ENGINE_new_log_entry+0x178>)
 c00290a:	2201      	movs	r2, #1
 c00290c:	801a      	strh	r2, [r3, #0]
			report_secure.CFLog[report_secure.num_CF_Log_size] = value;
 c00290e:	4b0e      	ldr	r3, [pc, #56]	; (c002948 <CFA_ENGINE_new_log_entry+0x160>)
 c002910:	f8b3 3062 	ldrh.w	r3, [r3, #98]	; 0x62
 c002914:	4a0c      	ldr	r2, [pc, #48]	; (c002948 <CFA_ENGINE_new_log_entry+0x160>)
 c002916:	3318      	adds	r3, #24
 c002918:	009b      	lsls	r3, r3, #2
 c00291a:	4413      	add	r3, r2
 c00291c:	687a      	ldr	r2, [r7, #4]
 c00291e:	605a      	str	r2, [r3, #4]
			cfa_engine_conf.log_counter++;
 c002920:	4b0d      	ldr	r3, [pc, #52]	; (c002958 <CFA_ENGINE_new_log_entry+0x170>)
 c002922:	88db      	ldrh	r3, [r3, #6]
 c002924:	3301      	adds	r3, #1
 c002926:	b29a      	uxth	r2, r3
 c002928:	4b0b      	ldr	r3, [pc, #44]	; (c002958 <CFA_ENGINE_new_log_entry+0x170>)
 c00292a:	80da      	strh	r2, [r3, #6]
			report_secure.num_CF_Log_size++;
 c00292c:	4b06      	ldr	r3, [pc, #24]	; (c002948 <CFA_ENGINE_new_log_entry+0x160>)
 c00292e:	f8b3 3062 	ldrh.w	r3, [r3, #98]	; 0x62
 c002932:	3301      	adds	r3, #1
 c002934:	b29a      	uxth	r2, r3
 c002936:	4b04      	ldr	r3, [pc, #16]	; (c002948 <CFA_ENGINE_new_log_entry+0x160>)
 c002938:	f8a3 2062 	strh.w	r2, [r3, #98]	; 0x62
	return;
 c00293c:	e000      	b.n	c002940 <CFA_ENGINE_new_log_entry+0x158>
			if (loop_detect == 0){
 c00293e:	bf00      	nop
	return;
 c002940:	bf00      	nop
}
 c002942:	3708      	adds	r7, #8
 c002944:	46bd      	mov	sp, r7
 c002946:	bd80      	pop	{r7, pc}
 c002948:	30000034 	.word	0x30000034
 c00294c:	3000066c 	.word	0x3000066c
 c002950:	30000668 	.word	0x30000668
 c002954:	30000650 	.word	0x30000650
 c002958:	300004b8 	.word	0x300004b8
 c00295c:	300006b4 	.word	0x300006b4
 c002960:	30000024 	.word	0x30000024

0c002964 <CFA_ENGINE_run_attestation>:


void CFA_ENGINE_run_attestation(){
 c002964:	b580      	push	{r7, lr}
 c002966:	af00      	add	r7, sp, #0
	if (cfa_engine_conf.initialized != INITIALIZED){
 c002968:	4b18      	ldr	r3, [pc, #96]	; (c0029cc <CFA_ENGINE_run_attestation+0x68>)
 c00296a:	f893 3049 	ldrb.w	r3, [r3, #73]	; 0x49
 c00296e:	2bee      	cmp	r3, #238	; 0xee
 c002970:	d12a      	bne.n	c0029c8 <CFA_ENGINE_run_attestation+0x64>
	//	*ERROR = ERROR_CFA_ENGINE_NOT_INITIALIZED;
		return;
	}

	report_secure.num_CF_Log_size = 0;
 c002972:	4b17      	ldr	r3, [pc, #92]	; (c0029d0 <CFA_ENGINE_run_attestation+0x6c>)
 c002974:	2200      	movs	r2, #0
 c002976:	f8a3 2062 	strh.w	r2, [r3, #98]	; 0x62
	cfa_engine_conf.attestation_status = ACTIVE;
 c00297a:	4b14      	ldr	r3, [pc, #80]	; (c0029cc <CFA_ENGINE_run_attestation+0x68>)
 c00297c:	2201      	movs	r2, #1
 c00297e:	711a      	strb	r2, [r3, #4]
	cfa_engine_conf.log_counter = 0;
 c002980:	4b12      	ldr	r3, [pc, #72]	; (c0029cc <CFA_ENGINE_run_attestation+0x68>)
 c002982:	2200      	movs	r2, #0
 c002984:	80da      	strh	r2, [r3, #6]
	report_secure.number_of_logs_sent = 0;
 c002986:	4b12      	ldr	r3, [pc, #72]	; (c0029d0 <CFA_ENGINE_run_attestation+0x6c>)
 c002988:	2200      	movs	r2, #0
 c00298a:	f8a3 2464 	strh.w	r2, [r3, #1124]	; 0x464


//	_initialize_timer_interrupt();

	// Call the application
	start = HAL_GetTick();
 c00298e:	f001 f9a5 	bl	c003cdc <HAL_GetTick>
 c002992:	4603      	mov	r3, r0
 c002994:	4a0f      	ldr	r2, [pc, #60]	; (c0029d4 <CFA_ENGINE_run_attestation+0x70>)
 c002996:	6013      	str	r3, [r2, #0]
	_run_application();
 c002998:	f7ff fb70 	bl	c00207c <_run_application>
	end = HAL_GetTick();
 c00299c:	f001 f99e 	bl	c003cdc <HAL_GetTick>
 c0029a0:	4603      	mov	r3, r0
 c0029a2:	4a0d      	ldr	r2, [pc, #52]	; (c0029d8 <CFA_ENGINE_run_attestation+0x74>)
 c0029a4:	6013      	str	r3, [r2, #0]
	app_exec_time += end - start;
 c0029a6:	4b0c      	ldr	r3, [pc, #48]	; (c0029d8 <CFA_ENGINE_run_attestation+0x74>)
 c0029a8:	681a      	ldr	r2, [r3, #0]
 c0029aa:	4b0a      	ldr	r3, [pc, #40]	; (c0029d4 <CFA_ENGINE_run_attestation+0x70>)
 c0029ac:	681b      	ldr	r3, [r3, #0]
 c0029ae:	1ad2      	subs	r2, r2, r3
 c0029b0:	4b0a      	ldr	r3, [pc, #40]	; (c0029dc <CFA_ENGINE_run_attestation+0x78>)
 c0029b2:	681b      	ldr	r3, [r3, #0]
 c0029b4:	4413      	add	r3, r2
 c0029b6:	4a09      	ldr	r2, [pc, #36]	; (c0029dc <CFA_ENGINE_run_attestation+0x78>)
 c0029b8:	6013      	str	r3, [r2, #0]

	_deactivate_timer_interrupt();
 c0029ba:	f7ff fd0b 	bl	c0023d4 <_deactivate_timer_interrupt>

	// Set Final report Flag
	report_secure.isFinal = TRUE;
 c0029be:	4b04      	ldr	r3, [pc, #16]	; (c0029d0 <CFA_ENGINE_run_attestation+0x6c>)
 c0029c0:	2201      	movs	r2, #1
 c0029c2:	f8a3 2040 	strh.w	r2, [r3, #64]	; 0x40
	return;
 c0029c6:	e000      	b.n	c0029ca <CFA_ENGINE_run_attestation+0x66>
		return;
 c0029c8:	bf00      	nop
}
 c0029ca:	bd80      	pop	{r7, pc}
 c0029cc:	300004b8 	.word	0x300004b8
 c0029d0:	30000034 	.word	0x30000034
 c0029d4:	30000668 	.word	0x30000668
 c0029d8:	3000066c 	.word	0x3000066c
 c0029dc:	30000650 	.word	0x30000650

0c0029e0 <TRACES_DMA_init>:

void TRACES_DMA_init(){
 c0029e0:	b580      	push	{r7, lr}
 c0029e2:	b082      	sub	sp, #8
 c0029e4:	af00      	add	r7, sp, #0
	  /* DMA controller clock enable */
	  __HAL_RCC_DMA1_CLK_ENABLE();
 c0029e6:	4b2f      	ldr	r3, [pc, #188]	; (c002aa4 <TRACES_DMA_init+0xc4>)
 c0029e8:	6c9b      	ldr	r3, [r3, #72]	; 0x48
 c0029ea:	4a2e      	ldr	r2, [pc, #184]	; (c002aa4 <TRACES_DMA_init+0xc4>)
 c0029ec:	f043 0301 	orr.w	r3, r3, #1
 c0029f0:	6493      	str	r3, [r2, #72]	; 0x48
 c0029f2:	4b2c      	ldr	r3, [pc, #176]	; (c002aa4 <TRACES_DMA_init+0xc4>)
 c0029f4:	6c9b      	ldr	r3, [r3, #72]	; 0x48
 c0029f6:	f003 0301 	and.w	r3, r3, #1
 c0029fa:	607b      	str	r3, [r7, #4]
 c0029fc:	687b      	ldr	r3, [r7, #4]

	  /* Configure DMA request hdma on DMA1_Channel1 */
	  hdma.Instance = DMA1_Channel1;
 c0029fe:	4b2a      	ldr	r3, [pc, #168]	; (c002aa8 <TRACES_DMA_init+0xc8>)
 c002a00:	4a2a      	ldr	r2, [pc, #168]	; (c002aac <TRACES_DMA_init+0xcc>)
 c002a02:	601a      	str	r2, [r3, #0]
	  hdma.Init.Request = DMA_REQUEST_MEM2MEM;
 c002a04:	4b28      	ldr	r3, [pc, #160]	; (c002aa8 <TRACES_DMA_init+0xc8>)
 c002a06:	2200      	movs	r2, #0
 c002a08:	605a      	str	r2, [r3, #4]
	  hdma.Init.Direction = DMA_MEMORY_TO_MEMORY;
 c002a0a:	4b27      	ldr	r3, [pc, #156]	; (c002aa8 <TRACES_DMA_init+0xc8>)
 c002a0c:	f44f 4280 	mov.w	r2, #16384	; 0x4000
 c002a10:	609a      	str	r2, [r3, #8]
	  hdma.Init.PeriphInc = DMA_PINC_ENABLE;
 c002a12:	4b25      	ldr	r3, [pc, #148]	; (c002aa8 <TRACES_DMA_init+0xc8>)
 c002a14:	2240      	movs	r2, #64	; 0x40
 c002a16:	60da      	str	r2, [r3, #12]
	  hdma.Init.MemInc = DMA_MINC_ENABLE;
 c002a18:	4b23      	ldr	r3, [pc, #140]	; (c002aa8 <TRACES_DMA_init+0xc8>)
 c002a1a:	2280      	movs	r2, #128	; 0x80
 c002a1c:	611a      	str	r2, [r3, #16]
	  hdma.Init.PeriphDataAlignment = DMA_PDATAALIGN_WORD;
 c002a1e:	4b22      	ldr	r3, [pc, #136]	; (c002aa8 <TRACES_DMA_init+0xc8>)
 c002a20:	f44f 7200 	mov.w	r2, #512	; 0x200
 c002a24:	615a      	str	r2, [r3, #20]
	  hdma.Init.MemDataAlignment = DMA_MDATAALIGN_WORD;
 c002a26:	4b20      	ldr	r3, [pc, #128]	; (c002aa8 <TRACES_DMA_init+0xc8>)
 c002a28:	f44f 6200 	mov.w	r2, #2048	; 0x800
 c002a2c:	619a      	str	r2, [r3, #24]
	  hdma.Init.Mode = DMA_NORMAL;
 c002a2e:	4b1e      	ldr	r3, [pc, #120]	; (c002aa8 <TRACES_DMA_init+0xc8>)
 c002a30:	2200      	movs	r2, #0
 c002a32:	61da      	str	r2, [r3, #28]
	  hdma.Init.Priority = DMA_PRIORITY_VERY_HIGH;
 c002a34:	4b1c      	ldr	r3, [pc, #112]	; (c002aa8 <TRACES_DMA_init+0xc8>)
 c002a36:	f44f 5240 	mov.w	r2, #12288	; 0x3000
 c002a3a:	621a      	str	r2, [r3, #32]
	  if (HAL_DMA_Init(&hdma) != HAL_OK)
 c002a3c:	481a      	ldr	r0, [pc, #104]	; (c002aa8 <TRACES_DMA_init+0xc8>)
 c002a3e:	f001 fa69 	bl	c003f14 <HAL_DMA_Init>
 c002a42:	4603      	mov	r3, r0
 c002a44:	2b00      	cmp	r3, #0
 c002a46:	d001      	beq.n	c002a4c <TRACES_DMA_init+0x6c>
	  {
	    Error_Handler( );
 c002a48:	f000 fa4e 	bl	c002ee8 <Error_Handler>
	  }

	  /*  */
	  if (HAL_DMA_ConfigChannelAttributes(&hdma, DMA_CHANNEL_NPRIV) != HAL_OK)
 c002a4c:	2110      	movs	r1, #16
 c002a4e:	4816      	ldr	r0, [pc, #88]	; (c002aa8 <TRACES_DMA_init+0xc8>)
 c002a50:	f001 fb08 	bl	c004064 <HAL_DMA_ConfigChannelAttributes>
 c002a54:	4603      	mov	r3, r0
 c002a56:	2b00      	cmp	r3, #0
 c002a58:	d001      	beq.n	c002a5e <TRACES_DMA_init+0x7e>
	  {
	    Error_Handler( );
 c002a5a:	f000 fa45 	bl	c002ee8 <Error_Handler>
	  }

	  /*  */
	  if (HAL_DMA_ConfigChannelAttributes(&hdma, DMA_CHANNEL_SEC) != HAL_OK)
 c002a5e:	f04f 1102 	mov.w	r1, #131074	; 0x20002
 c002a62:	4811      	ldr	r0, [pc, #68]	; (c002aa8 <TRACES_DMA_init+0xc8>)
 c002a64:	f001 fafe 	bl	c004064 <HAL_DMA_ConfigChannelAttributes>
 c002a68:	4603      	mov	r3, r0
 c002a6a:	2b00      	cmp	r3, #0
 c002a6c:	d001      	beq.n	c002a72 <TRACES_DMA_init+0x92>
	  {
	    Error_Handler( );
 c002a6e:	f000 fa3b 	bl	c002ee8 <Error_Handler>
	  }

	  /*  */
	  if (HAL_DMA_ConfigChannelAttributes(&hdma, DMA_CHANNEL_SRC_SEC) != HAL_OK)
 c002a72:	f04f 1104 	mov.w	r1, #262148	; 0x40004
 c002a76:	480c      	ldr	r0, [pc, #48]	; (c002aa8 <TRACES_DMA_init+0xc8>)
 c002a78:	f001 faf4 	bl	c004064 <HAL_DMA_ConfigChannelAttributes>
 c002a7c:	4603      	mov	r3, r0
 c002a7e:	2b00      	cmp	r3, #0
 c002a80:	d001      	beq.n	c002a86 <TRACES_DMA_init+0xa6>
	  {
	    Error_Handler( );
 c002a82:	f000 fa31 	bl	c002ee8 <Error_Handler>
	  }

	  /*  */
	  if (HAL_DMA_ConfigChannelAttributes(&hdma, DMA_CHANNEL_DEST_SEC) != HAL_OK)
 c002a86:	f04f 1108 	mov.w	r1, #524296	; 0x80008
 c002a8a:	4807      	ldr	r0, [pc, #28]	; (c002aa8 <TRACES_DMA_init+0xc8>)
 c002a8c:	f001 faea 	bl	c004064 <HAL_DMA_ConfigChannelAttributes>
 c002a90:	4603      	mov	r3, r0
 c002a92:	2b00      	cmp	r3, #0
 c002a94:	d001      	beq.n	c002a9a <TRACES_DMA_init+0xba>
	  {
	    Error_Handler( );
 c002a96:	f000 fa27 	bl	c002ee8 <Error_Handler>
	  }
}
 c002a9a:	bf00      	nop
 c002a9c:	3708      	adds	r7, #8
 c002a9e:	46bd      	mov	sp, r7
 c002aa0:	bd80      	pop	{r7, pc}
 c002aa2:	bf00      	nop
 c002aa4:	50021000 	.word	0x50021000
 c002aa8:	300005c8 	.word	0x300005c8
 c002aac:	50020008 	.word	0x50020008

0c002ab0 <CFA_ENGINE_initialize>:

void CFA_ENGINE_initialize(){
 c002ab0:	b580      	push	{r7, lr}
 c002ab2:	af00      	add	r7, sp, #0

	if (cfa_engine_conf.initialized == INITIALIZED){
 c002ab4:	4b0a      	ldr	r3, [pc, #40]	; (c002ae0 <CFA_ENGINE_initialize+0x30>)
 c002ab6:	f893 3049 	ldrb.w	r3, [r3, #73]	; 0x49
 c002aba:	2bee      	cmp	r3, #238	; 0xee
 c002abc:	d00e      	beq.n	c002adc <CFA_ENGINE_initialize+0x2c>
		return; //ERROR_cfa_engine_ALREADY_INITIALIZED;;
	}

	set_hmac_key(att_key, 32);
 c002abe:	4b09      	ldr	r3, [pc, #36]	; (c002ae4 <CFA_ENGINE_initialize+0x34>)
 c002ac0:	681b      	ldr	r3, [r3, #0]
 c002ac2:	2120      	movs	r1, #32
 c002ac4:	4618      	mov	r0, r3
 c002ac6:	f000 f8c9 	bl	c002c5c <set_hmac_key>

	_attest_memory();
 c002aca:	f7ff fe31 	bl	c002730 <_attest_memory>
	_setup_data();
 c002ace:	f7ff fa45 	bl	c001f5c <_setup_data>
	_clean();
 c002ad2:	f7ff fa9f 	bl	c002014 <_clean>

	// init DMA
	TRACES_DMA_init();
 c002ad6:	f7ff ff83 	bl	c0029e0 <TRACES_DMA_init>
	////

	return;
 c002ada:	e000      	b.n	c002ade <CFA_ENGINE_initialize+0x2e>
		return; //ERROR_cfa_engine_ALREADY_INITIALIZED;;
 c002adc:	bf00      	nop
}
 c002ade:	bd80      	pop	{r7, pc}
 c002ae0:	300004b8 	.word	0x300004b8
 c002ae4:	30000020 	.word	0x30000020

0c002ae8 <_heal_function>:
	HAL_NVIC_SystemReset();
	return;
}


void _heal_function(){
 c002ae8:	b480      	push	{r7}
 c002aea:	af00      	add	r7, sp, #0
	while(1);
 c002aec:	e7fe      	b.n	c002aec <_heal_function+0x4>
	...

0c002af0 <MX_GPIO_Init>:
/* USER CODE END 1 */

/** Pinout Configuration
*/
void MX_GPIO_Init(void)
{
 c002af0:	b580      	push	{r7, lr}
 c002af2:	b082      	sub	sp, #8
 c002af4:	af00      	add	r7, sp, #0

  /* GPIO Ports Clock Enable */
  __HAL_RCC_GPIOG_CLK_ENABLE();
 c002af6:	4b09      	ldr	r3, [pc, #36]	; (c002b1c <MX_GPIO_Init+0x2c>)
 c002af8:	6cdb      	ldr	r3, [r3, #76]	; 0x4c
 c002afa:	4a08      	ldr	r2, [pc, #32]	; (c002b1c <MX_GPIO_Init+0x2c>)
 c002afc:	f043 0340 	orr.w	r3, r3, #64	; 0x40
 c002b00:	64d3      	str	r3, [r2, #76]	; 0x4c
 c002b02:	4b06      	ldr	r3, [pc, #24]	; (c002b1c <MX_GPIO_Init+0x2c>)
 c002b04:	6cdb      	ldr	r3, [r3, #76]	; 0x4c
 c002b06:	f003 0340 	and.w	r3, r3, #64	; 0x40
 c002b0a:	607b      	str	r3, [r7, #4]
 c002b0c:	687b      	ldr	r3, [r7, #4]
  HAL_PWREx_EnableVddIO2();
 c002b0e:	f001 fff7 	bl	c004b00 <HAL_PWREx_EnableVddIO2>

}
 c002b12:	bf00      	nop
 c002b14:	3708      	adds	r7, #8
 c002b16:	46bd      	mov	sp, r7
 c002b18:	bd80      	pop	{r7, pc}
 c002b1a:	bf00      	nop
 c002b1c:	50021000 	.word	0x50021000

0c002b20 <MX_GTZC_S_Init>:

/* USER CODE END 0 */

/* GTZC_S init function */
void MX_GTZC_S_Init(void)
{
 c002b20:	b580      	push	{r7, lr}
 c002b22:	b09c      	sub	sp, #112	; 0x70
 c002b24:	af00      	add	r7, sp, #0

  /* USER CODE BEGIN GTZC_S_Init 0 */

  /* USER CODE END GTZC_S_Init 0 */

  MPCBB_ConfigTypeDef MPCBB_NonSecureArea_Desc = {0};
 c002b26:	1d3b      	adds	r3, r7, #4
 c002b28:	226c      	movs	r2, #108	; 0x6c
 c002b2a:	2100      	movs	r1, #0
 c002b2c:	4618      	mov	r0, r3
 c002b2e:	f005 f8ca 	bl	c007cc6 <memset>

  /* USER CODE BEGIN GTZC_S_Init 1 */

  /* USER CODE END GTZC_S_Init 1 */
  if (HAL_GTZC_TZSC_ConfigPeriphAttributes(GTZC_PERIPH_TIM3, GTZC_TZSC_PERIPH_SEC|GTZC_TZSC_PERIPH_NPRIV) != HAL_OK)
 c002b32:	f240 3101 	movw	r1, #769	; 0x301
 c002b36:	2001      	movs	r0, #1
 c002b38:	f001 fcfe 	bl	c004538 <HAL_GTZC_TZSC_ConfigPeriphAttributes>
 c002b3c:	4603      	mov	r3, r0
 c002b3e:	2b00      	cmp	r3, #0
 c002b40:	d001      	beq.n	c002b46 <MX_GTZC_S_Init+0x26>
  {
    Error_Handler();
 c002b42:	f000 f9d1 	bl	c002ee8 <Error_Handler>
  }
  if (HAL_GTZC_TZSC_ConfigPeriphAttributes(GTZC_PERIPH_TIM4, GTZC_TZSC_PERIPH_SEC|GTZC_TZSC_PERIPH_NPRIV) != HAL_OK)
 c002b46:	f240 3101 	movw	r1, #769	; 0x301
 c002b4a:	2002      	movs	r0, #2
 c002b4c:	f001 fcf4 	bl	c004538 <HAL_GTZC_TZSC_ConfigPeriphAttributes>
 c002b50:	4603      	mov	r3, r0
 c002b52:	2b00      	cmp	r3, #0
 c002b54:	d001      	beq.n	c002b5a <MX_GTZC_S_Init+0x3a>
  {
    Error_Handler();
 c002b56:	f000 f9c7 	bl	c002ee8 <Error_Handler>
  }
  if (HAL_GTZC_TZSC_ConfigPeriphAttributes(GTZC_PERIPH_LPUART1, GTZC_TZSC_PERIPH_SEC|GTZC_TZSC_PERIPH_NPRIV) != HAL_OK)
 c002b5a:	f240 3101 	movw	r1, #769	; 0x301
 c002b5e:	2015      	movs	r0, #21
 c002b60:	f001 fcea 	bl	c004538 <HAL_GTZC_TZSC_ConfigPeriphAttributes>
 c002b64:	4603      	mov	r3, r0
 c002b66:	2b00      	cmp	r3, #0
 c002b68:	d001      	beq.n	c002b6e <MX_GTZC_S_Init+0x4e>
  {
    Error_Handler();
 c002b6a:	f000 f9bd 	bl	c002ee8 <Error_Handler>
  }
  MPCBB_NonSecureArea_Desc.SecureRWIllegalMode = GTZC_MPCBB_SRWILADIS_ENABLE;
 c002b6e:	2300      	movs	r3, #0
 c002b70:	607b      	str	r3, [r7, #4]
  MPCBB_NonSecureArea_Desc.InvertSecureState = GTZC_MPCBB_INVSECSTATE_NOT_INVERTED;
 c002b72:	2300      	movs	r3, #0
 c002b74:	60bb      	str	r3, [r7, #8]
  MPCBB_NonSecureArea_Desc.AttributeConfig.MPCBB_SecConfig_array[0] =   0xFFFFFFFF;
 c002b76:	f04f 33ff 	mov.w	r3, #4294967295	; 0xffffffff
 c002b7a:	60fb      	str	r3, [r7, #12]
  MPCBB_NonSecureArea_Desc.AttributeConfig.MPCBB_SecConfig_array[1] =   0xFFFFFFFF;
 c002b7c:	f04f 33ff 	mov.w	r3, #4294967295	; 0xffffffff
 c002b80:	613b      	str	r3, [r7, #16]
  MPCBB_NonSecureArea_Desc.AttributeConfig.MPCBB_SecConfig_array[2] =   0xFFFFFFFF;
 c002b82:	f04f 33ff 	mov.w	r3, #4294967295	; 0xffffffff
 c002b86:	617b      	str	r3, [r7, #20]
  MPCBB_NonSecureArea_Desc.AttributeConfig.MPCBB_SecConfig_array[3] =   0xFFFFFFFF;
 c002b88:	f04f 33ff 	mov.w	r3, #4294967295	; 0xffffffff
 c002b8c:	61bb      	str	r3, [r7, #24]
  MPCBB_NonSecureArea_Desc.AttributeConfig.MPCBB_SecConfig_array[4] =   0xFFFFFFFF;
 c002b8e:	f04f 33ff 	mov.w	r3, #4294967295	; 0xffffffff
 c002b92:	61fb      	str	r3, [r7, #28]
  MPCBB_NonSecureArea_Desc.AttributeConfig.MPCBB_SecConfig_array[5] =   0xFFFFFFFF;
 c002b94:	f04f 33ff 	mov.w	r3, #4294967295	; 0xffffffff
 c002b98:	623b      	str	r3, [r7, #32]
  MPCBB_NonSecureArea_Desc.AttributeConfig.MPCBB_SecConfig_array[6] =   0xFFFFFFFF;
 c002b9a:	f04f 33ff 	mov.w	r3, #4294967295	; 0xffffffff
 c002b9e:	627b      	str	r3, [r7, #36]	; 0x24
  MPCBB_NonSecureArea_Desc.AttributeConfig.MPCBB_SecConfig_array[7] =   0xFFFFFFFF;
 c002ba0:	f04f 33ff 	mov.w	r3, #4294967295	; 0xffffffff
 c002ba4:	62bb      	str	r3, [r7, #40]	; 0x28
  MPCBB_NonSecureArea_Desc.AttributeConfig.MPCBB_SecConfig_array[8] =   0xFFFFFFFF;
 c002ba6:	f04f 33ff 	mov.w	r3, #4294967295	; 0xffffffff
 c002baa:	62fb      	str	r3, [r7, #44]	; 0x2c
  MPCBB_NonSecureArea_Desc.AttributeConfig.MPCBB_SecConfig_array[9] =   0xFFFFFFFF;
 c002bac:	f04f 33ff 	mov.w	r3, #4294967295	; 0xffffffff
 c002bb0:	633b      	str	r3, [r7, #48]	; 0x30
  MPCBB_NonSecureArea_Desc.AttributeConfig.MPCBB_SecConfig_array[10] =   0xFFFFFFFF;
 c002bb2:	f04f 33ff 	mov.w	r3, #4294967295	; 0xffffffff
 c002bb6:	637b      	str	r3, [r7, #52]	; 0x34
  MPCBB_NonSecureArea_Desc.AttributeConfig.MPCBB_SecConfig_array[11] =   0xFFFFFFFF;
 c002bb8:	f04f 33ff 	mov.w	r3, #4294967295	; 0xffffffff
 c002bbc:	63bb      	str	r3, [r7, #56]	; 0x38
  MPCBB_NonSecureArea_Desc.AttributeConfig.MPCBB_SecConfig_array[12] =   0x00000000;
 c002bbe:	2300      	movs	r3, #0
 c002bc0:	63fb      	str	r3, [r7, #60]	; 0x3c
  MPCBB_NonSecureArea_Desc.AttributeConfig.MPCBB_SecConfig_array[13] =   0x00000000;
 c002bc2:	2300      	movs	r3, #0
 c002bc4:	643b      	str	r3, [r7, #64]	; 0x40
  MPCBB_NonSecureArea_Desc.AttributeConfig.MPCBB_SecConfig_array[14] =   0x00000000;
 c002bc6:	2300      	movs	r3, #0
 c002bc8:	647b      	str	r3, [r7, #68]	; 0x44
  MPCBB_NonSecureArea_Desc.AttributeConfig.MPCBB_SecConfig_array[15] =   0x00000000;
 c002bca:	2300      	movs	r3, #0
 c002bcc:	64bb      	str	r3, [r7, #72]	; 0x48
  MPCBB_NonSecureArea_Desc.AttributeConfig.MPCBB_SecConfig_array[16] =   0x00000000;
 c002bce:	2300      	movs	r3, #0
 c002bd0:	64fb      	str	r3, [r7, #76]	; 0x4c
  MPCBB_NonSecureArea_Desc.AttributeConfig.MPCBB_SecConfig_array[17] =   0x00000000;
 c002bd2:	2300      	movs	r3, #0
 c002bd4:	653b      	str	r3, [r7, #80]	; 0x50
  MPCBB_NonSecureArea_Desc.AttributeConfig.MPCBB_SecConfig_array[18] =   0x00000000;
 c002bd6:	2300      	movs	r3, #0
 c002bd8:	657b      	str	r3, [r7, #84]	; 0x54
  MPCBB_NonSecureArea_Desc.AttributeConfig.MPCBB_SecConfig_array[19] =   0x00000000;
 c002bda:	2300      	movs	r3, #0
 c002bdc:	65bb      	str	r3, [r7, #88]	; 0x58
  MPCBB_NonSecureArea_Desc.AttributeConfig.MPCBB_SecConfig_array[20] =   0x00000000;
 c002bde:	2300      	movs	r3, #0
 c002be0:	65fb      	str	r3, [r7, #92]	; 0x5c
  MPCBB_NonSecureArea_Desc.AttributeConfig.MPCBB_SecConfig_array[21] =   0x00000000;
 c002be2:	2300      	movs	r3, #0
 c002be4:	663b      	str	r3, [r7, #96]	; 0x60
  MPCBB_NonSecureArea_Desc.AttributeConfig.MPCBB_SecConfig_array[22] =   0x00000000;
 c002be6:	2300      	movs	r3, #0
 c002be8:	667b      	str	r3, [r7, #100]	; 0x64
  MPCBB_NonSecureArea_Desc.AttributeConfig.MPCBB_SecConfig_array[23] =   0x00000000;
 c002bea:	2300      	movs	r3, #0
 c002bec:	66bb      	str	r3, [r7, #104]	; 0x68
  MPCBB_NonSecureArea_Desc.AttributeConfig.MPCBB_LockConfig_array[0] =   0x00000000;
 c002bee:	2300      	movs	r3, #0
 c002bf0:	66fb      	str	r3, [r7, #108]	; 0x6c
  if (HAL_GTZC_MPCBB_ConfigMem(SRAM1_BASE, &MPCBB_NonSecureArea_Desc) != HAL_OK)
 c002bf2:	1d3b      	adds	r3, r7, #4
 c002bf4:	4619      	mov	r1, r3
 c002bf6:	f04f 5040 	mov.w	r0, #805306368	; 0x30000000
 c002bfa:	f001 fd75 	bl	c0046e8 <HAL_GTZC_MPCBB_ConfigMem>
 c002bfe:	4603      	mov	r3, r0
 c002c00:	2b00      	cmp	r3, #0
 c002c02:	d001      	beq.n	c002c08 <MX_GTZC_S_Init+0xe8>
  {
    Error_Handler();
 c002c04:	f000 f970 	bl	c002ee8 <Error_Handler>
  }
  MPCBB_NonSecureArea_Desc.AttributeConfig.MPCBB_SecConfig_array[0] =   0x00000000;
 c002c08:	2300      	movs	r3, #0
 c002c0a:	60fb      	str	r3, [r7, #12]
  MPCBB_NonSecureArea_Desc.AttributeConfig.MPCBB_SecConfig_array[1] =   0x00000000;
 c002c0c:	2300      	movs	r3, #0
 c002c0e:	613b      	str	r3, [r7, #16]
  MPCBB_NonSecureArea_Desc.AttributeConfig.MPCBB_SecConfig_array[2] =   0x00000000;
 c002c10:	2300      	movs	r3, #0
 c002c12:	617b      	str	r3, [r7, #20]
  MPCBB_NonSecureArea_Desc.AttributeConfig.MPCBB_SecConfig_array[3] =   0x00000000;
 c002c14:	2300      	movs	r3, #0
 c002c16:	61bb      	str	r3, [r7, #24]
  MPCBB_NonSecureArea_Desc.AttributeConfig.MPCBB_SecConfig_array[4] =   0x00000000;
 c002c18:	2300      	movs	r3, #0
 c002c1a:	61fb      	str	r3, [r7, #28]
  MPCBB_NonSecureArea_Desc.AttributeConfig.MPCBB_SecConfig_array[5] =   0x00000000;
 c002c1c:	2300      	movs	r3, #0
 c002c1e:	623b      	str	r3, [r7, #32]
  MPCBB_NonSecureArea_Desc.AttributeConfig.MPCBB_SecConfig_array[6] =   0x00000000;
 c002c20:	2300      	movs	r3, #0
 c002c22:	627b      	str	r3, [r7, #36]	; 0x24
  MPCBB_NonSecureArea_Desc.AttributeConfig.MPCBB_SecConfig_array[7] =   0x00000000;
 c002c24:	2300      	movs	r3, #0
 c002c26:	62bb      	str	r3, [r7, #40]	; 0x28
  MPCBB_NonSecureArea_Desc.AttributeConfig.MPCBB_LockConfig_array[0] =   0x00000000;
 c002c28:	2300      	movs	r3, #0
 c002c2a:	66fb      	str	r3, [r7, #108]	; 0x6c
  if (HAL_GTZC_MPCBB_ConfigMem(SRAM2_BASE, &MPCBB_NonSecureArea_Desc) != HAL_OK)
 c002c2c:	1d3b      	adds	r3, r7, #4
 c002c2e:	4619      	mov	r1, r3
 c002c30:	4809      	ldr	r0, [pc, #36]	; (c002c58 <MX_GTZC_S_Init+0x138>)
 c002c32:	f001 fd59 	bl	c0046e8 <HAL_GTZC_MPCBB_ConfigMem>
 c002c36:	4603      	mov	r3, r0
 c002c38:	2b00      	cmp	r3, #0
 c002c3a:	d001      	beq.n	c002c40 <MX_GTZC_S_Init+0x120>
  {
    Error_Handler();
 c002c3c:	f000 f954 	bl	c002ee8 <Error_Handler>
  }
  /* USER CODE BEGIN GTZC_S_Init 2 */
  if (HAL_GTZC_TZIC_EnableIT(GTZC_PERIPH_LPUART1) != HAL_OK)
 c002c40:	2015      	movs	r0, #21
 c002c42:	f001 fdd5 	bl	c0047f0 <HAL_GTZC_TZIC_EnableIT>
 c002c46:	4603      	mov	r3, r0
 c002c48:	2b00      	cmp	r3, #0
 c002c4a:	d001      	beq.n	c002c50 <MX_GTZC_S_Init+0x130>
  {
    Error_Handler();
 c002c4c:	f000 f94c 	bl	c002ee8 <Error_Handler>
  }

  /* USER CODE END GTZC_S_Init 2 */

}
 c002c50:	bf00      	nop
 c002c52:	3770      	adds	r7, #112	; 0x70
 c002c54:	46bd      	mov	sp, r7
 c002c56:	bd80      	pop	{r7, pc}
 c002c58:	30030000 	.word	0x30030000

0c002c5c <set_hmac_key>:

HAL_StatusTypeDef HMAC_SHA_265(uint8_t *pInBuffer, uint32_t Size, uint8_t* pOutBuffer){
	return HAL_HMACEx_SHA256_Start(&hhash, pInBuffer, Size, pOutBuffer, HASH_TIMEOUT);
}

void set_hmac_key(uint8_t * att_key, uint32_t size){
 c002c5c:	b480      	push	{r7}
 c002c5e:	b083      	sub	sp, #12
 c002c60:	af00      	add	r7, sp, #0
 c002c62:	6078      	str	r0, [r7, #4]
 c002c64:	6039      	str	r1, [r7, #0]
	hhash.Init.KeySize = size;
 c002c66:	4a06      	ldr	r2, [pc, #24]	; (c002c80 <set_hmac_key+0x24>)
 c002c68:	683b      	ldr	r3, [r7, #0]
 c002c6a:	6053      	str	r3, [r2, #4]
	hhash.Init.pKey = att_key;
 c002c6c:	4a04      	ldr	r2, [pc, #16]	; (c002c80 <set_hmac_key+0x24>)
 c002c6e:	687b      	ldr	r3, [r7, #4]
 c002c70:	6093      	str	r3, [r2, #8]
}
 c002c72:	bf00      	nop
 c002c74:	370c      	adds	r7, #12
 c002c76:	46bd      	mov	sp, r7
 c002c78:	f85d 7b04 	ldr.w	r7, [sp], #4
 c002c7c:	4770      	bx	lr
 c002c7e:	bf00      	nop
 c002c80:	300006b8 	.word	0x300006b8

0c002c84 <TZ_SAU_Setup>:
  \brief   Setup a SAU Region
  \details Writes the region information contained in SAU_Region to the
           registers SAU_RNR, SAU_RBAR, and SAU_RLAR
 */
__STATIC_INLINE void TZ_SAU_Setup (void)
{
 c002c84:	b480      	push	{r7}
 c002c86:	af00      	add	r7, sp, #0

#if defined (__SAUREGION_PRESENT) && (__SAUREGION_PRESENT == 1U)

  #if defined (SAU_INIT_REGION0) && (SAU_INIT_REGION0 == 1U)
    SAU_INIT_REGION(0);
 c002c88:	4b2f      	ldr	r3, [pc, #188]	; (c002d48 <TZ_SAU_Setup+0xc4>)
 c002c8a:	2200      	movs	r2, #0
 c002c8c:	609a      	str	r2, [r3, #8]
 c002c8e:	4b2e      	ldr	r3, [pc, #184]	; (c002d48 <TZ_SAU_Setup+0xc4>)
 c002c90:	4a2e      	ldr	r2, [pc, #184]	; (c002d4c <TZ_SAU_Setup+0xc8>)
 c002c92:	60da      	str	r2, [r3, #12]
 c002c94:	4b2c      	ldr	r3, [pc, #176]	; (c002d48 <TZ_SAU_Setup+0xc4>)
 c002c96:	4a2e      	ldr	r2, [pc, #184]	; (c002d50 <TZ_SAU_Setup+0xcc>)
 c002c98:	611a      	str	r2, [r3, #16]
  #endif

  #if defined (SAU_INIT_REGION1) && (SAU_INIT_REGION1 == 1U)
    SAU_INIT_REGION(1);
 c002c9a:	4b2b      	ldr	r3, [pc, #172]	; (c002d48 <TZ_SAU_Setup+0xc4>)
 c002c9c:	2201      	movs	r2, #1
 c002c9e:	609a      	str	r2, [r3, #8]
 c002ca0:	4b29      	ldr	r3, [pc, #164]	; (c002d48 <TZ_SAU_Setup+0xc4>)
 c002ca2:	4a2c      	ldr	r2, [pc, #176]	; (c002d54 <TZ_SAU_Setup+0xd0>)
 c002ca4:	60da      	str	r2, [r3, #12]
 c002ca6:	4b28      	ldr	r3, [pc, #160]	; (c002d48 <TZ_SAU_Setup+0xc4>)
 c002ca8:	4a2b      	ldr	r2, [pc, #172]	; (c002d58 <TZ_SAU_Setup+0xd4>)
 c002caa:	611a      	str	r2, [r3, #16]
  #endif

  #if defined (SAU_INIT_REGION2) && (SAU_INIT_REGION2 == 1U)
    SAU_INIT_REGION(2);
 c002cac:	4b26      	ldr	r3, [pc, #152]	; (c002d48 <TZ_SAU_Setup+0xc4>)
 c002cae:	2202      	movs	r2, #2
 c002cb0:	609a      	str	r2, [r3, #8]
 c002cb2:	4b25      	ldr	r3, [pc, #148]	; (c002d48 <TZ_SAU_Setup+0xc4>)
 c002cb4:	4a29      	ldr	r2, [pc, #164]	; (c002d5c <TZ_SAU_Setup+0xd8>)
 c002cb6:	60da      	str	r2, [r3, #12]
 c002cb8:	4b23      	ldr	r3, [pc, #140]	; (c002d48 <TZ_SAU_Setup+0xc4>)
 c002cba:	4a29      	ldr	r2, [pc, #164]	; (c002d60 <TZ_SAU_Setup+0xdc>)
 c002cbc:	611a      	str	r2, [r3, #16]
  #endif

  #if defined (SAU_INIT_REGION3) && (SAU_INIT_REGION3 == 1U)
    SAU_INIT_REGION(3);
 c002cbe:	4b22      	ldr	r3, [pc, #136]	; (c002d48 <TZ_SAU_Setup+0xc4>)
 c002cc0:	2203      	movs	r2, #3
 c002cc2:	609a      	str	r2, [r3, #8]
 c002cc4:	4b20      	ldr	r3, [pc, #128]	; (c002d48 <TZ_SAU_Setup+0xc4>)
 c002cc6:	f04f 4280 	mov.w	r2, #1073741824	; 0x40000000
 c002cca:	60da      	str	r2, [r3, #12]
 c002ccc:	4b1e      	ldr	r3, [pc, #120]	; (c002d48 <TZ_SAU_Setup+0xc4>)
 c002cce:	4a25      	ldr	r2, [pc, #148]	; (c002d64 <TZ_SAU_Setup+0xe0>)
 c002cd0:	611a      	str	r2, [r3, #16]
  #endif

  #if defined (SAU_INIT_REGION4) && (SAU_INIT_REGION4 == 1U)
    SAU_INIT_REGION(4);
 c002cd2:	4b1d      	ldr	r3, [pc, #116]	; (c002d48 <TZ_SAU_Setup+0xc4>)
 c002cd4:	2204      	movs	r2, #4
 c002cd6:	609a      	str	r2, [r3, #8]
 c002cd8:	4b1b      	ldr	r3, [pc, #108]	; (c002d48 <TZ_SAU_Setup+0xc4>)
 c002cda:	f04f 42c0 	mov.w	r2, #1610612736	; 0x60000000
 c002cde:	60da      	str	r2, [r3, #12]
 c002ce0:	4b19      	ldr	r3, [pc, #100]	; (c002d48 <TZ_SAU_Setup+0xc4>)
 c002ce2:	4a21      	ldr	r2, [pc, #132]	; (c002d68 <TZ_SAU_Setup+0xe4>)
 c002ce4:	611a      	str	r2, [r3, #16]
  #endif

  #if defined (SAU_INIT_REGION5) && (SAU_INIT_REGION5 == 1U)
    SAU_INIT_REGION(5);
 c002ce6:	4b18      	ldr	r3, [pc, #96]	; (c002d48 <TZ_SAU_Setup+0xc4>)
 c002ce8:	2205      	movs	r2, #5
 c002cea:	609a      	str	r2, [r3, #8]
 c002cec:	4b16      	ldr	r3, [pc, #88]	; (c002d48 <TZ_SAU_Setup+0xc4>)
 c002cee:	4a1f      	ldr	r2, [pc, #124]	; (c002d6c <TZ_SAU_Setup+0xe8>)
 c002cf0:	60da      	str	r2, [r3, #12]
 c002cf2:	4b15      	ldr	r3, [pc, #84]	; (c002d48 <TZ_SAU_Setup+0xc4>)
 c002cf4:	4a1e      	ldr	r2, [pc, #120]	; (c002d70 <TZ_SAU_Setup+0xec>)
 c002cf6:	611a      	str	r2, [r3, #16]
  /* repeat this for all possible SAU regions */

#endif /* defined (__SAUREGION_PRESENT) && (__SAUREGION_PRESENT == 1U) */

  #if defined (SAU_INIT_CTRL) && (SAU_INIT_CTRL == 1U)
    SAU->CTRL = ((SAU_INIT_CTRL_ENABLE << SAU_CTRL_ENABLE_Pos) & SAU_CTRL_ENABLE_Msk) |
 c002cf8:	4b13      	ldr	r3, [pc, #76]	; (c002d48 <TZ_SAU_Setup+0xc4>)
 c002cfa:	2201      	movs	r2, #1
 c002cfc:	601a      	str	r2, [r3, #0]
  #endif /* defined (SCB_CSR_AIRCR_INIT) && (SCB_CSR_AIRCR_INIT == 1U) */

  #if defined (__FPU_USED) && (__FPU_USED == 1U) && \
      defined (TZ_FPU_NS_USAGE) && (TZ_FPU_NS_USAGE == 1U)

    SCB->NSACR = (SCB->NSACR & ~(SCB_NSACR_CP10_Msk | SCB_NSACR_CP11_Msk)) |
 c002cfe:	4b1d      	ldr	r3, [pc, #116]	; (c002d74 <TZ_SAU_Setup+0xf0>)
 c002d00:	f8d3 308c 	ldr.w	r3, [r3, #140]	; 0x8c
 c002d04:	4a1b      	ldr	r2, [pc, #108]	; (c002d74 <TZ_SAU_Setup+0xf0>)
 c002d06:	f443 6340 	orr.w	r3, r3, #3072	; 0xc00
 c002d0a:	f8c2 308c 	str.w	r3, [r2, #140]	; 0x8c
                   ((SCB_NSACR_CP10_11_VAL << SCB_NSACR_CP10_Pos) & (SCB_NSACR_CP10_Msk | SCB_NSACR_CP11_Msk));

    FPU->FPCCR = (FPU->FPCCR & ~(FPU_FPCCR_TS_Msk | FPU_FPCCR_CLRONRETS_Msk | FPU_FPCCR_CLRONRET_Msk)) |
 c002d0e:	4b1a      	ldr	r3, [pc, #104]	; (c002d78 <TZ_SAU_Setup+0xf4>)
 c002d10:	685b      	ldr	r3, [r3, #4]
                   ((FPU_FPCCR_TS_VAL        << FPU_FPCCR_TS_Pos       ) & FPU_FPCCR_TS_Msk       ) |
 c002d12:	f023 53e0 	bic.w	r3, r3, #469762048	; 0x1c000000
    FPU->FPCCR = (FPU->FPCCR & ~(FPU_FPCCR_TS_Msk | FPU_FPCCR_CLRONRETS_Msk | FPU_FPCCR_CLRONRET_Msk)) |
 c002d16:	4a18      	ldr	r2, [pc, #96]	; (c002d78 <TZ_SAU_Setup+0xf4>)
                   ((FPU_FPCCR_CLRONRETS_VAL << FPU_FPCCR_CLRONRETS_Pos) & FPU_FPCCR_CLRONRETS_Msk) |
 c002d18:	f043 5380 	orr.w	r3, r3, #268435456	; 0x10000000
    FPU->FPCCR = (FPU->FPCCR & ~(FPU_FPCCR_TS_Msk | FPU_FPCCR_CLRONRETS_Msk | FPU_FPCCR_CLRONRET_Msk)) |
 c002d1c:	6053      	str	r3, [r2, #4]
                   ((FPU_FPCCR_CLRONRET_VAL  << FPU_FPCCR_CLRONRET_Pos ) & FPU_FPCCR_CLRONRET_Msk );
  #endif

  #if defined (NVIC_INIT_ITNS0) && (NVIC_INIT_ITNS0 == 1U)
    NVIC->ITNS[0] = NVIC_INIT_ITNS0_VAL;
 c002d1e:	4b17      	ldr	r3, [pc, #92]	; (c002d7c <TZ_SAU_Setup+0xf8>)
 c002d20:	2200      	movs	r2, #0
 c002d22:	f8c3 2280 	str.w	r2, [r3, #640]	; 0x280
  #endif

  #if defined (NVIC_INIT_ITNS1) && (NVIC_INIT_ITNS1 == 1U)
    NVIC->ITNS[1] = NVIC_INIT_ITNS1_VAL;
 c002d26:	4b15      	ldr	r3, [pc, #84]	; (c002d7c <TZ_SAU_Setup+0xf8>)
 c002d28:	2200      	movs	r2, #0
 c002d2a:	f8c3 2284 	str.w	r2, [r3, #644]	; 0x284
  #endif

  #if defined (NVIC_INIT_ITNS2) && (NVIC_INIT_ITNS2 == 1U)
    NVIC->ITNS[2] = NVIC_INIT_ITNS2_VAL;
 c002d2e:	4b13      	ldr	r3, [pc, #76]	; (c002d7c <TZ_SAU_Setup+0xf8>)
 c002d30:	2200      	movs	r2, #0
 c002d32:	f8c3 2288 	str.w	r2, [r3, #648]	; 0x288
  #endif

  #if defined (NVIC_INIT_ITNS3) && (NVIC_INIT_ITNS3 == 1U)
    NVIC->ITNS[3] = NVIC_INIT_ITNS3_VAL;
 c002d36:	4b11      	ldr	r3, [pc, #68]	; (c002d7c <TZ_SAU_Setup+0xf8>)
 c002d38:	2200      	movs	r2, #0
 c002d3a:	f8c3 228c 	str.w	r2, [r3, #652]	; 0x28c
  #endif

}
 c002d3e:	bf00      	nop
 c002d40:	46bd      	mov	sp, r7
 c002d42:	f85d 7b04 	ldr.w	r7, [sp], #4
 c002d46:	4770      	bx	lr
 c002d48:	e000edd0 	.word	0xe000edd0
 c002d4c:	0c03e000 	.word	0x0c03e000
 c002d50:	0c03ffe3 	.word	0x0c03ffe3
 c002d54:	08040000 	.word	0x08040000
 c002d58:	0807ffe1 	.word	0x0807ffe1
 c002d5c:	20018000 	.word	0x20018000
 c002d60:	2003ffe1 	.word	0x2003ffe1
 c002d64:	4fffffe1 	.word	0x4fffffe1
 c002d68:	9fffffe1 	.word	0x9fffffe1
 c002d6c:	0bf90000 	.word	0x0bf90000
 c002d70:	0bfa8fe1 	.word	0x0bfa8fe1
 c002d74:	e000ed00 	.word	0xe000ed00
 c002d78:	e000ef30 	.word	0xe000ef30
 c002d7c:	e000e100 	.word	0xe000e100

0c002d80 <main>:
/**
  * @brief  The application entry point.
  * @retval int
  */
int main(void)
{
 c002d80:	b580      	push	{r7, lr}
 c002d82:	af00      	add	r7, sp, #0
  /* SAU/IDAU, FPU and interrupts secure/non-secure allocation setup done */
  /* in SystemInit() based on partition_stm32l552xx.h file's definitions. */
  /* USER CODE BEGIN 1 */

  //enable SecureFault_Handler, without this HardFault_Handler will be raised.
  SCB->SHCSR |= SCB_SHCSR_SECUREFAULTENA_Msk;
 c002d84:	4b0d      	ldr	r3, [pc, #52]	; (c002dbc <main+0x3c>)
 c002d86:	6a5b      	ldr	r3, [r3, #36]	; 0x24
 c002d88:	4a0c      	ldr	r2, [pc, #48]	; (c002dbc <main+0x3c>)
 c002d8a:	f443 2300 	orr.w	r3, r3, #524288	; 0x80000
 c002d8e:	6253      	str	r3, [r2, #36]	; 0x24
  /* USER CODE END 1 */

  /* MCU Configuration--------------------------------------------------------*/

  /* Reset of all peripherals, Initializes the Flash interface and the Systick. */
  HAL_Init();
 c002d90:	f000 ff39 	bl	c003c06 <HAL_Init>
  /* USER CODE BEGIN Init */

  /* USER CODE END Init */

  /* Configure the system clock */
  SystemClock_Config();
 c002d94:	f000 f858 	bl	c002e48 <SystemClock_Config>
  /* GTZC initialisation */
  MX_GTZC_S_Init();
 c002d98:	f7ff fec2 	bl	c002b20 <MX_GTZC_S_Init>
  /* USER CODE BEGIN SysInit */

  /* USER CODE END SysInit */
 
  /* Initialize all configured peripherals */
  MX_GPIO_Init();
 c002d9c:	f7ff fea8 	bl	c002af0 <MX_GPIO_Init>
  MX_LPUART1_UART_Init();
 c002da0:	f000 fe34 	bl	c003a0c <MX_LPUART1_UART_Init>
  MX_TIM3_Init();
 c002da4:	f000 fd54 	bl	c003850 <MX_TIM3_Init>
  MX_TIM4_Init();
 c002da8:	f000 fda0 	bl	c0038ec <MX_TIM4_Init>

  /* USER CODE BEGIN 2 */
  // Configure SAU and NVIC
  TZ_SAU_Setup();
 c002dac:	f7ff ff6a 	bl	c002c84 <TZ_SAU_Setup>
//  SAU->CTRL = 1; //enable SAU
//  FLASH_init();
//  MPU_init();
  CFA_ENGINE_initialize();
 c002db0:	f7ff fe7e 	bl	c002ab0 <CFA_ENGINE_initialize>
  /* USER CODE END 2 */

  /*************** Setup and jump to non-secure *******************************/


  NonSecure_Init();
 c002db4:	f000 f804 	bl	c002dc0 <NonSecure_Init>

  /* Non-secure software does not return, this code is not executed */
  /* Infinite loop */
  /* USER CODE BEGIN WHILE */
  while (1)
 c002db8:	e7fe      	b.n	c002db8 <main+0x38>
 c002dba:	bf00      	nop
 c002dbc:	e000ed00 	.word	0xe000ed00

0c002dc0 <NonSecure_Init>:
  *         This function is responsible for Non-secure initialization and switch
  *         to non-secure state
  * @retval None
  */
static void NonSecure_Init(void)
{
 c002dc0:	b590      	push	{r4, r7, lr}
 c002dc2:	b083      	sub	sp, #12
 c002dc4:	af00      	add	r7, sp, #0
  funcptr_NS NonSecure_ResetHandler;

  SCB_NS->VTOR = VTOR_TABLE_NS_START_ADDR;
 c002dc6:	4b1d      	ldr	r3, [pc, #116]	; (c002e3c <NonSecure_Init+0x7c>)
 c002dc8:	4a1d      	ldr	r2, [pc, #116]	; (c002e40 <NonSecure_Init+0x80>)
 c002dca:	609a      	str	r2, [r3, #8]

  /* Set non-secure main stack (MSP_NS) */
  __TZ_set_MSP_NS((*(uint32_t *)VTOR_TABLE_NS_START_ADDR));
 c002dcc:	4b1c      	ldr	r3, [pc, #112]	; (c002e40 <NonSecure_Init+0x80>)
 c002dce:	681b      	ldr	r3, [r3, #0]
 c002dd0:	603b      	str	r3, [r7, #0]
  \details Assigns the given value to the non-secure Main Stack Pointer (MSP) when in secure state.
  \param [in]    topOfMainStack  Main Stack Pointer value to set
 */
__STATIC_FORCEINLINE void __TZ_set_MSP_NS(uint32_t topOfMainStack)
{
  __ASM volatile ("MSR msp_ns, %0" : : "r" (topOfMainStack) : );
 c002dd2:	683b      	ldr	r3, [r7, #0]
 c002dd4:	f383 8888 	msr	MSP_NS, r3
}
 c002dd8:	bf00      	nop

  /* Get non-secure reset handler */
  NonSecure_ResetHandler = (funcptr_NS)(*((uint32_t *)((VTOR_TABLE_NS_START_ADDR) + 4U)));
 c002dda:	4b1a      	ldr	r3, [pc, #104]	; (c002e44 <NonSecure_Init+0x84>)
 c002ddc:	681b      	ldr	r3, [r3, #0]
 c002dde:	607b      	str	r3, [r7, #4]

  /* Start non-secure state software application */
  NonSecure_ResetHandler();
 c002de0:	687b      	ldr	r3, [r7, #4]
 c002de2:	461c      	mov	r4, r3
 c002de4:	0864      	lsrs	r4, r4, #1
 c002de6:	0064      	lsls	r4, r4, #1
 c002de8:	4620      	mov	r0, r4
 c002dea:	4621      	mov	r1, r4
 c002dec:	4622      	mov	r2, r4
 c002dee:	4623      	mov	r3, r4
 c002df0:	eeb7 0a00 	vmov.f32	s0, #112	; 0x3f800000  1.0
 c002df4:	eef7 0a00 	vmov.f32	s1, #112	; 0x3f800000  1.0
 c002df8:	eeb7 1a00 	vmov.f32	s2, #112	; 0x3f800000  1.0
 c002dfc:	eef7 1a00 	vmov.f32	s3, #112	; 0x3f800000  1.0
 c002e00:	eeb7 2a00 	vmov.f32	s4, #112	; 0x3f800000  1.0
 c002e04:	eef7 2a00 	vmov.f32	s5, #112	; 0x3f800000  1.0
 c002e08:	eeb7 3a00 	vmov.f32	s6, #112	; 0x3f800000  1.0
 c002e0c:	eef7 3a00 	vmov.f32	s7, #112	; 0x3f800000  1.0
 c002e10:	eeb7 4a00 	vmov.f32	s8, #112	; 0x3f800000  1.0
 c002e14:	eef7 4a00 	vmov.f32	s9, #112	; 0x3f800000  1.0
 c002e18:	eeb7 5a00 	vmov.f32	s10, #112	; 0x3f800000  1.0
 c002e1c:	eef7 5a00 	vmov.f32	s11, #112	; 0x3f800000  1.0
 c002e20:	eeb7 6a00 	vmov.f32	s12, #112	; 0x3f800000  1.0
 c002e24:	eef7 6a00 	vmov.f32	s13, #112	; 0x3f800000  1.0
 c002e28:	eeb7 7a00 	vmov.f32	s14, #112	; 0x3f800000  1.0
 c002e2c:	eef7 7a00 	vmov.f32	s15, #112	; 0x3f800000  1.0
 c002e30:	f7fd fa0a 	bl	c000248 <__gnu_cmse_nonsecure_call>
}
 c002e34:	bf00      	nop
 c002e36:	370c      	adds	r7, #12
 c002e38:	46bd      	mov	sp, r7
 c002e3a:	bd90      	pop	{r4, r7, pc}
 c002e3c:	e002ed00 	.word	0xe002ed00
 c002e40:	08040000 	.word	0x08040000
 c002e44:	08040004 	.word	0x08040004

0c002e48 <SystemClock_Config>:
/**
  * @brief System Clock Configuration
  * @retval None
  */
void SystemClock_Config(void)
{
 c002e48:	b580      	push	{r7, lr}
 c002e4a:	b098      	sub	sp, #96	; 0x60
 c002e4c:	af00      	add	r7, sp, #0
  RCC_OscInitTypeDef RCC_OscInitStruct = {0};
 c002e4e:	f107 0318 	add.w	r3, r7, #24
 c002e52:	2248      	movs	r2, #72	; 0x48
 c002e54:	2100      	movs	r1, #0
 c002e56:	4618      	mov	r0, r3
 c002e58:	f004 ff35 	bl	c007cc6 <memset>
  RCC_ClkInitTypeDef RCC_ClkInitStruct = {0};
 c002e5c:	1d3b      	adds	r3, r7, #4
 c002e5e:	2200      	movs	r2, #0
 c002e60:	601a      	str	r2, [r3, #0]
 c002e62:	605a      	str	r2, [r3, #4]
 c002e64:	609a      	str	r2, [r3, #8]
 c002e66:	60da      	str	r2, [r3, #12]
 c002e68:	611a      	str	r2, [r3, #16]

  /** Configure the main internal regulator output voltage
  */
  if (HAL_PWREx_ControlVoltageScaling(PWR_REGULATOR_VOLTAGE_SCALE0) != HAL_OK)
 c002e6a:	2000      	movs	r0, #0
 c002e6c:	f001 fdec 	bl	c004a48 <HAL_PWREx_ControlVoltageScaling>
 c002e70:	4603      	mov	r3, r0
 c002e72:	2b00      	cmp	r3, #0
 c002e74:	d001      	beq.n	c002e7a <SystemClock_Config+0x32>
  {
    Error_Handler();
 c002e76:	f000 f837 	bl	c002ee8 <Error_Handler>
  }

  /** Initializes the RCC Oscillators according to the specified parameters
  * in the RCC_OscInitTypeDef structure.
  */
  RCC_OscInitStruct.OscillatorType = RCC_OSCILLATORTYPE_HSI;
 c002e7a:	2302      	movs	r3, #2
 c002e7c:	61bb      	str	r3, [r7, #24]
  RCC_OscInitStruct.HSIState = RCC_HSI_ON;
 c002e7e:	f44f 7380 	mov.w	r3, #256	; 0x100
 c002e82:	627b      	str	r3, [r7, #36]	; 0x24
  RCC_OscInitStruct.HSICalibrationValue = RCC_HSICALIBRATION_DEFAULT;
 c002e84:	2340      	movs	r3, #64	; 0x40
 c002e86:	62bb      	str	r3, [r7, #40]	; 0x28
  RCC_OscInitStruct.PLL.PLLState = RCC_PLL_ON;
 c002e88:	2302      	movs	r3, #2
 c002e8a:	647b      	str	r3, [r7, #68]	; 0x44
  RCC_OscInitStruct.PLL.PLLSource = RCC_PLLSOURCE_HSI;
 c002e8c:	2302      	movs	r3, #2
 c002e8e:	64bb      	str	r3, [r7, #72]	; 0x48
  RCC_OscInitStruct.PLL.PLLM = 4;
 c002e90:	2304      	movs	r3, #4
 c002e92:	64fb      	str	r3, [r7, #76]	; 0x4c
  RCC_OscInitStruct.PLL.PLLN = 55;
 c002e94:	2337      	movs	r3, #55	; 0x37
 c002e96:	653b      	str	r3, [r7, #80]	; 0x50
  RCC_OscInitStruct.PLL.PLLP = RCC_PLLP_DIV7;
 c002e98:	2307      	movs	r3, #7
 c002e9a:	657b      	str	r3, [r7, #84]	; 0x54
  RCC_OscInitStruct.PLL.PLLQ = RCC_PLLQ_DIV2;
 c002e9c:	2302      	movs	r3, #2
 c002e9e:	65bb      	str	r3, [r7, #88]	; 0x58
  RCC_OscInitStruct.PLL.PLLR = RCC_PLLR_DIV2;
 c002ea0:	2302      	movs	r3, #2
 c002ea2:	65fb      	str	r3, [r7, #92]	; 0x5c
  if (HAL_RCC_OscConfig(&RCC_OscInitStruct) != HAL_OK)
 c002ea4:	f107 0318 	add.w	r3, r7, #24
 c002ea8:	4618      	mov	r0, r3
 c002eaa:	f001 fe6d 	bl	c004b88 <HAL_RCC_OscConfig>
 c002eae:	4603      	mov	r3, r0
 c002eb0:	2b00      	cmp	r3, #0
 c002eb2:	d001      	beq.n	c002eb8 <SystemClock_Config+0x70>
  {
    Error_Handler();
 c002eb4:	f000 f818 	bl	c002ee8 <Error_Handler>
  }

  /** Initializes the CPU, AHB and APB buses clocks
  */
  RCC_ClkInitStruct.ClockType = RCC_CLOCKTYPE_HCLK|RCC_CLOCKTYPE_SYSCLK
 c002eb8:	230f      	movs	r3, #15
 c002eba:	607b      	str	r3, [r7, #4]
                              |RCC_CLOCKTYPE_PCLK1|RCC_CLOCKTYPE_PCLK2;
  RCC_ClkInitStruct.SYSCLKSource = RCC_SYSCLKSOURCE_PLLCLK;
 c002ebc:	2303      	movs	r3, #3
 c002ebe:	60bb      	str	r3, [r7, #8]
  RCC_ClkInitStruct.AHBCLKDivider = RCC_SYSCLK_DIV1;
 c002ec0:	2300      	movs	r3, #0
 c002ec2:	60fb      	str	r3, [r7, #12]
  RCC_ClkInitStruct.APB1CLKDivider = RCC_HCLK_DIV1;
 c002ec4:	2300      	movs	r3, #0
 c002ec6:	613b      	str	r3, [r7, #16]
  RCC_ClkInitStruct.APB2CLKDivider = RCC_HCLK_DIV1;
 c002ec8:	2300      	movs	r3, #0
 c002eca:	617b      	str	r3, [r7, #20]

  if (HAL_RCC_ClockConfig(&RCC_ClkInitStruct, FLASH_LATENCY_5) != HAL_OK)
 c002ecc:	1d3b      	adds	r3, r7, #4
 c002ece:	2105      	movs	r1, #5
 c002ed0:	4618      	mov	r0, r3
 c002ed2:	f002 fb3b 	bl	c00554c <HAL_RCC_ClockConfig>
 c002ed6:	4603      	mov	r3, r0
 c002ed8:	2b00      	cmp	r3, #0
 c002eda:	d001      	beq.n	c002ee0 <SystemClock_Config+0x98>
  {
    Error_Handler();
 c002edc:	f000 f804 	bl	c002ee8 <Error_Handler>
  }
}
 c002ee0:	bf00      	nop
 c002ee2:	3760      	adds	r7, #96	; 0x60
 c002ee4:	46bd      	mov	sp, r7
 c002ee6:	bd80      	pop	{r7, pc}

0c002ee8 <Error_Handler>:
/**
  * @brief  This function is executed in case of error occurrence.
  * @retval None
  */
void Error_Handler(void)
{
 c002ee8:	b480      	push	{r7}
 c002eea:	af00      	add	r7, sp, #0
  __ASM volatile ("cpsid i" : : : "memory");
 c002eec:	b672      	cpsid	i
}
 c002eee:	bf00      	nop
  /* USER CODE BEGIN Error_Handler_Debug */
  /* User can add his own implementation to report the HAL error return state */
  __disable_irq();
  while (1)
 c002ef0:	e7fe      	b.n	c002ef0 <Error_Handler+0x8>
	...

0c002ef4 <__acle_se_SECURE_RegisterCallback>:
  * @param  CallbackId  callback identifier
  * @param  func        pointer to non-secure function
  * @retval None
  */

CMSE_NS_ENTRY void SECURE_RegisterCallback(SECURE_CallbackIDTypeDef CallbackId, void *func){
 c002ef4:	b580      	push	{r7, lr}
 c002ef6:	b082      	sub	sp, #8
 c002ef8:	af00      	add	r7, sp, #0
 c002efa:	4603      	mov	r3, r0
 c002efc:	6039      	str	r1, [r7, #0]
 c002efe:	71fb      	strb	r3, [r7, #7]
  if(func != NULL)
 c002f00:	683b      	ldr	r3, [r7, #0]
 c002f02:	2b00      	cmp	r3, #0
 c002f04:	d017      	beq.n	c002f36 <__acle_se_SECURE_RegisterCallback+0x42>
  {
    switch(CallbackId)
 c002f06:	79fb      	ldrb	r3, [r7, #7]
 c002f08:	2b02      	cmp	r3, #2
 c002f0a:	d00e      	beq.n	c002f2a <__acle_se_SECURE_RegisterCallback+0x36>
 c002f0c:	2b02      	cmp	r3, #2
 c002f0e:	dc14      	bgt.n	c002f3a <__acle_se_SECURE_RegisterCallback+0x46>
 c002f10:	2b00      	cmp	r3, #0
 c002f12:	d002      	beq.n	c002f1a <__acle_se_SECURE_RegisterCallback+0x26>
 c002f14:	2b01      	cmp	r3, #1
 c002f16:	d004      	beq.n	c002f22 <__acle_se_SECURE_RegisterCallback+0x2e>
      case ATTESTATION_APP_ID:
			pAttestationFunctionCallback = func;
			CFA_ENGINE_register_callback();
			break;
      default:
        break;
 c002f18:	e00f      	b.n	c002f3a <__acle_se_SECURE_RegisterCallback+0x46>
			pSecureFaultCallback = func;
 c002f1a:	4a25      	ldr	r2, [pc, #148]	; (c002fb0 <__acle_se_SECURE_RegisterCallback+0xbc>)
 c002f1c:	683b      	ldr	r3, [r7, #0]
 c002f1e:	6013      	str	r3, [r2, #0]
			break;
 c002f20:	e00c      	b.n	c002f3c <__acle_se_SECURE_RegisterCallback+0x48>
			pSecureErrorCallback = func;
 c002f22:	4a24      	ldr	r2, [pc, #144]	; (c002fb4 <__acle_se_SECURE_RegisterCallback+0xc0>)
 c002f24:	683b      	ldr	r3, [r7, #0]
 c002f26:	6013      	str	r3, [r2, #0]
			break;
 c002f28:	e008      	b.n	c002f3c <__acle_se_SECURE_RegisterCallback+0x48>
			pAttestationFunctionCallback = func;
 c002f2a:	4a23      	ldr	r2, [pc, #140]	; (c002fb8 <__acle_se_SECURE_RegisterCallback+0xc4>)
 c002f2c:	683b      	ldr	r3, [r7, #0]
 c002f2e:	6013      	str	r3, [r2, #0]
			CFA_ENGINE_register_callback();
 c002f30:	f7ff f8f6 	bl	c002120 <CFA_ENGINE_register_callback>
			break;
 c002f34:	e002      	b.n	c002f3c <__acle_se_SECURE_RegisterCallback+0x48>
    }
  }
 c002f36:	bf00      	nop
 c002f38:	e000      	b.n	c002f3c <__acle_se_SECURE_RegisterCallback+0x48>
        break;
 c002f3a:	bf00      	nop
}
 c002f3c:	bf00      	nop
 c002f3e:	3708      	adds	r7, #8
 c002f40:	46bd      	mov	sp, r7
 c002f42:	e8bd 4080 	ldmia.w	sp!, {r7, lr}
 c002f46:	4670      	mov	r0, lr
 c002f48:	4671      	mov	r1, lr
 c002f4a:	4672      	mov	r2, lr
 c002f4c:	4673      	mov	r3, lr
 c002f4e:	eeb7 0a00 	vmov.f32	s0, #112	; 0x3f800000  1.0
 c002f52:	eef7 0a00 	vmov.f32	s1, #112	; 0x3f800000  1.0
 c002f56:	eeb7 1a00 	vmov.f32	s2, #112	; 0x3f800000  1.0
 c002f5a:	eef7 1a00 	vmov.f32	s3, #112	; 0x3f800000  1.0
 c002f5e:	eeb7 2a00 	vmov.f32	s4, #112	; 0x3f800000  1.0
 c002f62:	eef7 2a00 	vmov.f32	s5, #112	; 0x3f800000  1.0
 c002f66:	eeb7 3a00 	vmov.f32	s6, #112	; 0x3f800000  1.0
 c002f6a:	eef7 3a00 	vmov.f32	s7, #112	; 0x3f800000  1.0
 c002f6e:	eeb7 4a00 	vmov.f32	s8, #112	; 0x3f800000  1.0
 c002f72:	eef7 4a00 	vmov.f32	s9, #112	; 0x3f800000  1.0
 c002f76:	eeb7 5a00 	vmov.f32	s10, #112	; 0x3f800000  1.0
 c002f7a:	eef7 5a00 	vmov.f32	s11, #112	; 0x3f800000  1.0
 c002f7e:	eeb7 6a00 	vmov.f32	s12, #112	; 0x3f800000  1.0
 c002f82:	eef7 6a00 	vmov.f32	s13, #112	; 0x3f800000  1.0
 c002f86:	eeb7 7a00 	vmov.f32	s14, #112	; 0x3f800000  1.0
 c002f8a:	eef7 7a00 	vmov.f32	s15, #112	; 0x3f800000  1.0
 c002f8e:	f38e 8c00 	msr	CPSR_fs, lr
 c002f92:	b410      	push	{r4}
 c002f94:	eef1 ca10 	vmrs	ip, fpscr
 c002f98:	f64f 7460 	movw	r4, #65376	; 0xff60
 c002f9c:	f6c0 74ff 	movt	r4, #4095	; 0xfff
 c002fa0:	ea0c 0c04 	and.w	ip, ip, r4
 c002fa4:	eee1 ca10 	vmsr	fpscr, ip
 c002fa8:	bc10      	pop	{r4}
 c002faa:	46f4      	mov	ip, lr
 c002fac:	4774      	bxns	lr
 c002fae:	bf00      	nop
 c002fb0:	300006fc 	.word	0x300006fc
 c002fb4:	30000700 	.word	0x30000700
 c002fb8:	30000704 	.word	0x30000704

0c002fbc <__acle_se_SECURE_RunCallback>:

CMSE_NS_ENTRY void SECURE_RunCallback(){
 c002fbc:	b580      	push	{r7, lr}
 c002fbe:	af00      	add	r7, sp, #0
	CFA_ENGINE_run_attestation(0x23FA);
 c002fc0:	f242 30fa 	movw	r0, #9210	; 0x23fa
 c002fc4:	f7ff fcce 	bl	c002964 <CFA_ENGINE_run_attestation>
	return;
 c002fc8:	bf00      	nop
}
 c002fca:	46bd      	mov	sp, r7
 c002fcc:	e8bd 4080 	ldmia.w	sp!, {r7, lr}
 c002fd0:	4670      	mov	r0, lr
 c002fd2:	4671      	mov	r1, lr
 c002fd4:	4672      	mov	r2, lr
 c002fd6:	4673      	mov	r3, lr
 c002fd8:	eeb7 0a00 	vmov.f32	s0, #112	; 0x3f800000  1.0
 c002fdc:	eef7 0a00 	vmov.f32	s1, #112	; 0x3f800000  1.0
 c002fe0:	eeb7 1a00 	vmov.f32	s2, #112	; 0x3f800000  1.0
 c002fe4:	eef7 1a00 	vmov.f32	s3, #112	; 0x3f800000  1.0
 c002fe8:	eeb7 2a00 	vmov.f32	s4, #112	; 0x3f800000  1.0
 c002fec:	eef7 2a00 	vmov.f32	s5, #112	; 0x3f800000  1.0
 c002ff0:	eeb7 3a00 	vmov.f32	s6, #112	; 0x3f800000  1.0
 c002ff4:	eef7 3a00 	vmov.f32	s7, #112	; 0x3f800000  1.0
 c002ff8:	eeb7 4a00 	vmov.f32	s8, #112	; 0x3f800000  1.0
 c002ffc:	eef7 4a00 	vmov.f32	s9, #112	; 0x3f800000  1.0
 c003000:	eeb7 5a00 	vmov.f32	s10, #112	; 0x3f800000  1.0
 c003004:	eef7 5a00 	vmov.f32	s11, #112	; 0x3f800000  1.0
 c003008:	eeb7 6a00 	vmov.f32	s12, #112	; 0x3f800000  1.0
 c00300c:	eef7 6a00 	vmov.f32	s13, #112	; 0x3f800000  1.0
 c003010:	eeb7 7a00 	vmov.f32	s14, #112	; 0x3f800000  1.0
 c003014:	eef7 7a00 	vmov.f32	s15, #112	; 0x3f800000  1.0
 c003018:	f38e 8c00 	msr	CPSR_fs, lr
 c00301c:	b410      	push	{r4}
 c00301e:	eef1 ca10 	vmrs	ip, fpscr
 c003022:	f64f 7460 	movw	r4, #65376	; 0xff60
 c003026:	f6c0 74ff 	movt	r4, #4095	; 0xfff
 c00302a:	ea0c 0c04 	and.w	ip, ip, r4
 c00302e:	eee1 ca10 	vmsr	fpscr, ip
 c003032:	bc10      	pop	{r4}
 c003034:	46f4      	mov	ip, lr
 c003036:	4774      	bxns	lr

0c003038 <__acle_se_SECURE_Initialize_CFA_engine>:

CMSE_NS_ENTRY void SECURE_Initialize_CFA_engine(){
 c003038:	b580      	push	{r7, lr}
 c00303a:	af00      	add	r7, sp, #0
	CFA_ENGINE_initialize();
 c00303c:	f7ff fd38 	bl	c002ab0 <CFA_ENGINE_initialize>
	return;
 c003040:	bf00      	nop
}
 c003042:	46bd      	mov	sp, r7
 c003044:	e8bd 4080 	ldmia.w	sp!, {r7, lr}
 c003048:	4670      	mov	r0, lr
 c00304a:	4671      	mov	r1, lr
 c00304c:	4672      	mov	r2, lr
 c00304e:	4673      	mov	r3, lr
 c003050:	eeb7 0a00 	vmov.f32	s0, #112	; 0x3f800000  1.0
 c003054:	eef7 0a00 	vmov.f32	s1, #112	; 0x3f800000  1.0
 c003058:	eeb7 1a00 	vmov.f32	s2, #112	; 0x3f800000  1.0
 c00305c:	eef7 1a00 	vmov.f32	s3, #112	; 0x3f800000  1.0
 c003060:	eeb7 2a00 	vmov.f32	s4, #112	; 0x3f800000  1.0
 c003064:	eef7 2a00 	vmov.f32	s5, #112	; 0x3f800000  1.0
 c003068:	eeb7 3a00 	vmov.f32	s6, #112	; 0x3f800000  1.0
 c00306c:	eef7 3a00 	vmov.f32	s7, #112	; 0x3f800000  1.0
 c003070:	eeb7 4a00 	vmov.f32	s8, #112	; 0x3f800000  1.0
 c003074:	eef7 4a00 	vmov.f32	s9, #112	; 0x3f800000  1.0
 c003078:	eeb7 5a00 	vmov.f32	s10, #112	; 0x3f800000  1.0
 c00307c:	eef7 5a00 	vmov.f32	s11, #112	; 0x3f800000  1.0
 c003080:	eeb7 6a00 	vmov.f32	s12, #112	; 0x3f800000  1.0
 c003084:	eef7 6a00 	vmov.f32	s13, #112	; 0x3f800000  1.0
 c003088:	eeb7 7a00 	vmov.f32	s14, #112	; 0x3f800000  1.0
 c00308c:	eef7 7a00 	vmov.f32	s15, #112	; 0x3f800000  1.0
 c003090:	f38e 8c00 	msr	CPSR_fs, lr
 c003094:	b410      	push	{r4}
 c003096:	eef1 ca10 	vmrs	ip, fpscr
 c00309a:	f64f 7460 	movw	r4, #65376	; 0xff60
 c00309e:	f6c0 74ff 	movt	r4, #4095	; 0xfff
 c0030a2:	ea0c 0c04 	and.w	ip, ip, r4
 c0030a6:	eee1 ca10 	vmsr	fpscr, ip
 c0030aa:	bc10      	pop	{r4}
 c0030ac:	46f4      	mov	ip, lr
 c0030ae:	4774      	bxns	lr

0c0030b0 <__acle_se_SECURE_Initialize_Attestation>:

CMSE_NS_ENTRY void SECURE_Initialize_Attestation(){
 c0030b0:	b580      	push	{r7, lr}
 c0030b2:	af00      	add	r7, sp, #0
	CFA_ENGINE_initialize();
 c0030b4:	f7ff fcfc 	bl	c002ab0 <CFA_ENGINE_initialize>
	return;
 c0030b8:	bf00      	nop
}
 c0030ba:	46bd      	mov	sp, r7
 c0030bc:	e8bd 4080 	ldmia.w	sp!, {r7, lr}
 c0030c0:	4670      	mov	r0, lr
 c0030c2:	4671      	mov	r1, lr
 c0030c4:	4672      	mov	r2, lr
 c0030c6:	4673      	mov	r3, lr
 c0030c8:	eeb7 0a00 	vmov.f32	s0, #112	; 0x3f800000  1.0
 c0030cc:	eef7 0a00 	vmov.f32	s1, #112	; 0x3f800000  1.0
 c0030d0:	eeb7 1a00 	vmov.f32	s2, #112	; 0x3f800000  1.0
 c0030d4:	eef7 1a00 	vmov.f32	s3, #112	; 0x3f800000  1.0
 c0030d8:	eeb7 2a00 	vmov.f32	s4, #112	; 0x3f800000  1.0
 c0030dc:	eef7 2a00 	vmov.f32	s5, #112	; 0x3f800000  1.0
 c0030e0:	eeb7 3a00 	vmov.f32	s6, #112	; 0x3f800000  1.0
 c0030e4:	eef7 3a00 	vmov.f32	s7, #112	; 0x3f800000  1.0
 c0030e8:	eeb7 4a00 	vmov.f32	s8, #112	; 0x3f800000  1.0
 c0030ec:	eef7 4a00 	vmov.f32	s9, #112	; 0x3f800000  1.0
 c0030f0:	eeb7 5a00 	vmov.f32	s10, #112	; 0x3f800000  1.0
 c0030f4:	eef7 5a00 	vmov.f32	s11, #112	; 0x3f800000  1.0
 c0030f8:	eeb7 6a00 	vmov.f32	s12, #112	; 0x3f800000  1.0
 c0030fc:	eef7 6a00 	vmov.f32	s13, #112	; 0x3f800000  1.0
 c003100:	eeb7 7a00 	vmov.f32	s14, #112	; 0x3f800000  1.0
 c003104:	eef7 7a00 	vmov.f32	s15, #112	; 0x3f800000  1.0
 c003108:	f38e 8c00 	msr	CPSR_fs, lr
 c00310c:	b410      	push	{r4}
 c00310e:	eef1 ca10 	vmrs	ip, fpscr
 c003112:	f64f 7460 	movw	r4, #65376	; 0xff60
 c003116:	f6c0 74ff 	movt	r4, #4095	; 0xfff
 c00311a:	ea0c 0c04 	and.w	ip, ip, r4
 c00311e:	eee1 ca10 	vmsr	fpscr, ip
 c003122:	bc10      	pop	{r4}
 c003124:	46f4      	mov	ip, lr
 c003126:	4774      	bxns	lr

0c003128 <__acle_se_SECURE_log_ret>:

CMSE_NS_ENTRY __attribute ((naked)) void SECURE_log_ret(){
	__asm__ volatile("push	{r0, r1, r2, r3, r7, r12}");
 c003128:	e92d 108f 	stmdb	sp!, {r0, r1, r2, r3, r7, ip}
	__asm__ volatile("sub	sp, sp, #24");
 c00312c:	b086      	sub	sp, #24
	__asm__ volatile("add	r7, sp, #0");
 c00312e:	af00      	add	r7, sp, #0
	__asm__ volatile("push	{r7, lr}");
 c003130:	b580      	push	{r7, lr}
	__asm__ volatile("sub	sp, sp, #8");
 c003132:	b082      	sub	sp, #8
	__asm__ volatile("add	r7, sp, #0");
 c003134:	af00      	add	r7, sp, #0

	uint32_t inst_addr;
	asm("mov %0, lr" : "=r"(inst_addr));
 c003136:	4673      	mov	r3, lr
 c003138:	461c      	mov	r4, r3
	CFA_ENGINE_new_log_entry(inst_addr);
 c00313a:	4620      	mov	r0, r4
 c00313c:	f7ff fb54 	bl	c0027e8 <CFA_ENGINE_new_log_entry>

	__asm__ volatile("nop");
 c003140:	bf00      	nop
	__asm__ volatile("adds	r7, r7, #8");
 c003142:	3708      	adds	r7, #8
	__asm__ volatile("mov	sp, r7");
 c003144:	46bd      	mov	sp, r7
	__asm__ volatile("pop	{r7, lr}");
 c003146:	e8bd 4080 	ldmia.w	sp!, {r7, lr}
	__asm__ volatile("mov	r0, lr");
 c00314a:	4670      	mov	r0, lr
	__asm__ volatile("mov	r1, lr");
 c00314c:	4671      	mov	r1, lr
	__asm__ volatile("mov	r2, lr");
 c00314e:	4672      	mov	r2, lr
	__asm__ volatile("mov	r3, lr");
 c003150:	4673      	mov	r3, lr
	__asm__ volatile("vmov.f32	s0, #1.0e+0");
 c003152:	eeb7 0a00 	vmov.f32	s0, #112	; 0x3f800000  1.0
	__asm__ volatile("vmov.f32	s1, #1.0e+0");
 c003156:	eef7 0a00 	vmov.f32	s1, #112	; 0x3f800000  1.0
	__asm__ volatile("vmov.f32	s2, #1.0e+0");
 c00315a:	eeb7 1a00 	vmov.f32	s2, #112	; 0x3f800000  1.0
	__asm__ volatile("vmov.f32	s3, #1.0e+0");
 c00315e:	eef7 1a00 	vmov.f32	s3, #112	; 0x3f800000  1.0
	__asm__ volatile("vmov.f32	s4, #1.0e+0");
 c003162:	eeb7 2a00 	vmov.f32	s4, #112	; 0x3f800000  1.0
	__asm__ volatile("vmov.f32	s5, #1.0e+0");
 c003166:	eef7 2a00 	vmov.f32	s5, #112	; 0x3f800000  1.0
	__asm__ volatile("vmov.f32	s6, #1.0e+0");
 c00316a:	eeb7 3a00 	vmov.f32	s6, #112	; 0x3f800000  1.0
	__asm__ volatile("vmov.f32	s7, #1.0e+0");
 c00316e:	eef7 3a00 	vmov.f32	s7, #112	; 0x3f800000  1.0
	__asm__ volatile("vmov.f32	s8, #1.0e+0");
 c003172:	eeb7 4a00 	vmov.f32	s8, #112	; 0x3f800000  1.0
	__asm__ volatile("vmov.f32	s9, #1.0e+0");
 c003176:	eef7 4a00 	vmov.f32	s9, #112	; 0x3f800000  1.0
	__asm__ volatile("vmov.f32	s10, #1.0e+0");
 c00317a:	eeb7 5a00 	vmov.f32	s10, #112	; 0x3f800000  1.0
	__asm__ volatile("vmov.f32	s11, #1.0e+0");
 c00317e:	eef7 5a00 	vmov.f32	s11, #112	; 0x3f800000  1.0
	__asm__ volatile("vmov.f32	s12, #1.0e+0");
 c003182:	eeb7 6a00 	vmov.f32	s12, #112	; 0x3f800000  1.0
	__asm__ volatile("vmov.f32	s13, #1.0e+0");
 c003186:	eef7 6a00 	vmov.f32	s13, #112	; 0x3f800000  1.0
	__asm__ volatile("vmov.f32	s14, #1.0e+0");
 c00318a:	eeb7 7a00 	vmov.f32	s14, #112	; 0x3f800000  1.0
	__asm__ volatile("vmov.f32	s15, #1.0e+0");
 c00318e:	eef7 7a00 	vmov.f32	s15, #112	; 0x3f800000  1.0
	__asm__ volatile("msr	APSR_nzcvqg, lr");
 c003192:	f38e 8c00 	msr	CPSR_fs, lr
	__asm__ volatile("push	{r4}");
 c003196:	b410      	push	{r4}
	__asm__ volatile("vmrs	ip, fpscr");
 c003198:	eef1 ca10 	vmrs	ip, fpscr
	__asm__ volatile("movw	r4, #65376");
 c00319c:	f64f 7460 	movw	r4, #65376	; 0xff60
	__asm__ volatile("movt	r4, #4095");
 c0031a0:	f6c0 74ff 	movt	r4, #4095	; 0xfff
	__asm__ volatile("and	ip, r4");
 c0031a4:	ea0c 0c04 	and.w	ip, ip, r4
	__asm__ volatile("vmsr	fpscr, ip");
 c0031a8:	eee1 ca10 	vmsr	fpscr, ip
	__asm__ volatile("pop	{r4}");
 c0031ac:	bc10      	pop	{r4}
	__asm__ volatile("mov	ip, lr");
 c0031ae:	46f4      	mov	ip, lr
	__asm__ volatile("adds	r7, r7, #24");
 c0031b0:	3718      	adds	r7, #24
	__asm__ volatile("mov	sp, r7");
 c0031b2:	46bd      	mov	sp, r7
	__asm__ volatile("pop	{r0, r1, r2, r3, r7, r12}");
 c0031b4:	e8bd 108f 	ldmia.w	sp!, {r0, r1, r2, r3, r7, ip}
	__asm__ volatile("bics	lr, #1");
 c0031b8:	f03e 0e01 	bics.w	lr, lr, #1
	__asm__ volatile("bxns	lr");
 c0031bc:	4774      	bxns	lr
}
 c0031be:	bf00      	nop

0c0031c0 <__acle_se_SECURE_log_call>:

CMSE_NS_ENTRY __attribute ((naked)) void SECURE_log_call(uint32_t addr){
	__asm__ volatile("push	{r0, r1, r2, r3, r7, r10}");
 c0031c0:	e92d 048f 	stmdb	sp!, {r0, r1, r2, r3, r7, sl}
	__asm__ volatile("sub	sp, sp, #24");
 c0031c4:	b086      	sub	sp, #24
	__asm__ volatile("add	r7, sp, #0");
 c0031c6:	af00      	add	r7, sp, #0
	__asm__ volatile("push	{r7, lr}");
 c0031c8:	b580      	push	{r7, lr}
	__asm__ volatile("sub	sp, sp, #8");
 c0031ca:	b082      	sub	sp, #8
	__asm__ volatile("add	r7, sp, #0");
 c0031cc:	af00      	add	r7, sp, #0
	__asm__ volatile("sub	r0, r10, #1");
 c0031ce:	f1aa 0001 	sub.w	r0, sl, #1
	__asm__ volatile("bl	CFA_ENGINE_new_log_entry");
 c0031d2:	f7ff fb09 	bl	c0027e8 <CFA_ENGINE_new_log_entry>
	__asm__ volatile("nop");
 c0031d6:	bf00      	nop
	__asm__ volatile("adds	r7, r7, #8");
 c0031d8:	3708      	adds	r7, #8
	__asm__ volatile("mov	sp, r7");
 c0031da:	46bd      	mov	sp, r7
	__asm__ volatile("pop	{r7, lr}");
 c0031dc:	e8bd 4080 	ldmia.w	sp!, {r7, lr}
	__asm__ volatile("mov	r0, lr");
 c0031e0:	4670      	mov	r0, lr
	__asm__ volatile("mov	r1, lr");
 c0031e2:	4671      	mov	r1, lr
	__asm__ volatile("mov	r2, lr");
 c0031e4:	4672      	mov	r2, lr
	__asm__ volatile("mov	r3, lr");
 c0031e6:	4673      	mov	r3, lr
	__asm__ volatile("vmov.f32	s0, #1.0e+0");
 c0031e8:	eeb7 0a00 	vmov.f32	s0, #112	; 0x3f800000  1.0
	__asm__ volatile("vmov.f32	s1, #1.0e+0");
 c0031ec:	eef7 0a00 	vmov.f32	s1, #112	; 0x3f800000  1.0
	__asm__ volatile("vmov.f32	s2, #1.0e+0");
 c0031f0:	eeb7 1a00 	vmov.f32	s2, #112	; 0x3f800000  1.0
	__asm__ volatile("vmov.f32	s3, #1.0e+0");
 c0031f4:	eef7 1a00 	vmov.f32	s3, #112	; 0x3f800000  1.0
	__asm__ volatile("vmov.f32	s4, #1.0e+0");
 c0031f8:	eeb7 2a00 	vmov.f32	s4, #112	; 0x3f800000  1.0
	__asm__ volatile("vmov.f32	s5, #1.0e+0");
 c0031fc:	eef7 2a00 	vmov.f32	s5, #112	; 0x3f800000  1.0
	__asm__ volatile("vmov.f32	s6, #1.0e+0");
 c003200:	eeb7 3a00 	vmov.f32	s6, #112	; 0x3f800000  1.0
	__asm__ volatile("vmov.f32	s7, #1.0e+0");
 c003204:	eef7 3a00 	vmov.f32	s7, #112	; 0x3f800000  1.0
	__asm__ volatile("vmov.f32	s8, #1.0e+0");
 c003208:	eeb7 4a00 	vmov.f32	s8, #112	; 0x3f800000  1.0
	__asm__ volatile("vmov.f32	s9, #1.0e+0");
 c00320c:	eef7 4a00 	vmov.f32	s9, #112	; 0x3f800000  1.0
	__asm__ volatile("vmov.f32	s10, #1.0e+0");
 c003210:	eeb7 5a00 	vmov.f32	s10, #112	; 0x3f800000  1.0
	__asm__ volatile("vmov.f32	s11, #1.0e+0");
 c003214:	eef7 5a00 	vmov.f32	s11, #112	; 0x3f800000  1.0
	__asm__ volatile("vmov.f32	s12, #1.0e+0");
 c003218:	eeb7 6a00 	vmov.f32	s12, #112	; 0x3f800000  1.0
	__asm__ volatile("vmov.f32	s13, #1.0e+0");
 c00321c:	eef7 6a00 	vmov.f32	s13, #112	; 0x3f800000  1.0
	__asm__ volatile("vmov.f32	s14, #1.0e+0");
 c003220:	eeb7 7a00 	vmov.f32	s14, #112	; 0x3f800000  1.0
	__asm__ volatile("vmov.f32	s15, #1.0e+0");
 c003224:	eef7 7a00 	vmov.f32	s15, #112	; 0x3f800000  1.0
	__asm__ volatile("msr	APSR_nzcvqg, lr");
 c003228:	f38e 8c00 	msr	CPSR_fs, lr
	__asm__ volatile("vmrs	ip, fpscr");
 c00322c:	eef1 ca10 	vmrs	ip, fpscr
	__asm__ volatile("movw	r4, #65376");
 c003230:	f64f 7460 	movw	r4, #65376	; 0xff60
	__asm__ volatile("movt	r4, #4095");
 c003234:	f6c0 74ff 	movt	r4, #4095	; 0xfff
	__asm__ volatile("and	ip, r4");
 c003238:	ea0c 0c04 	and.w	ip, ip, r4
	__asm__ volatile("vmsr	fpscr, ip");
 c00323c:	eee1 ca10 	vmsr	fpscr, ip
	__asm__ volatile("mov	ip, lr");
 c003240:	46f4      	mov	ip, lr
	__asm__ volatile("adds	r7, r7, #24");
 c003242:	3718      	adds	r7, #24
	__asm__ volatile("mov	sp, r7");
 c003244:	46bd      	mov	sp, r7
	__asm__ volatile("pop	{r0, r1, r2, r3, r7, r10}");
 c003246:	e8bd 048f 	ldmia.w	sp!, {r0, r1, r2, r3, r7, sl}
	__asm__ volatile("bics	r10, #1");
 c00324a:	f03a 0a01 	bics.w	sl, sl, #1
	__asm__ volatile("bxns	r10");
 c00324e:	4754      	bxns	sl
}
 c003250:	bf00      	nop

0c003252 <__acle_se_SECURE_log_cond_br>:


CMSE_NS_ENTRY __attribute ((naked)) void SECURE_log_cond_br(){;
	__asm__ volatile("push	{r0, r1, r2, r3, r7, r12}");
 c003252:	e92d 108f 	stmdb	sp!, {r0, r1, r2, r3, r7, ip}
	__asm__ volatile("sub	sp, sp, #24");
 c003256:	b086      	sub	sp, #24
	__asm__ volatile("add	r7, sp, #0");
 c003258:	af00      	add	r7, sp, #0
	__asm__ volatile("push	{r7, lr}");
 c00325a:	b580      	push	{r7, lr}
	__asm__ volatile("sub	sp, sp, #8");
 c00325c:	b082      	sub	sp, #8
	__asm__ volatile("add	r7, sp, #0");
 c00325e:	af00      	add	r7, sp, #0

	uint32_t inst_addr;
	asm("mov %0, lr" : "=r"(inst_addr));
 c003260:	4673      	mov	r3, lr
 c003262:	461c      	mov	r4, r3
	inst_addr -= 4;
 c003264:	3c04      	subs	r4, #4
	CFA_ENGINE_new_log_entry(inst_addr);
 c003266:	4620      	mov	r0, r4
 c003268:	f7ff fabe 	bl	c0027e8 <CFA_ENGINE_new_log_entry>

	__asm__ volatile("nop");
 c00326c:	bf00      	nop
	__asm__ volatile("adds	r7, r7, #8");
 c00326e:	3708      	adds	r7, #8
	__asm__ volatile("mov	sp, r7");
 c003270:	46bd      	mov	sp, r7
	__asm__ volatile("pop	{r7, lr}");
 c003272:	e8bd 4080 	ldmia.w	sp!, {r7, lr}
	__asm__ volatile("mov	r0, lr");
 c003276:	4670      	mov	r0, lr
	__asm__ volatile("mov	r1, lr");
 c003278:	4671      	mov	r1, lr
	__asm__ volatile("mov	r2, lr");
 c00327a:	4672      	mov	r2, lr
	__asm__ volatile("mov	r3, lr");
 c00327c:	4673      	mov	r3, lr
	__asm__ volatile("vmov.f32	s0, #1.0e+0");
 c00327e:	eeb7 0a00 	vmov.f32	s0, #112	; 0x3f800000  1.0
	__asm__ volatile("vmov.f32	s1, #1.0e+0");
 c003282:	eef7 0a00 	vmov.f32	s1, #112	; 0x3f800000  1.0
	__asm__ volatile("vmov.f32	s2, #1.0e+0");
 c003286:	eeb7 1a00 	vmov.f32	s2, #112	; 0x3f800000  1.0
	__asm__ volatile("vmov.f32	s3, #1.0e+0");
 c00328a:	eef7 1a00 	vmov.f32	s3, #112	; 0x3f800000  1.0
	__asm__ volatile("vmov.f32	s4, #1.0e+0");
 c00328e:	eeb7 2a00 	vmov.f32	s4, #112	; 0x3f800000  1.0
	__asm__ volatile("vmov.f32	s5, #1.0e+0");
 c003292:	eef7 2a00 	vmov.f32	s5, #112	; 0x3f800000  1.0
	__asm__ volatile("vmov.f32	s6, #1.0e+0");
 c003296:	eeb7 3a00 	vmov.f32	s6, #112	; 0x3f800000  1.0
	__asm__ volatile("vmov.f32	s7, #1.0e+0");
 c00329a:	eef7 3a00 	vmov.f32	s7, #112	; 0x3f800000  1.0
	__asm__ volatile("vmov.f32	s8, #1.0e+0");
 c00329e:	eeb7 4a00 	vmov.f32	s8, #112	; 0x3f800000  1.0
	__asm__ volatile("vmov.f32	s9, #1.0e+0");
 c0032a2:	eef7 4a00 	vmov.f32	s9, #112	; 0x3f800000  1.0
	__asm__ volatile("vmov.f32	s10, #1.0e+0");
 c0032a6:	eeb7 5a00 	vmov.f32	s10, #112	; 0x3f800000  1.0
	__asm__ volatile("vmov.f32	s11, #1.0e+0");
 c0032aa:	eef7 5a00 	vmov.f32	s11, #112	; 0x3f800000  1.0
	__asm__ volatile("vmov.f32	s12, #1.0e+0");
 c0032ae:	eeb7 6a00 	vmov.f32	s12, #112	; 0x3f800000  1.0
	__asm__ volatile("vmov.f32	s13, #1.0e+0");
 c0032b2:	eef7 6a00 	vmov.f32	s13, #112	; 0x3f800000  1.0
	__asm__ volatile("vmov.f32	s14, #1.0e+0");
 c0032b6:	eeb7 7a00 	vmov.f32	s14, #112	; 0x3f800000  1.0
	__asm__ volatile("vmov.f32	s15, #1.0e+0");
 c0032ba:	eef7 7a00 	vmov.f32	s15, #112	; 0x3f800000  1.0
	__asm__ volatile("msr	APSR_nzcvqg, lr");
 c0032be:	f38e 8c00 	msr	CPSR_fs, lr
	__asm__ volatile("push	{r4}");
 c0032c2:	b410      	push	{r4}
	__asm__ volatile("vmrs	ip, fpscr");
 c0032c4:	eef1 ca10 	vmrs	ip, fpscr
	__asm__ volatile("movw	r4, #65376");
 c0032c8:	f64f 7460 	movw	r4, #65376	; 0xff60
	__asm__ volatile("movt	r4, #4095");
 c0032cc:	f6c0 74ff 	movt	r4, #4095	; 0xfff
	__asm__ volatile("and	ip, r4");
 c0032d0:	ea0c 0c04 	and.w	ip, ip, r4
	__asm__ volatile("vmsr	fpscr, ip");
 c0032d4:	eee1 ca10 	vmsr	fpscr, ip
	__asm__ volatile("pop	{r4}");
 c0032d8:	bc10      	pop	{r4}
	__asm__ volatile("mov	ip, lr");
 c0032da:	46f4      	mov	ip, lr
	__asm__ volatile("adds	r7, r7, #24");
 c0032dc:	3718      	adds	r7, #24
	__asm__ volatile("mov	sp, r7");
 c0032de:	46bd      	mov	sp, r7
	__asm__ volatile("pop	{r0, r1, r2, r3, r7, r12}");
 c0032e0:	e8bd 108f 	ldmia.w	sp!, {r0, r1, r2, r3, r7, ip}
	__asm__ volatile("bics	lr, #1");
 c0032e4:	f03e 0e01 	bics.w	lr, lr, #1
	__asm__ volatile("bxns	lr");
 c0032e8:	4774      	bxns	lr
}
 c0032ea:	bf00      	nop

0c0032ec <__acle_se_SECURE_run_attestation_wait_mode>:

CMSE_NS_ENTRY void  SECURE_run_attestation_wait_mode(){
 c0032ec:	b580      	push	{r7, lr}
 c0032ee:	af00      	add	r7, sp, #0
	CFA_ENGINE_start();
 c0032f0:	f7fe ff0a 	bl	c002108 <CFA_ENGINE_start>
	return;
 c0032f4:	bf00      	nop
};
 c0032f6:	46bd      	mov	sp, r7
 c0032f8:	e8bd 4080 	ldmia.w	sp!, {r7, lr}
 c0032fc:	4670      	mov	r0, lr
 c0032fe:	4671      	mov	r1, lr
 c003300:	4672      	mov	r2, lr
 c003302:	4673      	mov	r3, lr
 c003304:	eeb7 0a00 	vmov.f32	s0, #112	; 0x3f800000  1.0
 c003308:	eef7 0a00 	vmov.f32	s1, #112	; 0x3f800000  1.0
 c00330c:	eeb7 1a00 	vmov.f32	s2, #112	; 0x3f800000  1.0
 c003310:	eef7 1a00 	vmov.f32	s3, #112	; 0x3f800000  1.0
 c003314:	eeb7 2a00 	vmov.f32	s4, #112	; 0x3f800000  1.0
 c003318:	eef7 2a00 	vmov.f32	s5, #112	; 0x3f800000  1.0
 c00331c:	eeb7 3a00 	vmov.f32	s6, #112	; 0x3f800000  1.0
 c003320:	eef7 3a00 	vmov.f32	s7, #112	; 0x3f800000  1.0
 c003324:	eeb7 4a00 	vmov.f32	s8, #112	; 0x3f800000  1.0
 c003328:	eef7 4a00 	vmov.f32	s9, #112	; 0x3f800000  1.0
 c00332c:	eeb7 5a00 	vmov.f32	s10, #112	; 0x3f800000  1.0
 c003330:	eef7 5a00 	vmov.f32	s11, #112	; 0x3f800000  1.0
 c003334:	eeb7 6a00 	vmov.f32	s12, #112	; 0x3f800000  1.0
 c003338:	eef7 6a00 	vmov.f32	s13, #112	; 0x3f800000  1.0
 c00333c:	eeb7 7a00 	vmov.f32	s14, #112	; 0x3f800000  1.0
 c003340:	eef7 7a00 	vmov.f32	s15, #112	; 0x3f800000  1.0
 c003344:	f38e 8c00 	msr	CPSR_fs, lr
 c003348:	b410      	push	{r4}
 c00334a:	eef1 ca10 	vmrs	ip, fpscr
 c00334e:	f64f 7460 	movw	r4, #65376	; 0xff60
 c003352:	f6c0 74ff 	movt	r4, #4095	; 0xfff
 c003356:	ea0c 0c04 	and.w	ip, ip, r4
 c00335a:	eee1 ca10 	vmsr	fpscr, ip
 c00335e:	bc10      	pop	{r4}
 c003360:	46f4      	mov	ip, lr
 c003362:	4774      	bxns	lr

0c003364 <__acle_se_SECURE_record_output_data>:

CMSE_NS_ENTRY void SECURE_record_output_data(uint32_t value){
 c003364:	b580      	push	{r7, lr}
 c003366:	b082      	sub	sp, #8
 c003368:	af00      	add	r7, sp, #0
 c00336a:	6078      	str	r0, [r7, #4]
	record_output_data(value);
 c00336c:	6878      	ldr	r0, [r7, #4]
 c00336e:	f7fe febb 	bl	c0020e8 <record_output_data>
	return;
 c003372:	bf00      	nop
};
 c003374:	3708      	adds	r7, #8
 c003376:	46bd      	mov	sp, r7
 c003378:	e8bd 4080 	ldmia.w	sp!, {r7, lr}
 c00337c:	4670      	mov	r0, lr
 c00337e:	4671      	mov	r1, lr
 c003380:	4672      	mov	r2, lr
 c003382:	4673      	mov	r3, lr
 c003384:	eeb7 0a00 	vmov.f32	s0, #112	; 0x3f800000  1.0
 c003388:	eef7 0a00 	vmov.f32	s1, #112	; 0x3f800000  1.0
 c00338c:	eeb7 1a00 	vmov.f32	s2, #112	; 0x3f800000  1.0
 c003390:	eef7 1a00 	vmov.f32	s3, #112	; 0x3f800000  1.0
 c003394:	eeb7 2a00 	vmov.f32	s4, #112	; 0x3f800000  1.0
 c003398:	eef7 2a00 	vmov.f32	s5, #112	; 0x3f800000  1.0
 c00339c:	eeb7 3a00 	vmov.f32	s6, #112	; 0x3f800000  1.0
 c0033a0:	eef7 3a00 	vmov.f32	s7, #112	; 0x3f800000  1.0
 c0033a4:	eeb7 4a00 	vmov.f32	s8, #112	; 0x3f800000  1.0
 c0033a8:	eef7 4a00 	vmov.f32	s9, #112	; 0x3f800000  1.0
 c0033ac:	eeb7 5a00 	vmov.f32	s10, #112	; 0x3f800000  1.0
 c0033b0:	eef7 5a00 	vmov.f32	s11, #112	; 0x3f800000  1.0
 c0033b4:	eeb7 6a00 	vmov.f32	s12, #112	; 0x3f800000  1.0
 c0033b8:	eef7 6a00 	vmov.f32	s13, #112	; 0x3f800000  1.0
 c0033bc:	eeb7 7a00 	vmov.f32	s14, #112	; 0x3f800000  1.0
 c0033c0:	eef7 7a00 	vmov.f32	s15, #112	; 0x3f800000  1.0
 c0033c4:	f38e 8c00 	msr	CPSR_fs, lr
 c0033c8:	b410      	push	{r4}
 c0033ca:	eef1 ca10 	vmrs	ip, fpscr
 c0033ce:	f64f 7460 	movw	r4, #65376	; 0xff60
 c0033d2:	f6c0 74ff 	movt	r4, #4095	; 0xfff
 c0033d6:	ea0c 0c04 	and.w	ip, ip, r4
 c0033da:	eee1 ca10 	vmsr	fpscr, ip
 c0033de:	bc10      	pop	{r4}
 c0033e0:	46f4      	mov	ip, lr
 c0033e2:	4774      	bxns	lr

0c0033e4 <HAL_MspInit>:
/* USER CODE END 0 */
/**
  * Initializes the Global MSP.
  */
void HAL_MspInit(void)
{
 c0033e4:	b580      	push	{r7, lr}
 c0033e6:	b084      	sub	sp, #16
 c0033e8:	af00      	add	r7, sp, #0
  /* USER CODE BEGIN MspInit 0 */

  /* USER CODE END MspInit 0 */

  __HAL_RCC_SYSCFG_CLK_ENABLE();
 c0033ea:	4b31      	ldr	r3, [pc, #196]	; (c0034b0 <HAL_MspInit+0xcc>)
 c0033ec:	6e1b      	ldr	r3, [r3, #96]	; 0x60
 c0033ee:	4a30      	ldr	r2, [pc, #192]	; (c0034b0 <HAL_MspInit+0xcc>)
 c0033f0:	f043 0301 	orr.w	r3, r3, #1
 c0033f4:	6613      	str	r3, [r2, #96]	; 0x60
 c0033f6:	4b2e      	ldr	r3, [pc, #184]	; (c0034b0 <HAL_MspInit+0xcc>)
 c0033f8:	6e1b      	ldr	r3, [r3, #96]	; 0x60
 c0033fa:	f003 0301 	and.w	r3, r3, #1
 c0033fe:	60fb      	str	r3, [r7, #12]
 c003400:	68fb      	ldr	r3, [r7, #12]
  __HAL_RCC_PWR_CLK_ENABLE();
 c003402:	4b2b      	ldr	r3, [pc, #172]	; (c0034b0 <HAL_MspInit+0xcc>)
 c003404:	6d9b      	ldr	r3, [r3, #88]	; 0x58
 c003406:	4a2a      	ldr	r2, [pc, #168]	; (c0034b0 <HAL_MspInit+0xcc>)
 c003408:	f043 5380 	orr.w	r3, r3, #268435456	; 0x10000000
 c00340c:	6593      	str	r3, [r2, #88]	; 0x58
 c00340e:	4b28      	ldr	r3, [pc, #160]	; (c0034b0 <HAL_MspInit+0xcc>)
 c003410:	6d9b      	ldr	r3, [r3, #88]	; 0x58
 c003412:	f003 5380 	and.w	r3, r3, #268435456	; 0x10000000
 c003416:	60bb      	str	r3, [r7, #8]
 c003418:	68bb      	ldr	r3, [r7, #8]
  __HAL_RCC_GTZC_CLK_ENABLE();
 c00341a:	4b25      	ldr	r3, [pc, #148]	; (c0034b0 <HAL_MspInit+0xcc>)
 c00341c:	6c9b      	ldr	r3, [r3, #72]	; 0x48
 c00341e:	4a24      	ldr	r2, [pc, #144]	; (c0034b0 <HAL_MspInit+0xcc>)
 c003420:	f443 0380 	orr.w	r3, r3, #4194304	; 0x400000
 c003424:	6493      	str	r3, [r2, #72]	; 0x48
 c003426:	4b22      	ldr	r3, [pc, #136]	; (c0034b0 <HAL_MspInit+0xcc>)
 c003428:	6c9b      	ldr	r3, [r3, #72]	; 0x48
 c00342a:	f403 0380 	and.w	r3, r3, #4194304	; 0x400000
 c00342e:	607b      	str	r3, [r7, #4]
 c003430:	687b      	ldr	r3, [r7, #4]

  /* System interrupt init*/

  /* Peripheral interrupt init */
  /* GTZC_IRQn interrupt configuration */
  HAL_NVIC_SetPriority(GTZC_IRQn, 0, 0);
 c003432:	2200      	movs	r2, #0
 c003434:	2100      	movs	r1, #0
 c003436:	2008      	movs	r0, #8
 c003438:	f000 fd37 	bl	c003eaa <HAL_NVIC_SetPriority>
  /* GTZC_IRQn interrupt configuration */
  HAL_NVIC_EnableIRQ(GTZC_IRQn);
 c00343c:	2008      	movs	r0, #8
 c00343e:	f000 fd4e 	bl	c003ede <HAL_NVIC_EnableIRQ>

  /** Disable the internal Pull-Up in Dead Battery pins of UCPD peripheral
  */
  HAL_PWREx_DisableUCPDDeadBattery();
 c003442:	f001 fb6d 	bl	c004b20 <HAL_PWREx_DisableUCPDDeadBattery>

  /** PWR Non-Privilege/Non-Secure Items Configurations
  */
  HAL_PWR_ConfigAttributes(PWR_WKUP1, PWR_NSEC |PWR_NPRIV);
 c003446:	f44f 7140 	mov.w	r1, #768	; 0x300
 c00344a:	2001      	movs	r0, #1
 c00344c:	f001 faa8 	bl	c0049a0 <HAL_PWR_ConfigAttributes>
  HAL_PWR_ConfigAttributes(PWR_WKUP2, PWR_NSEC |PWR_NPRIV);
 c003450:	f44f 7140 	mov.w	r1, #768	; 0x300
 c003454:	2002      	movs	r0, #2
 c003456:	f001 faa3 	bl	c0049a0 <HAL_PWR_ConfigAttributes>
  HAL_PWR_ConfigAttributes(PWR_WKUP3, PWR_NSEC |PWR_NPRIV);
 c00345a:	f44f 7140 	mov.w	r1, #768	; 0x300
 c00345e:	2004      	movs	r0, #4
 c003460:	f001 fa9e 	bl	c0049a0 <HAL_PWR_ConfigAttributes>
  HAL_PWR_ConfigAttributes(PWR_WKUP4, PWR_NSEC |PWR_NPRIV);
 c003464:	f44f 7140 	mov.w	r1, #768	; 0x300
 c003468:	2008      	movs	r0, #8
 c00346a:	f001 fa99 	bl	c0049a0 <HAL_PWR_ConfigAttributes>
  HAL_PWR_ConfigAttributes(PWR_WKUP5, PWR_NSEC |PWR_NPRIV);
 c00346e:	f44f 7140 	mov.w	r1, #768	; 0x300
 c003472:	2010      	movs	r0, #16
 c003474:	f001 fa94 	bl	c0049a0 <HAL_PWR_ConfigAttributes>
  HAL_PWR_ConfigAttributes(PWR_VDM, PWR_NSEC |PWR_NPRIV);
 c003478:	f44f 7140 	mov.w	r1, #768	; 0x300
 c00347c:	f44f 7000 	mov.w	r0, #512	; 0x200
 c003480:	f001 fa8e 	bl	c0049a0 <HAL_PWR_ConfigAttributes>
  HAL_PWR_ConfigAttributes(PWR_APC, PWR_NSEC |PWR_NPRIV);
 c003484:	f44f 7140 	mov.w	r1, #768	; 0x300
 c003488:	f44f 6000 	mov.w	r0, #2048	; 0x800
 c00348c:	f001 fa88 	bl	c0049a0 <HAL_PWR_ConfigAttributes>
  HAL_PWR_ConfigAttributes(PWR_LPM, PWR_NSEC |PWR_NPRIV);
 c003490:	f44f 7140 	mov.w	r1, #768	; 0x300
 c003494:	f44f 7080 	mov.w	r0, #256	; 0x100
 c003498:	f001 fa82 	bl	c0049a0 <HAL_PWR_ConfigAttributes>
  HAL_PWR_ConfigAttributes(PWR_VB, PWR_NSEC |PWR_NPRIV);
 c00349c:	f44f 7140 	mov.w	r1, #768	; 0x300
 c0034a0:	f44f 6080 	mov.w	r0, #1024	; 0x400
 c0034a4:	f001 fa7c 	bl	c0049a0 <HAL_PWR_ConfigAttributes>

  /* USER CODE BEGIN MspInit 1 */

  /* USER CODE END MspInit 1 */
}
 c0034a8:	bf00      	nop
 c0034aa:	3710      	adds	r7, #16
 c0034ac:	46bd      	mov	sp, r7
 c0034ae:	bd80      	pop	{r7, pc}
 c0034b0:	50021000 	.word	0x50021000

0c0034b4 <NMI_Handler>:
/******************************************************************************/
/**
  * @brief This function handles Non maskable interrupt.
  */
void NMI_Handler(void)
{
 c0034b4:	b480      	push	{r7}
 c0034b6:	af00      	add	r7, sp, #0
  /* USER CODE BEGIN NonMaskableInt_IRQn 0 */

  /* USER CODE END NonMaskableInt_IRQn 0 */
  /* USER CODE BEGIN NonMaskableInt_IRQn 1 */
  while (1)
 c0034b8:	e7fe      	b.n	c0034b8 <NMI_Handler+0x4>

0c0034ba <HardFault_Handler>:

/**
  * @brief This function handles Hard fault interrupt.
  */
void HardFault_Handler(void)
{
 c0034ba:	b480      	push	{r7}
 c0034bc:	af00      	add	r7, sp, #0
  /* USER CODE BEGIN HardFault_IRQn 0 */

  /* USER CODE END HardFault_IRQn 0 */
  while (1)
 c0034be:	e7fe      	b.n	c0034be <HardFault_Handler+0x4>

0c0034c0 <MemManage_Handler>:

/**
  * @brief This function handles Memory management fault.
  */
void MemManage_Handler(void)
{
 c0034c0:	b480      	push	{r7}
 c0034c2:	af00      	add	r7, sp, #0
  /* USER CODE BEGIN MemoryManagement_IRQn 0 */

  /* USER CODE END MemoryManagement_IRQn 0 */
  while (1)
 c0034c4:	e7fe      	b.n	c0034c4 <MemManage_Handler+0x4>

0c0034c6 <BusFault_Handler>:

/**
  * @brief This function handles Prefetch fault, memory access fault.
  */
void BusFault_Handler(void)
{
 c0034c6:	b480      	push	{r7}
 c0034c8:	af00      	add	r7, sp, #0
  /* USER CODE BEGIN BusFault_IRQn 0 */

  /* USER CODE END BusFault_IRQn 0 */
  while (1)
 c0034ca:	e7fe      	b.n	c0034ca <BusFault_Handler+0x4>

0c0034cc <UsageFault_Handler>:

/**
  * @brief This function handles Undefined instruction or illegal state.
  */
void UsageFault_Handler(void)
{
 c0034cc:	b480      	push	{r7}
 c0034ce:	af00      	add	r7, sp, #0
  /* USER CODE BEGIN UsageFault_IRQn 0 */

  /* USER CODE END UsageFault_IRQn 0 */
  while (1)
 c0034d0:	e7fe      	b.n	c0034d0 <UsageFault_Handler+0x4>

0c0034d2 <SecureFault_Handler>:

/**
  * @brief This function handles Secure fault.
  */
void SecureFault_Handler(void)
{
 c0034d2:	b480      	push	{r7}
 c0034d4:	af00      	add	r7, sp, #0
  /* USER CODE BEGIN SecureFault_IRQn 0 */

  /* USER CODE END SecureFault_IRQn 0 */
  while (1)
 c0034d6:	e7fe      	b.n	c0034d6 <SecureFault_Handler+0x4>

0c0034d8 <SVC_Handler>:

/**
  * @brief This function handles System service call via SWI instruction.
  */
void SVC_Handler(void)
{
 c0034d8:	b480      	push	{r7}
 c0034da:	af00      	add	r7, sp, #0

  /* USER CODE END SVCall_IRQn 0 */
  /* USER CODE BEGIN SVCall_IRQn 1 */

  /* USER CODE END SVCall_IRQn 1 */
}
 c0034dc:	bf00      	nop
 c0034de:	46bd      	mov	sp, r7
 c0034e0:	f85d 7b04 	ldr.w	r7, [sp], #4
 c0034e4:	4770      	bx	lr

0c0034e6 <DebugMon_Handler>:

/**
  * @brief This function handles Debug monitor.
  */
void DebugMon_Handler(void)
{
 c0034e6:	b480      	push	{r7}
 c0034e8:	af00      	add	r7, sp, #0

  /* USER CODE END DebugMonitor_IRQn 0 */
  /* USER CODE BEGIN DebugMonitor_IRQn 1 */

  /* USER CODE END DebugMonitor_IRQn 1 */
}
 c0034ea:	bf00      	nop
 c0034ec:	46bd      	mov	sp, r7
 c0034ee:	f85d 7b04 	ldr.w	r7, [sp], #4
 c0034f2:	4770      	bx	lr

0c0034f4 <PendSV_Handler>:

/**
  * @brief This function handles Pendable request for system service.
  */
void PendSV_Handler(void)
{
 c0034f4:	b480      	push	{r7}
 c0034f6:	af00      	add	r7, sp, #0

  /* USER CODE END PendSV_IRQn 0 */
  /* USER CODE BEGIN PendSV_IRQn 1 */

  /* USER CODE END PendSV_IRQn 1 */
}
 c0034f8:	bf00      	nop
 c0034fa:	46bd      	mov	sp, r7
 c0034fc:	f85d 7b04 	ldr.w	r7, [sp], #4
 c003500:	4770      	bx	lr

0c003502 <SysTick_Handler>:

/**
  * @brief This function handles System tick timer.
  */
void SysTick_Handler(void)
{
 c003502:	b580      	push	{r7, lr}
 c003504:	af00      	add	r7, sp, #0
  /* USER CODE BEGIN SysTick_IRQn 0 */

  /* USER CODE END SysTick_IRQn 0 */
  HAL_IncTick();
 c003506:	f000 fbd5 	bl	c003cb4 <HAL_IncTick>
  /* USER CODE BEGIN SysTick_IRQn 1 */

  /* USER CODE END SysTick_IRQn 1 */
}
 c00350a:	bf00      	nop
 c00350c:	bd80      	pop	{r7, pc}

0c00350e <GTZC_IRQHandler>:

/**
  * @brief This function handles Global TrustZone controller global interrupt.
  */
void GTZC_IRQHandler(void)
{
 c00350e:	b580      	push	{r7, lr}
 c003510:	af00      	add	r7, sp, #0
  /* USER CODE BEGIN GTZC_IRQn 0 */

  /* USER CODE END GTZC_IRQn 0 */
  HAL_GTZC_IRQHandler();
 c003512:	f001 f9b7 	bl	c004884 <HAL_GTZC_IRQHandler>
  /* USER CODE BEGIN GTZC_IRQn 1 */

  /* USER CODE END GTZC_IRQn 1 */
}
 c003516:	bf00      	nop
 c003518:	bd80      	pop	{r7, pc}
	...

0c00351c <TIM3_IRQHandler>:
  * @brief This function handles TIM3 global interrupt.
  */

#include "cfa_engine.h"
void TIM3_IRQHandler(void)
{
 c00351c:	b580      	push	{r7, lr}
 c00351e:	af00      	add	r7, sp, #0
  /* USER CODE BEGIN TIM3_IRQn 0 */
	CFA_time_interrupt_handler();
 c003520:	f7fe ff66 	bl	c0023f0 <CFA_time_interrupt_handler>

  /* USER CODE END TIM3_IRQn 0 */
  HAL_TIM_IRQHandler(&htim3);
 c003524:	4802      	ldr	r0, [pc, #8]	; (c003530 <TIM3_IRQHandler+0x14>)
 c003526:	f003 f881 	bl	c00662c <HAL_TIM_IRQHandler>
  /* USER CODE BEGIN TIM3_IRQn 1 */

  /* USER CODE END TIM3_IRQn 1 */
}
 c00352a:	bf00      	nop
 c00352c:	bd80      	pop	{r7, pc}
 c00352e:	bf00      	nop
 c003530:	30000708 	.word	0x30000708

0c003534 <TIM4_IRQHandler>:

/**
  * @brief This function handles TIM4 global interrupt.
  */
void TIM4_IRQHandler(void)
{
 c003534:	b580      	push	{r7, lr}
 c003536:	af00      	add	r7, sp, #0
  /* USER CODE BEGIN TIM4_IRQn 0 */

  /* USER CODE END TIM4_IRQn 0 */
  HAL_TIM_IRQHandler(&htim4);
 c003538:	4802      	ldr	r0, [pc, #8]	; (c003544 <TIM4_IRQHandler+0x10>)
 c00353a:	f003 f877 	bl	c00662c <HAL_TIM_IRQHandler>
  /* USER CODE BEGIN TIM4_IRQn 1 */

  /* USER CODE END TIM4_IRQn 1 */
}
 c00353e:	bf00      	nop
 c003540:	bd80      	pop	{r7, pc}
 c003542:	bf00      	nop
 c003544:	30000754 	.word	0x30000754

0c003548 <TZ_SAU_Setup>:
{
 c003548:	b480      	push	{r7}
 c00354a:	af00      	add	r7, sp, #0
    SAU_INIT_REGION(0);
 c00354c:	4b2f      	ldr	r3, [pc, #188]	; (c00360c <TZ_SAU_Setup+0xc4>)
 c00354e:	2200      	movs	r2, #0
 c003550:	609a      	str	r2, [r3, #8]
 c003552:	4b2e      	ldr	r3, [pc, #184]	; (c00360c <TZ_SAU_Setup+0xc4>)
 c003554:	4a2e      	ldr	r2, [pc, #184]	; (c003610 <TZ_SAU_Setup+0xc8>)
 c003556:	60da      	str	r2, [r3, #12]
 c003558:	4b2c      	ldr	r3, [pc, #176]	; (c00360c <TZ_SAU_Setup+0xc4>)
 c00355a:	4a2e      	ldr	r2, [pc, #184]	; (c003614 <TZ_SAU_Setup+0xcc>)
 c00355c:	611a      	str	r2, [r3, #16]
    SAU_INIT_REGION(1);
 c00355e:	4b2b      	ldr	r3, [pc, #172]	; (c00360c <TZ_SAU_Setup+0xc4>)
 c003560:	2201      	movs	r2, #1
 c003562:	609a      	str	r2, [r3, #8]
 c003564:	4b29      	ldr	r3, [pc, #164]	; (c00360c <TZ_SAU_Setup+0xc4>)
 c003566:	4a2c      	ldr	r2, [pc, #176]	; (c003618 <TZ_SAU_Setup+0xd0>)
 c003568:	60da      	str	r2, [r3, #12]
 c00356a:	4b28      	ldr	r3, [pc, #160]	; (c00360c <TZ_SAU_Setup+0xc4>)
 c00356c:	4a2b      	ldr	r2, [pc, #172]	; (c00361c <TZ_SAU_Setup+0xd4>)
 c00356e:	611a      	str	r2, [r3, #16]
    SAU_INIT_REGION(2);
 c003570:	4b26      	ldr	r3, [pc, #152]	; (c00360c <TZ_SAU_Setup+0xc4>)
 c003572:	2202      	movs	r2, #2
 c003574:	609a      	str	r2, [r3, #8]
 c003576:	4b25      	ldr	r3, [pc, #148]	; (c00360c <TZ_SAU_Setup+0xc4>)
 c003578:	4a29      	ldr	r2, [pc, #164]	; (c003620 <TZ_SAU_Setup+0xd8>)
 c00357a:	60da      	str	r2, [r3, #12]
 c00357c:	4b23      	ldr	r3, [pc, #140]	; (c00360c <TZ_SAU_Setup+0xc4>)
 c00357e:	4a29      	ldr	r2, [pc, #164]	; (c003624 <TZ_SAU_Setup+0xdc>)
 c003580:	611a      	str	r2, [r3, #16]
    SAU_INIT_REGION(3);
 c003582:	4b22      	ldr	r3, [pc, #136]	; (c00360c <TZ_SAU_Setup+0xc4>)
 c003584:	2203      	movs	r2, #3
 c003586:	609a      	str	r2, [r3, #8]
 c003588:	4b20      	ldr	r3, [pc, #128]	; (c00360c <TZ_SAU_Setup+0xc4>)
 c00358a:	f04f 4280 	mov.w	r2, #1073741824	; 0x40000000
 c00358e:	60da      	str	r2, [r3, #12]
 c003590:	4b1e      	ldr	r3, [pc, #120]	; (c00360c <TZ_SAU_Setup+0xc4>)
 c003592:	4a25      	ldr	r2, [pc, #148]	; (c003628 <TZ_SAU_Setup+0xe0>)
 c003594:	611a      	str	r2, [r3, #16]
    SAU_INIT_REGION(4);
 c003596:	4b1d      	ldr	r3, [pc, #116]	; (c00360c <TZ_SAU_Setup+0xc4>)
 c003598:	2204      	movs	r2, #4
 c00359a:	609a      	str	r2, [r3, #8]
 c00359c:	4b1b      	ldr	r3, [pc, #108]	; (c00360c <TZ_SAU_Setup+0xc4>)
 c00359e:	f04f 42c0 	mov.w	r2, #1610612736	; 0x60000000
 c0035a2:	60da      	str	r2, [r3, #12]
 c0035a4:	4b19      	ldr	r3, [pc, #100]	; (c00360c <TZ_SAU_Setup+0xc4>)
 c0035a6:	4a21      	ldr	r2, [pc, #132]	; (c00362c <TZ_SAU_Setup+0xe4>)
 c0035a8:	611a      	str	r2, [r3, #16]
    SAU_INIT_REGION(5);
 c0035aa:	4b18      	ldr	r3, [pc, #96]	; (c00360c <TZ_SAU_Setup+0xc4>)
 c0035ac:	2205      	movs	r2, #5
 c0035ae:	609a      	str	r2, [r3, #8]
 c0035b0:	4b16      	ldr	r3, [pc, #88]	; (c00360c <TZ_SAU_Setup+0xc4>)
 c0035b2:	4a1f      	ldr	r2, [pc, #124]	; (c003630 <TZ_SAU_Setup+0xe8>)
 c0035b4:	60da      	str	r2, [r3, #12]
 c0035b6:	4b15      	ldr	r3, [pc, #84]	; (c00360c <TZ_SAU_Setup+0xc4>)
 c0035b8:	4a1e      	ldr	r2, [pc, #120]	; (c003634 <TZ_SAU_Setup+0xec>)
 c0035ba:	611a      	str	r2, [r3, #16]
    SAU->CTRL = ((SAU_INIT_CTRL_ENABLE << SAU_CTRL_ENABLE_Pos) & SAU_CTRL_ENABLE_Msk) |
 c0035bc:	4b13      	ldr	r3, [pc, #76]	; (c00360c <TZ_SAU_Setup+0xc4>)
 c0035be:	2201      	movs	r2, #1
 c0035c0:	601a      	str	r2, [r3, #0]
    SCB->NSACR = (SCB->NSACR & ~(SCB_NSACR_CP10_Msk | SCB_NSACR_CP11_Msk)) |
 c0035c2:	4b1d      	ldr	r3, [pc, #116]	; (c003638 <TZ_SAU_Setup+0xf0>)
 c0035c4:	f8d3 308c 	ldr.w	r3, [r3, #140]	; 0x8c
 c0035c8:	4a1b      	ldr	r2, [pc, #108]	; (c003638 <TZ_SAU_Setup+0xf0>)
 c0035ca:	f443 6340 	orr.w	r3, r3, #3072	; 0xc00
 c0035ce:	f8c2 308c 	str.w	r3, [r2, #140]	; 0x8c
    FPU->FPCCR = (FPU->FPCCR & ~(FPU_FPCCR_TS_Msk | FPU_FPCCR_CLRONRETS_Msk | FPU_FPCCR_CLRONRET_Msk)) |
 c0035d2:	4b1a      	ldr	r3, [pc, #104]	; (c00363c <TZ_SAU_Setup+0xf4>)
 c0035d4:	685b      	ldr	r3, [r3, #4]
                   ((FPU_FPCCR_TS_VAL        << FPU_FPCCR_TS_Pos       ) & FPU_FPCCR_TS_Msk       ) |
 c0035d6:	f023 53e0 	bic.w	r3, r3, #469762048	; 0x1c000000
    FPU->FPCCR = (FPU->FPCCR & ~(FPU_FPCCR_TS_Msk | FPU_FPCCR_CLRONRETS_Msk | FPU_FPCCR_CLRONRET_Msk)) |
 c0035da:	4a18      	ldr	r2, [pc, #96]	; (c00363c <TZ_SAU_Setup+0xf4>)
                   ((FPU_FPCCR_CLRONRETS_VAL << FPU_FPCCR_CLRONRETS_Pos) & FPU_FPCCR_CLRONRETS_Msk) |
 c0035dc:	f043 5380 	orr.w	r3, r3, #268435456	; 0x10000000
    FPU->FPCCR = (FPU->FPCCR & ~(FPU_FPCCR_TS_Msk | FPU_FPCCR_CLRONRETS_Msk | FPU_FPCCR_CLRONRET_Msk)) |
 c0035e0:	6053      	str	r3, [r2, #4]
    NVIC->ITNS[0] = NVIC_INIT_ITNS0_VAL;
 c0035e2:	4b17      	ldr	r3, [pc, #92]	; (c003640 <TZ_SAU_Setup+0xf8>)
 c0035e4:	2200      	movs	r2, #0
 c0035e6:	f8c3 2280 	str.w	r2, [r3, #640]	; 0x280
    NVIC->ITNS[1] = NVIC_INIT_ITNS1_VAL;
 c0035ea:	4b15      	ldr	r3, [pc, #84]	; (c003640 <TZ_SAU_Setup+0xf8>)
 c0035ec:	2200      	movs	r2, #0
 c0035ee:	f8c3 2284 	str.w	r2, [r3, #644]	; 0x284
    NVIC->ITNS[2] = NVIC_INIT_ITNS2_VAL;
 c0035f2:	4b13      	ldr	r3, [pc, #76]	; (c003640 <TZ_SAU_Setup+0xf8>)
 c0035f4:	2200      	movs	r2, #0
 c0035f6:	f8c3 2288 	str.w	r2, [r3, #648]	; 0x288
    NVIC->ITNS[3] = NVIC_INIT_ITNS3_VAL;
 c0035fa:	4b11      	ldr	r3, [pc, #68]	; (c003640 <TZ_SAU_Setup+0xf8>)
 c0035fc:	2200      	movs	r2, #0
 c0035fe:	f8c3 228c 	str.w	r2, [r3, #652]	; 0x28c
}
 c003602:	bf00      	nop
 c003604:	46bd      	mov	sp, r7
 c003606:	f85d 7b04 	ldr.w	r7, [sp], #4
 c00360a:	4770      	bx	lr
 c00360c:	e000edd0 	.word	0xe000edd0
 c003610:	0c03e000 	.word	0x0c03e000
 c003614:	0c03ffe3 	.word	0x0c03ffe3
 c003618:	08040000 	.word	0x08040000
 c00361c:	0807ffe1 	.word	0x0807ffe1
 c003620:	20018000 	.word	0x20018000
 c003624:	2003ffe1 	.word	0x2003ffe1
 c003628:	4fffffe1 	.word	0x4fffffe1
 c00362c:	9fffffe1 	.word	0x9fffffe1
 c003630:	0bf90000 	.word	0x0bf90000
 c003634:	0bfa8fe1 	.word	0x0bfa8fe1
 c003638:	e000ed00 	.word	0xe000ed00
 c00363c:	e000ef30 	.word	0xe000ef30
 c003640:	e000e100 	.word	0xe000e100

0c003644 <SystemInit>:
  * @brief  Setup the microcontroller system.
  * @retval None
  */

void SystemInit(void)
{
 c003644:	b580      	push	{r7, lr}
 c003646:	af00      	add	r7, sp, #0
  /* SAU/IDAU, FPU and Interrupts secure/non-secure allocation settings */
  TZ_SAU_Setup();
 c003648:	f7ff ff7e 	bl	c003548 <TZ_SAU_Setup>
  SCB->VTOR = VECT_TAB_BASE_ADDRESS | VECT_TAB_OFFSET;
#endif

  /* FPU settings ------------------------------------------------------------*/
#if (__FPU_PRESENT == 1) && (__FPU_USED == 1)
  SCB->CPACR |= ((3UL << 20U)|(3UL << 22U));  /* set CP10 and CP11 Full Access */
 c00364c:	4b08      	ldr	r3, [pc, #32]	; (c003670 <SystemInit+0x2c>)
 c00364e:	f8d3 3088 	ldr.w	r3, [r3, #136]	; 0x88
 c003652:	4a07      	ldr	r2, [pc, #28]	; (c003670 <SystemInit+0x2c>)
 c003654:	f443 0370 	orr.w	r3, r3, #15728640	; 0xf00000
 c003658:	f8c2 3088 	str.w	r3, [r2, #136]	; 0x88

  SCB_NS->CPACR |= ((3UL << 20U)|(3UL << 22U));  /* set CP10 and CP11 Full Access */
 c00365c:	4b05      	ldr	r3, [pc, #20]	; (c003674 <SystemInit+0x30>)
 c00365e:	f8d3 3088 	ldr.w	r3, [r3, #136]	; 0x88
 c003662:	4a04      	ldr	r2, [pc, #16]	; (c003674 <SystemInit+0x30>)
 c003664:	f443 0370 	orr.w	r3, r3, #15728640	; 0xf00000
 c003668:	f8c2 3088 	str.w	r3, [r2, #136]	; 0x88
#endif
}
 c00366c:	bf00      	nop
 c00366e:	bd80      	pop	{r7, pc}
 c003670:	e000ed00 	.word	0xe000ed00
 c003674:	e002ed00 	.word	0xe002ed00

0c003678 <SystemCoreClockUpdate>:
  *           value for HSE crystal.
  *
  * @retval None
  */
void SystemCoreClockUpdate(void)
{
 c003678:	b480      	push	{r7}
 c00367a:	b087      	sub	sp, #28
 c00367c:	af00      	add	r7, sp, #0
  uint32_t tmp, msirange, pllvco, pllsource, pllm, pllr;

  /* Get MSI Range frequency--------------------------------------------------*/
  if((RCC->CR & RCC_CR_MSIRGSEL) == 0U)
 c00367e:	4b4f      	ldr	r3, [pc, #316]	; (c0037bc <SystemCoreClockUpdate+0x144>)
 c003680:	681b      	ldr	r3, [r3, #0]
 c003682:	f003 0308 	and.w	r3, r3, #8
 c003686:	2b00      	cmp	r3, #0
 c003688:	d107      	bne.n	c00369a <SystemCoreClockUpdate+0x22>
  { /* MSISRANGE from RCC_CSR applies */
    msirange = (RCC->CSR & RCC_CSR_MSISRANGE) >> 8U;
 c00368a:	4b4c      	ldr	r3, [pc, #304]	; (c0037bc <SystemCoreClockUpdate+0x144>)
 c00368c:	f8d3 3094 	ldr.w	r3, [r3, #148]	; 0x94
 c003690:	0a1b      	lsrs	r3, r3, #8
 c003692:	f003 030f 	and.w	r3, r3, #15
 c003696:	617b      	str	r3, [r7, #20]
 c003698:	e005      	b.n	c0036a6 <SystemCoreClockUpdate+0x2e>
  }
  else
  { /* MSIRANGE from RCC_CR applies */
    msirange = (RCC->CR & RCC_CR_MSIRANGE) >> 4U;
 c00369a:	4b48      	ldr	r3, [pc, #288]	; (c0037bc <SystemCoreClockUpdate+0x144>)
 c00369c:	681b      	ldr	r3, [r3, #0]
 c00369e:	091b      	lsrs	r3, r3, #4
 c0036a0:	f003 030f 	and.w	r3, r3, #15
 c0036a4:	617b      	str	r3, [r7, #20]
  }
  /*MSI frequency range in HZ*/
  msirange = MSIRangeTable[msirange];
 c0036a6:	4a46      	ldr	r2, [pc, #280]	; (c0037c0 <SystemCoreClockUpdate+0x148>)
 c0036a8:	697b      	ldr	r3, [r7, #20]
 c0036aa:	f852 3023 	ldr.w	r3, [r2, r3, lsl #2]
 c0036ae:	617b      	str	r3, [r7, #20]

  /* Get SYSCLK source -------------------------------------------------------*/
  switch (RCC->CFGR & RCC_CFGR_SWS)
 c0036b0:	4b42      	ldr	r3, [pc, #264]	; (c0037bc <SystemCoreClockUpdate+0x144>)
 c0036b2:	689b      	ldr	r3, [r3, #8]
 c0036b4:	f003 030c 	and.w	r3, r3, #12
 c0036b8:	2b0c      	cmp	r3, #12
 c0036ba:	d866      	bhi.n	c00378a <SystemCoreClockUpdate+0x112>
 c0036bc:	a201      	add	r2, pc, #4	; (adr r2, c0036c4 <SystemCoreClockUpdate+0x4c>)
 c0036be:	f852 f023 	ldr.w	pc, [r2, r3, lsl #2]
 c0036c2:	bf00      	nop
 c0036c4:	0c0036f9 	.word	0x0c0036f9
 c0036c8:	0c00378b 	.word	0x0c00378b
 c0036cc:	0c00378b 	.word	0x0c00378b
 c0036d0:	0c00378b 	.word	0x0c00378b
 c0036d4:	0c003701 	.word	0x0c003701
 c0036d8:	0c00378b 	.word	0x0c00378b
 c0036dc:	0c00378b 	.word	0x0c00378b
 c0036e0:	0c00378b 	.word	0x0c00378b
 c0036e4:	0c003709 	.word	0x0c003709
 c0036e8:	0c00378b 	.word	0x0c00378b
 c0036ec:	0c00378b 	.word	0x0c00378b
 c0036f0:	0c00378b 	.word	0x0c00378b
 c0036f4:	0c003711 	.word	0x0c003711
  {
    case 0x00:  /* MSI used as system clock source */
      SystemCoreClock = msirange;
 c0036f8:	4a32      	ldr	r2, [pc, #200]	; (c0037c4 <SystemCoreClockUpdate+0x14c>)
 c0036fa:	697b      	ldr	r3, [r7, #20]
 c0036fc:	6013      	str	r3, [r2, #0]
      break;
 c0036fe:	e048      	b.n	c003792 <SystemCoreClockUpdate+0x11a>

    case 0x04:  /* HSI used as system clock source */
      SystemCoreClock = HSI_VALUE;
 c003700:	4b30      	ldr	r3, [pc, #192]	; (c0037c4 <SystemCoreClockUpdate+0x14c>)
 c003702:	4a31      	ldr	r2, [pc, #196]	; (c0037c8 <SystemCoreClockUpdate+0x150>)
 c003704:	601a      	str	r2, [r3, #0]
      break;
 c003706:	e044      	b.n	c003792 <SystemCoreClockUpdate+0x11a>

    case 0x08:  /* HSE used as system clock source */
      SystemCoreClock = HSE_VALUE;
 c003708:	4b2e      	ldr	r3, [pc, #184]	; (c0037c4 <SystemCoreClockUpdate+0x14c>)
 c00370a:	4a2f      	ldr	r2, [pc, #188]	; (c0037c8 <SystemCoreClockUpdate+0x150>)
 c00370c:	601a      	str	r2, [r3, #0]
      break;
 c00370e:	e040      	b.n	c003792 <SystemCoreClockUpdate+0x11a>

    case 0x0C:  /* PLL used as system clock  source */
      /* PLL_VCO = (HSE_VALUE or HSI_VALUE or MSI_VALUE/ PLLM) * PLLN
         SYSCLK = PLL_VCO / PLLR
         */
      pllsource = (RCC->PLLCFGR & RCC_PLLCFGR_PLLSRC);
 c003710:	4b2a      	ldr	r3, [pc, #168]	; (c0037bc <SystemCoreClockUpdate+0x144>)
 c003712:	68db      	ldr	r3, [r3, #12]
 c003714:	f003 0303 	and.w	r3, r3, #3
 c003718:	60fb      	str	r3, [r7, #12]
      pllm = ((RCC->PLLCFGR & RCC_PLLCFGR_PLLM) >> 4U) + 1U ;
 c00371a:	4b28      	ldr	r3, [pc, #160]	; (c0037bc <SystemCoreClockUpdate+0x144>)
 c00371c:	68db      	ldr	r3, [r3, #12]
 c00371e:	091b      	lsrs	r3, r3, #4
 c003720:	f003 030f 	and.w	r3, r3, #15
 c003724:	3301      	adds	r3, #1
 c003726:	60bb      	str	r3, [r7, #8]
 c003728:	68fb      	ldr	r3, [r7, #12]
 c00372a:	2b02      	cmp	r3, #2
 c00372c:	d003      	beq.n	c003736 <SystemCoreClockUpdate+0xbe>
 c00372e:	68fb      	ldr	r3, [r7, #12]
 c003730:	2b03      	cmp	r3, #3
 c003732:	d006      	beq.n	c003742 <SystemCoreClockUpdate+0xca>
 c003734:	e00b      	b.n	c00374e <SystemCoreClockUpdate+0xd6>

      switch (pllsource)
      {
        case 0x02:  /* HSI used as PLL clock source */
          pllvco = (HSI_VALUE / pllm);
 c003736:	4a24      	ldr	r2, [pc, #144]	; (c0037c8 <SystemCoreClockUpdate+0x150>)
 c003738:	68bb      	ldr	r3, [r7, #8]
 c00373a:	fbb2 f3f3 	udiv	r3, r2, r3
 c00373e:	613b      	str	r3, [r7, #16]
          break;
 c003740:	e00b      	b.n	c00375a <SystemCoreClockUpdate+0xe2>

        case 0x03:  /* HSE used as PLL clock source */
          pllvco = (HSE_VALUE / pllm);
 c003742:	4a21      	ldr	r2, [pc, #132]	; (c0037c8 <SystemCoreClockUpdate+0x150>)
 c003744:	68bb      	ldr	r3, [r7, #8]
 c003746:	fbb2 f3f3 	udiv	r3, r2, r3
 c00374a:	613b      	str	r3, [r7, #16]
          break;
 c00374c:	e005      	b.n	c00375a <SystemCoreClockUpdate+0xe2>

        default:    /* MSI used as PLL clock source */
          pllvco = (msirange / pllm);
 c00374e:	697a      	ldr	r2, [r7, #20]
 c003750:	68bb      	ldr	r3, [r7, #8]
 c003752:	fbb2 f3f3 	udiv	r3, r2, r3
 c003756:	613b      	str	r3, [r7, #16]
          break;
 c003758:	bf00      	nop
      }
      pllvco = pllvco * ((RCC->PLLCFGR & RCC_PLLCFGR_PLLN) >> 8U);
 c00375a:	4b18      	ldr	r3, [pc, #96]	; (c0037bc <SystemCoreClockUpdate+0x144>)
 c00375c:	68db      	ldr	r3, [r3, #12]
 c00375e:	0a1b      	lsrs	r3, r3, #8
 c003760:	f003 027f 	and.w	r2, r3, #127	; 0x7f
 c003764:	693b      	ldr	r3, [r7, #16]
 c003766:	fb02 f303 	mul.w	r3, r2, r3
 c00376a:	613b      	str	r3, [r7, #16]
      pllr = (((RCC->PLLCFGR & RCC_PLLCFGR_PLLR) >> 25U) + 1U) * 2U;
 c00376c:	4b13      	ldr	r3, [pc, #76]	; (c0037bc <SystemCoreClockUpdate+0x144>)
 c00376e:	68db      	ldr	r3, [r3, #12]
 c003770:	0e5b      	lsrs	r3, r3, #25
 c003772:	f003 0303 	and.w	r3, r3, #3
 c003776:	3301      	adds	r3, #1
 c003778:	005b      	lsls	r3, r3, #1
 c00377a:	607b      	str	r3, [r7, #4]
      SystemCoreClock = pllvco/pllr;
 c00377c:	693a      	ldr	r2, [r7, #16]
 c00377e:	687b      	ldr	r3, [r7, #4]
 c003780:	fbb2 f3f3 	udiv	r3, r2, r3
 c003784:	4a0f      	ldr	r2, [pc, #60]	; (c0037c4 <SystemCoreClockUpdate+0x14c>)
 c003786:	6013      	str	r3, [r2, #0]
      break;
 c003788:	e003      	b.n	c003792 <SystemCoreClockUpdate+0x11a>

    default:
      SystemCoreClock = msirange;
 c00378a:	4a0e      	ldr	r2, [pc, #56]	; (c0037c4 <SystemCoreClockUpdate+0x14c>)
 c00378c:	697b      	ldr	r3, [r7, #20]
 c00378e:	6013      	str	r3, [r2, #0]
      break;
 c003790:	bf00      	nop
  }
  /* Compute HCLK clock frequency --------------------------------------------*/
  /* Get HCLK prescaler */
  tmp = AHBPrescTable[((RCC->CFGR & RCC_CFGR_HPRE) >> 4U)];
 c003792:	4b0a      	ldr	r3, [pc, #40]	; (c0037bc <SystemCoreClockUpdate+0x144>)
 c003794:	689b      	ldr	r3, [r3, #8]
 c003796:	091b      	lsrs	r3, r3, #4
 c003798:	f003 030f 	and.w	r3, r3, #15
 c00379c:	4a0b      	ldr	r2, [pc, #44]	; (c0037cc <SystemCoreClockUpdate+0x154>)
 c00379e:	5cd3      	ldrb	r3, [r2, r3]
 c0037a0:	603b      	str	r3, [r7, #0]
  /* HCLK clock frequency */
  SystemCoreClock >>= tmp;
 c0037a2:	4b08      	ldr	r3, [pc, #32]	; (c0037c4 <SystemCoreClockUpdate+0x14c>)
 c0037a4:	681a      	ldr	r2, [r3, #0]
 c0037a6:	683b      	ldr	r3, [r7, #0]
 c0037a8:	fa22 f303 	lsr.w	r3, r2, r3
 c0037ac:	4a05      	ldr	r2, [pc, #20]	; (c0037c4 <SystemCoreClockUpdate+0x14c>)
 c0037ae:	6013      	str	r3, [r2, #0]
}
 c0037b0:	bf00      	nop
 c0037b2:	371c      	adds	r7, #28
 c0037b4:	46bd      	mov	sp, r7
 c0037b6:	f85d 7b04 	ldr.w	r7, [sp], #4
 c0037ba:	4770      	bx	lr
 c0037bc:	50021000 	.word	0x50021000
 c0037c0:	0c007d38 	.word	0x0c007d38
 c0037c4:	30000028 	.word	0x30000028
 c0037c8:	00f42400 	.word	0x00f42400
 c0037cc:	0c007d20 	.word	0x0c007d20

0c0037d0 <__acle_se_SECURE_SystemCoreClockUpdate>:
  *         be used by the user application to setup the SysTick timer or configure
  *         other parameters.
  * @retval SystemCoreClock value (HCLK)
  */
CMSE_NS_ENTRY uint32_t SECURE_SystemCoreClockUpdate(void)
{
 c0037d0:	b580      	push	{r7, lr}
 c0037d2:	af00      	add	r7, sp, #0
  SystemCoreClockUpdate();
 c0037d4:	f7ff ff50 	bl	c003678 <SystemCoreClockUpdate>
  
  return SystemCoreClock;
 c0037d8:	4b1c      	ldr	r3, [pc, #112]	; (c00384c <__acle_se_SECURE_SystemCoreClockUpdate+0x7c>)
 c0037da:	681b      	ldr	r3, [r3, #0]
}
 c0037dc:	4618      	mov	r0, r3
 c0037de:	46bd      	mov	sp, r7
 c0037e0:	e8bd 4080 	ldmia.w	sp!, {r7, lr}
 c0037e4:	4671      	mov	r1, lr
 c0037e6:	4672      	mov	r2, lr
 c0037e8:	4673      	mov	r3, lr
 c0037ea:	eeb7 0a00 	vmov.f32	s0, #112	; 0x3f800000  1.0
 c0037ee:	eef7 0a00 	vmov.f32	s1, #112	; 0x3f800000  1.0
 c0037f2:	eeb7 1a00 	vmov.f32	s2, #112	; 0x3f800000  1.0
 c0037f6:	eef7 1a00 	vmov.f32	s3, #112	; 0x3f800000  1.0
 c0037fa:	eeb7 2a00 	vmov.f32	s4, #112	; 0x3f800000  1.0
 c0037fe:	eef7 2a00 	vmov.f32	s5, #112	; 0x3f800000  1.0
 c003802:	eeb7 3a00 	vmov.f32	s6, #112	; 0x3f800000  1.0
 c003806:	eef7 3a00 	vmov.f32	s7, #112	; 0x3f800000  1.0
 c00380a:	eeb7 4a00 	vmov.f32	s8, #112	; 0x3f800000  1.0
 c00380e:	eef7 4a00 	vmov.f32	s9, #112	; 0x3f800000  1.0
 c003812:	eeb7 5a00 	vmov.f32	s10, #112	; 0x3f800000  1.0
 c003816:	eef7 5a00 	vmov.f32	s11, #112	; 0x3f800000  1.0
 c00381a:	eeb7 6a00 	vmov.f32	s12, #112	; 0x3f800000  1.0
 c00381e:	eef7 6a00 	vmov.f32	s13, #112	; 0x3f800000  1.0
 c003822:	eeb7 7a00 	vmov.f32	s14, #112	; 0x3f800000  1.0
 c003826:	eef7 7a00 	vmov.f32	s15, #112	; 0x3f800000  1.0
 c00382a:	f38e 8c00 	msr	CPSR_fs, lr
 c00382e:	b410      	push	{r4}
 c003830:	eef1 ca10 	vmrs	ip, fpscr
 c003834:	f64f 7460 	movw	r4, #65376	; 0xff60
 c003838:	f6c0 74ff 	movt	r4, #4095	; 0xfff
 c00383c:	ea0c 0c04 	and.w	ip, ip, r4
 c003840:	eee1 ca10 	vmsr	fpscr, ip
 c003844:	bc10      	pop	{r4}
 c003846:	46f4      	mov	ip, lr
 c003848:	4774      	bxns	lr
 c00384a:	bf00      	nop
 c00384c:	30000028 	.word	0x30000028

0c003850 <MX_TIM3_Init>:
TIM_HandleTypeDef htim3;
TIM_HandleTypeDef htim4;

/* TIM3 init function */
void MX_TIM3_Init(void)
{
 c003850:	b580      	push	{r7, lr}
 c003852:	b088      	sub	sp, #32
 c003854:	af00      	add	r7, sp, #0

  /* USER CODE BEGIN TIM3_Init 0 */

  /* USER CODE END TIM3_Init 0 */

  TIM_ClockConfigTypeDef sClockSourceConfig = {0};
 c003856:	f107 0310 	add.w	r3, r7, #16
 c00385a:	2200      	movs	r2, #0
 c00385c:	601a      	str	r2, [r3, #0]
 c00385e:	605a      	str	r2, [r3, #4]
 c003860:	609a      	str	r2, [r3, #8]
 c003862:	60da      	str	r2, [r3, #12]
  TIM_MasterConfigTypeDef sMasterConfig = {0};
 c003864:	1d3b      	adds	r3, r7, #4
 c003866:	2200      	movs	r2, #0
 c003868:	601a      	str	r2, [r3, #0]
 c00386a:	605a      	str	r2, [r3, #4]
 c00386c:	609a      	str	r2, [r3, #8]

  /* USER CODE BEGIN TIM3_Init 1 */

  /* USER CODE END TIM3_Init 1 */
  htim3.Instance = TIM3;
 c00386e:	4b1d      	ldr	r3, [pc, #116]	; (c0038e4 <MX_TIM3_Init+0x94>)
 c003870:	4a1d      	ldr	r2, [pc, #116]	; (c0038e8 <MX_TIM3_Init+0x98>)
 c003872:	601a      	str	r2, [r3, #0]
  htim3.Init.Prescaler = 0;
 c003874:	4b1b      	ldr	r3, [pc, #108]	; (c0038e4 <MX_TIM3_Init+0x94>)
 c003876:	2200      	movs	r2, #0
 c003878:	605a      	str	r2, [r3, #4]
  htim3.Init.CounterMode = TIM_COUNTERMODE_UP;
 c00387a:	4b1a      	ldr	r3, [pc, #104]	; (c0038e4 <MX_TIM3_Init+0x94>)
 c00387c:	2200      	movs	r2, #0
 c00387e:	609a      	str	r2, [r3, #8]
  htim3.Init.Period = 65535;
 c003880:	4b18      	ldr	r3, [pc, #96]	; (c0038e4 <MX_TIM3_Init+0x94>)
 c003882:	f64f 72ff 	movw	r2, #65535	; 0xffff
 c003886:	60da      	str	r2, [r3, #12]
  htim3.Init.ClockDivision = TIM_CLOCKDIVISION_DIV1;
 c003888:	4b16      	ldr	r3, [pc, #88]	; (c0038e4 <MX_TIM3_Init+0x94>)
 c00388a:	2200      	movs	r2, #0
 c00388c:	611a      	str	r2, [r3, #16]
  htim3.Init.AutoReloadPreload = TIM_AUTORELOAD_PRELOAD_DISABLE;
 c00388e:	4b15      	ldr	r3, [pc, #84]	; (c0038e4 <MX_TIM3_Init+0x94>)
 c003890:	2200      	movs	r2, #0
 c003892:	619a      	str	r2, [r3, #24]
  if (HAL_TIM_Base_Init(&htim3) != HAL_OK)
 c003894:	4813      	ldr	r0, [pc, #76]	; (c0038e4 <MX_TIM3_Init+0x94>)
 c003896:	f002 fe4b 	bl	c006530 <HAL_TIM_Base_Init>
 c00389a:	4603      	mov	r3, r0
 c00389c:	2b00      	cmp	r3, #0
 c00389e:	d001      	beq.n	c0038a4 <MX_TIM3_Init+0x54>
  {
    Error_Handler();
 c0038a0:	f7ff fb22 	bl	c002ee8 <Error_Handler>
  }
  sClockSourceConfig.ClockSource = TIM_CLOCKSOURCE_INTERNAL;
 c0038a4:	f44f 5380 	mov.w	r3, #4096	; 0x1000
 c0038a8:	613b      	str	r3, [r7, #16]
  if (HAL_TIM_ConfigClockSource(&htim3, &sClockSourceConfig) != HAL_OK)
 c0038aa:	f107 0310 	add.w	r3, r7, #16
 c0038ae:	4619      	mov	r1, r3
 c0038b0:	480c      	ldr	r0, [pc, #48]	; (c0038e4 <MX_TIM3_Init+0x94>)
 c0038b2:	f002 ffda 	bl	c00686a <HAL_TIM_ConfigClockSource>
 c0038b6:	4603      	mov	r3, r0
 c0038b8:	2b00      	cmp	r3, #0
 c0038ba:	d001      	beq.n	c0038c0 <MX_TIM3_Init+0x70>
  {
    Error_Handler();
 c0038bc:	f7ff fb14 	bl	c002ee8 <Error_Handler>
  }
  sMasterConfig.MasterOutputTrigger = TIM_TRGO_RESET;
 c0038c0:	2300      	movs	r3, #0
 c0038c2:	607b      	str	r3, [r7, #4]
  sMasterConfig.MasterSlaveMode = TIM_MASTERSLAVEMODE_DISABLE;
 c0038c4:	2300      	movs	r3, #0
 c0038c6:	60fb      	str	r3, [r7, #12]
  if (HAL_TIMEx_MasterConfigSynchronization(&htim3, &sMasterConfig) != HAL_OK)
 c0038c8:	1d3b      	adds	r3, r7, #4
 c0038ca:	4619      	mov	r1, r3
 c0038cc:	4805      	ldr	r0, [pc, #20]	; (c0038e4 <MX_TIM3_Init+0x94>)
 c0038ce:	f003 f9fb 	bl	c006cc8 <HAL_TIMEx_MasterConfigSynchronization>
 c0038d2:	4603      	mov	r3, r0
 c0038d4:	2b00      	cmp	r3, #0
 c0038d6:	d001      	beq.n	c0038dc <MX_TIM3_Init+0x8c>
  {
    Error_Handler();
 c0038d8:	f7ff fb06 	bl	c002ee8 <Error_Handler>
  }
  /* USER CODE BEGIN TIM3_Init 2 */

  /* USER CODE END TIM3_Init 2 */

}
 c0038dc:	bf00      	nop
 c0038de:	3720      	adds	r7, #32
 c0038e0:	46bd      	mov	sp, r7
 c0038e2:	bd80      	pop	{r7, pc}
 c0038e4:	30000708 	.word	0x30000708
 c0038e8:	50000400 	.word	0x50000400

0c0038ec <MX_TIM4_Init>:
/* TIM4 init function */
void MX_TIM4_Init(void)
{
 c0038ec:	b580      	push	{r7, lr}
 c0038ee:	b088      	sub	sp, #32
 c0038f0:	af00      	add	r7, sp, #0

  /* USER CODE BEGIN TIM4_Init 0 */

  /* USER CODE END TIM4_Init 0 */

  TIM_ClockConfigTypeDef sClockSourceConfig = {0};
 c0038f2:	f107 0310 	add.w	r3, r7, #16
 c0038f6:	2200      	movs	r2, #0
 c0038f8:	601a      	str	r2, [r3, #0]
 c0038fa:	605a      	str	r2, [r3, #4]
 c0038fc:	609a      	str	r2, [r3, #8]
 c0038fe:	60da      	str	r2, [r3, #12]
  TIM_MasterConfigTypeDef sMasterConfig = {0};
 c003900:	1d3b      	adds	r3, r7, #4
 c003902:	2200      	movs	r2, #0
 c003904:	601a      	str	r2, [r3, #0]
 c003906:	605a      	str	r2, [r3, #4]
 c003908:	609a      	str	r2, [r3, #8]

  /* USER CODE BEGIN TIM4_Init 1 */

  /* USER CODE END TIM4_Init 1 */
  htim4.Instance = TIM4;
 c00390a:	4b1d      	ldr	r3, [pc, #116]	; (c003980 <MX_TIM4_Init+0x94>)
 c00390c:	4a1d      	ldr	r2, [pc, #116]	; (c003984 <MX_TIM4_Init+0x98>)
 c00390e:	601a      	str	r2, [r3, #0]
  htim4.Init.Prescaler = 0;
 c003910:	4b1b      	ldr	r3, [pc, #108]	; (c003980 <MX_TIM4_Init+0x94>)
 c003912:	2200      	movs	r2, #0
 c003914:	605a      	str	r2, [r3, #4]
  htim4.Init.CounterMode = TIM_COUNTERMODE_UP;
 c003916:	4b1a      	ldr	r3, [pc, #104]	; (c003980 <MX_TIM4_Init+0x94>)
 c003918:	2200      	movs	r2, #0
 c00391a:	609a      	str	r2, [r3, #8]
  htim4.Init.Period = 65535;
 c00391c:	4b18      	ldr	r3, [pc, #96]	; (c003980 <MX_TIM4_Init+0x94>)
 c00391e:	f64f 72ff 	movw	r2, #65535	; 0xffff
 c003922:	60da      	str	r2, [r3, #12]
  htim4.Init.ClockDivision = TIM_CLOCKDIVISION_DIV1;
 c003924:	4b16      	ldr	r3, [pc, #88]	; (c003980 <MX_TIM4_Init+0x94>)
 c003926:	2200      	movs	r2, #0
 c003928:	611a      	str	r2, [r3, #16]
  htim4.Init.AutoReloadPreload = TIM_AUTORELOAD_PRELOAD_DISABLE;
 c00392a:	4b15      	ldr	r3, [pc, #84]	; (c003980 <MX_TIM4_Init+0x94>)
 c00392c:	2200      	movs	r2, #0
 c00392e:	619a      	str	r2, [r3, #24]
  if (HAL_TIM_Base_Init(&htim4) != HAL_OK)
 c003930:	4813      	ldr	r0, [pc, #76]	; (c003980 <MX_TIM4_Init+0x94>)
 c003932:	f002 fdfd 	bl	c006530 <HAL_TIM_Base_Init>
 c003936:	4603      	mov	r3, r0
 c003938:	2b00      	cmp	r3, #0
 c00393a:	d001      	beq.n	c003940 <MX_TIM4_Init+0x54>
  {
    Error_Handler();
 c00393c:	f7ff fad4 	bl	c002ee8 <Error_Handler>
  }
  sClockSourceConfig.ClockSource = TIM_CLOCKSOURCE_INTERNAL;
 c003940:	f44f 5380 	mov.w	r3, #4096	; 0x1000
 c003944:	613b      	str	r3, [r7, #16]
  if (HAL_TIM_ConfigClockSource(&htim4, &sClockSourceConfig) != HAL_OK)
 c003946:	f107 0310 	add.w	r3, r7, #16
 c00394a:	4619      	mov	r1, r3
 c00394c:	480c      	ldr	r0, [pc, #48]	; (c003980 <MX_TIM4_Init+0x94>)
 c00394e:	f002 ff8c 	bl	c00686a <HAL_TIM_ConfigClockSource>
 c003952:	4603      	mov	r3, r0
 c003954:	2b00      	cmp	r3, #0
 c003956:	d001      	beq.n	c00395c <MX_TIM4_Init+0x70>
  {
    Error_Handler();
 c003958:	f7ff fac6 	bl	c002ee8 <Error_Handler>
  }
  sMasterConfig.MasterOutputTrigger = TIM_TRGO_RESET;
 c00395c:	2300      	movs	r3, #0
 c00395e:	607b      	str	r3, [r7, #4]
  sMasterConfig.MasterSlaveMode = TIM_MASTERSLAVEMODE_DISABLE;
 c003960:	2300      	movs	r3, #0
 c003962:	60fb      	str	r3, [r7, #12]
  if (HAL_TIMEx_MasterConfigSynchronization(&htim4, &sMasterConfig) != HAL_OK)
 c003964:	1d3b      	adds	r3, r7, #4
 c003966:	4619      	mov	r1, r3
 c003968:	4805      	ldr	r0, [pc, #20]	; (c003980 <MX_TIM4_Init+0x94>)
 c00396a:	f003 f9ad 	bl	c006cc8 <HAL_TIMEx_MasterConfigSynchronization>
 c00396e:	4603      	mov	r3, r0
 c003970:	2b00      	cmp	r3, #0
 c003972:	d001      	beq.n	c003978 <MX_TIM4_Init+0x8c>
  {
    Error_Handler();
 c003974:	f7ff fab8 	bl	c002ee8 <Error_Handler>
  }
  /* USER CODE BEGIN TIM4_Init 2 */

  /* USER CODE END TIM4_Init 2 */

}
 c003978:	bf00      	nop
 c00397a:	3720      	adds	r7, #32
 c00397c:	46bd      	mov	sp, r7
 c00397e:	bd80      	pop	{r7, pc}
 c003980:	30000754 	.word	0x30000754
 c003984:	50000800 	.word	0x50000800

0c003988 <HAL_TIM_Base_MspInit>:

void HAL_TIM_Base_MspInit(TIM_HandleTypeDef* tim_baseHandle)
{
 c003988:	b580      	push	{r7, lr}
 c00398a:	b084      	sub	sp, #16
 c00398c:	af00      	add	r7, sp, #0
 c00398e:	6078      	str	r0, [r7, #4]

  if(tim_baseHandle->Instance==TIM3)
 c003990:	687b      	ldr	r3, [r7, #4]
 c003992:	681b      	ldr	r3, [r3, #0]
 c003994:	4a1a      	ldr	r2, [pc, #104]	; (c003a00 <HAL_TIM_Base_MspInit+0x78>)
 c003996:	4293      	cmp	r3, r2
 c003998:	d114      	bne.n	c0039c4 <HAL_TIM_Base_MspInit+0x3c>
  {
  /* USER CODE BEGIN TIM3_MspInit 0 */

  /* USER CODE END TIM3_MspInit 0 */
    /* TIM3 clock enable */
    __HAL_RCC_TIM3_CLK_ENABLE();
 c00399a:	4b1a      	ldr	r3, [pc, #104]	; (c003a04 <HAL_TIM_Base_MspInit+0x7c>)
 c00399c:	6d9b      	ldr	r3, [r3, #88]	; 0x58
 c00399e:	4a19      	ldr	r2, [pc, #100]	; (c003a04 <HAL_TIM_Base_MspInit+0x7c>)
 c0039a0:	f043 0302 	orr.w	r3, r3, #2
 c0039a4:	6593      	str	r3, [r2, #88]	; 0x58
 c0039a6:	4b17      	ldr	r3, [pc, #92]	; (c003a04 <HAL_TIM_Base_MspInit+0x7c>)
 c0039a8:	6d9b      	ldr	r3, [r3, #88]	; 0x58
 c0039aa:	f003 0302 	and.w	r3, r3, #2
 c0039ae:	60fb      	str	r3, [r7, #12]
 c0039b0:	68fb      	ldr	r3, [r7, #12]

    /* TIM3 interrupt Init */
    HAL_NVIC_SetPriority(TIM3_IRQn, 0, 0);
 c0039b2:	2200      	movs	r2, #0
 c0039b4:	2100      	movs	r1, #0
 c0039b6:	202e      	movs	r0, #46	; 0x2e
 c0039b8:	f000 fa77 	bl	c003eaa <HAL_NVIC_SetPriority>
    HAL_NVIC_EnableIRQ(TIM3_IRQn);
 c0039bc:	202e      	movs	r0, #46	; 0x2e
 c0039be:	f000 fa8e 	bl	c003ede <HAL_NVIC_EnableIRQ>
    HAL_NVIC_EnableIRQ(TIM4_IRQn);
  /* USER CODE BEGIN TIM4_MspInit 1 */

  /* USER CODE END TIM4_MspInit 1 */
  }
}
 c0039c2:	e018      	b.n	c0039f6 <HAL_TIM_Base_MspInit+0x6e>
  else if(tim_baseHandle->Instance==TIM4)
 c0039c4:	687b      	ldr	r3, [r7, #4]
 c0039c6:	681b      	ldr	r3, [r3, #0]
 c0039c8:	4a0f      	ldr	r2, [pc, #60]	; (c003a08 <HAL_TIM_Base_MspInit+0x80>)
 c0039ca:	4293      	cmp	r3, r2
 c0039cc:	d113      	bne.n	c0039f6 <HAL_TIM_Base_MspInit+0x6e>
    __HAL_RCC_TIM4_CLK_ENABLE();
 c0039ce:	4b0d      	ldr	r3, [pc, #52]	; (c003a04 <HAL_TIM_Base_MspInit+0x7c>)
 c0039d0:	6d9b      	ldr	r3, [r3, #88]	; 0x58
 c0039d2:	4a0c      	ldr	r2, [pc, #48]	; (c003a04 <HAL_TIM_Base_MspInit+0x7c>)
 c0039d4:	f043 0304 	orr.w	r3, r3, #4
 c0039d8:	6593      	str	r3, [r2, #88]	; 0x58
 c0039da:	4b0a      	ldr	r3, [pc, #40]	; (c003a04 <HAL_TIM_Base_MspInit+0x7c>)
 c0039dc:	6d9b      	ldr	r3, [r3, #88]	; 0x58
 c0039de:	f003 0304 	and.w	r3, r3, #4
 c0039e2:	60bb      	str	r3, [r7, #8]
 c0039e4:	68bb      	ldr	r3, [r7, #8]
    HAL_NVIC_SetPriority(TIM4_IRQn, 0, 0);
 c0039e6:	2200      	movs	r2, #0
 c0039e8:	2100      	movs	r1, #0
 c0039ea:	202f      	movs	r0, #47	; 0x2f
 c0039ec:	f000 fa5d 	bl	c003eaa <HAL_NVIC_SetPriority>
    HAL_NVIC_EnableIRQ(TIM4_IRQn);
 c0039f0:	202f      	movs	r0, #47	; 0x2f
 c0039f2:	f000 fa74 	bl	c003ede <HAL_NVIC_EnableIRQ>
}
 c0039f6:	bf00      	nop
 c0039f8:	3710      	adds	r7, #16
 c0039fa:	46bd      	mov	sp, r7
 c0039fc:	bd80      	pop	{r7, pc}
 c0039fe:	bf00      	nop
 c003a00:	50000400 	.word	0x50000400
 c003a04:	50021000 	.word	0x50021000
 c003a08:	50000800 	.word	0x50000800

0c003a0c <MX_LPUART1_UART_Init>:
UART_HandleTypeDef hlpuart1;

/* LPUART1 init function */

void MX_LPUART1_UART_Init(void)
{
 c003a0c:	b580      	push	{r7, lr}
 c003a0e:	af00      	add	r7, sp, #0
  /* USER CODE END LPUART1_Init 0 */

  /* USER CODE BEGIN LPUART1_Init 1 */

  /* USER CODE END LPUART1_Init 1 */
  hlpuart1.Instance = LPUART1;
 c003a10:	4b22      	ldr	r3, [pc, #136]	; (c003a9c <MX_LPUART1_UART_Init+0x90>)
 c003a12:	4a23      	ldr	r2, [pc, #140]	; (c003aa0 <MX_LPUART1_UART_Init+0x94>)
 c003a14:	601a      	str	r2, [r3, #0]
  hlpuart1.Init.BaudRate = 921600;
 c003a16:	4b21      	ldr	r3, [pc, #132]	; (c003a9c <MX_LPUART1_UART_Init+0x90>)
 c003a18:	f44f 2261 	mov.w	r2, #921600	; 0xe1000
 c003a1c:	605a      	str	r2, [r3, #4]
  hlpuart1.Init.WordLength = UART_WORDLENGTH_8B;
 c003a1e:	4b1f      	ldr	r3, [pc, #124]	; (c003a9c <MX_LPUART1_UART_Init+0x90>)
 c003a20:	2200      	movs	r2, #0
 c003a22:	609a      	str	r2, [r3, #8]
  hlpuart1.Init.StopBits = UART_STOPBITS_1;
 c003a24:	4b1d      	ldr	r3, [pc, #116]	; (c003a9c <MX_LPUART1_UART_Init+0x90>)
 c003a26:	2200      	movs	r2, #0
 c003a28:	60da      	str	r2, [r3, #12]
  hlpuart1.Init.Parity = UART_PARITY_NONE;
 c003a2a:	4b1c      	ldr	r3, [pc, #112]	; (c003a9c <MX_LPUART1_UART_Init+0x90>)
 c003a2c:	2200      	movs	r2, #0
 c003a2e:	611a      	str	r2, [r3, #16]
  hlpuart1.Init.Mode = UART_MODE_TX_RX;
 c003a30:	4b1a      	ldr	r3, [pc, #104]	; (c003a9c <MX_LPUART1_UART_Init+0x90>)
 c003a32:	220c      	movs	r2, #12
 c003a34:	615a      	str	r2, [r3, #20]
  hlpuart1.Init.HwFlowCtl = UART_HWCONTROL_NONE;
 c003a36:	4b19      	ldr	r3, [pc, #100]	; (c003a9c <MX_LPUART1_UART_Init+0x90>)
 c003a38:	2200      	movs	r2, #0
 c003a3a:	619a      	str	r2, [r3, #24]
  hlpuart1.Init.OneBitSampling = UART_ONE_BIT_SAMPLE_DISABLE;
 c003a3c:	4b17      	ldr	r3, [pc, #92]	; (c003a9c <MX_LPUART1_UART_Init+0x90>)
 c003a3e:	2200      	movs	r2, #0
 c003a40:	621a      	str	r2, [r3, #32]
  hlpuart1.Init.ClockPrescaler = UART_PRESCALER_DIV1;
 c003a42:	4b16      	ldr	r3, [pc, #88]	; (c003a9c <MX_LPUART1_UART_Init+0x90>)
 c003a44:	2200      	movs	r2, #0
 c003a46:	625a      	str	r2, [r3, #36]	; 0x24
  hlpuart1.AdvancedInit.AdvFeatureInit = UART_ADVFEATURE_NO_INIT;
 c003a48:	4b14      	ldr	r3, [pc, #80]	; (c003a9c <MX_LPUART1_UART_Init+0x90>)
 c003a4a:	2200      	movs	r2, #0
 c003a4c:	629a      	str	r2, [r3, #40]	; 0x28
  hlpuart1.FifoMode = UART_FIFOMODE_DISABLE;
 c003a4e:	4b13      	ldr	r3, [pc, #76]	; (c003a9c <MX_LPUART1_UART_Init+0x90>)
 c003a50:	2200      	movs	r2, #0
 c003a52:	665a      	str	r2, [r3, #100]	; 0x64
  if (HAL_UART_Init(&hlpuart1) != HAL_OK)
 c003a54:	4811      	ldr	r0, [pc, #68]	; (c003a9c <MX_LPUART1_UART_Init+0x90>)
 c003a56:	f003 f9dd 	bl	c006e14 <HAL_UART_Init>
 c003a5a:	4603      	mov	r3, r0
 c003a5c:	2b00      	cmp	r3, #0
 c003a5e:	d001      	beq.n	c003a64 <MX_LPUART1_UART_Init+0x58>
  {
    Error_Handler();
 c003a60:	f7ff fa42 	bl	c002ee8 <Error_Handler>
  }
  if (HAL_UARTEx_SetTxFifoThreshold(&hlpuart1, UART_TXFIFO_THRESHOLD_1_8) != HAL_OK)
 c003a64:	2100      	movs	r1, #0
 c003a66:	480d      	ldr	r0, [pc, #52]	; (c003a9c <MX_LPUART1_UART_Init+0x90>)
 c003a68:	f004 f832 	bl	c007ad0 <HAL_UARTEx_SetTxFifoThreshold>
 c003a6c:	4603      	mov	r3, r0
 c003a6e:	2b00      	cmp	r3, #0
 c003a70:	d001      	beq.n	c003a76 <MX_LPUART1_UART_Init+0x6a>
  {
    Error_Handler();
 c003a72:	f7ff fa39 	bl	c002ee8 <Error_Handler>
  }
  if (HAL_UARTEx_SetRxFifoThreshold(&hlpuart1, UART_RXFIFO_THRESHOLD_1_8) != HAL_OK)
 c003a76:	2100      	movs	r1, #0
 c003a78:	4808      	ldr	r0, [pc, #32]	; (c003a9c <MX_LPUART1_UART_Init+0x90>)
 c003a7a:	f004 f867 	bl	c007b4c <HAL_UARTEx_SetRxFifoThreshold>
 c003a7e:	4603      	mov	r3, r0
 c003a80:	2b00      	cmp	r3, #0
 c003a82:	d001      	beq.n	c003a88 <MX_LPUART1_UART_Init+0x7c>
  {
    Error_Handler();
 c003a84:	f7ff fa30 	bl	c002ee8 <Error_Handler>
  }
  if (HAL_UARTEx_DisableFifoMode(&hlpuart1) != HAL_OK)
 c003a88:	4804      	ldr	r0, [pc, #16]	; (c003a9c <MX_LPUART1_UART_Init+0x90>)
 c003a8a:	f003 ffe8 	bl	c007a5e <HAL_UARTEx_DisableFifoMode>
 c003a8e:	4603      	mov	r3, r0
 c003a90:	2b00      	cmp	r3, #0
 c003a92:	d001      	beq.n	c003a98 <MX_LPUART1_UART_Init+0x8c>
  {
    Error_Handler();
 c003a94:	f7ff fa28 	bl	c002ee8 <Error_Handler>
  }
  /* USER CODE BEGIN LPUART1_Init 2 */

  /* USER CODE END LPUART1_Init 2 */

}
 c003a98:	bf00      	nop
 c003a9a:	bd80      	pop	{r7, pc}
 c003a9c:	300007a0 	.word	0x300007a0
 c003aa0:	50008000 	.word	0x50008000

0c003aa4 <HAL_UART_MspInit>:

void HAL_UART_MspInit(UART_HandleTypeDef* uartHandle)
{
 c003aa4:	b580      	push	{r7, lr}
 c003aa6:	b0ae      	sub	sp, #184	; 0xb8
 c003aa8:	af00      	add	r7, sp, #0
 c003aaa:	6078      	str	r0, [r7, #4]

  GPIO_InitTypeDef GPIO_InitStruct = {0};
 c003aac:	f107 03a4 	add.w	r3, r7, #164	; 0xa4
 c003ab0:	2200      	movs	r2, #0
 c003ab2:	601a      	str	r2, [r3, #0]
 c003ab4:	605a      	str	r2, [r3, #4]
 c003ab6:	609a      	str	r2, [r3, #8]
 c003ab8:	60da      	str	r2, [r3, #12]
 c003aba:	611a      	str	r2, [r3, #16]
  RCC_PeriphCLKInitTypeDef PeriphClkInit = {0};
 c003abc:	f107 0310 	add.w	r3, r7, #16
 c003ac0:	2294      	movs	r2, #148	; 0x94
 c003ac2:	2100      	movs	r1, #0
 c003ac4:	4618      	mov	r0, r3
 c003ac6:	f004 f8fe 	bl	c007cc6 <memset>
  if(uartHandle->Instance==LPUART1)
 c003aca:	687b      	ldr	r3, [r7, #4]
 c003acc:	681b      	ldr	r3, [r3, #0]
 c003ace:	4a22      	ldr	r2, [pc, #136]	; (c003b58 <HAL_UART_MspInit+0xb4>)
 c003ad0:	4293      	cmp	r3, r2
 c003ad2:	d13d      	bne.n	c003b50 <HAL_UART_MspInit+0xac>

  /* USER CODE END LPUART1_MspInit 0 */

  /** Initializes the peripherals clock
  */
    PeriphClkInit.PeriphClockSelection = RCC_PERIPHCLK_LPUART1;
 c003ad4:	2320      	movs	r3, #32
 c003ad6:	613b      	str	r3, [r7, #16]
    PeriphClkInit.Lpuart1ClockSelection = RCC_LPUART1CLKSOURCE_PCLK1;
 c003ad8:	2300      	movs	r3, #0
 c003ada:	65bb      	str	r3, [r7, #88]	; 0x58
    if (HAL_RCCEx_PeriphCLKConfig(&PeriphClkInit) != HAL_OK)
 c003adc:	f107 0310 	add.w	r3, r7, #16
 c003ae0:	4618      	mov	r0, r3
 c003ae2:	f002 f80f 	bl	c005b04 <HAL_RCCEx_PeriphCLKConfig>
 c003ae6:	4603      	mov	r3, r0
 c003ae8:	2b00      	cmp	r3, #0
 c003aea:	d001      	beq.n	c003af0 <HAL_UART_MspInit+0x4c>
    {
      Error_Handler();
 c003aec:	f7ff f9fc 	bl	c002ee8 <Error_Handler>
    }

    /* LPUART1 clock enable */
    __HAL_RCC_LPUART1_CLK_ENABLE();
 c003af0:	4b1a      	ldr	r3, [pc, #104]	; (c003b5c <HAL_UART_MspInit+0xb8>)
 c003af2:	6ddb      	ldr	r3, [r3, #92]	; 0x5c
 c003af4:	4a19      	ldr	r2, [pc, #100]	; (c003b5c <HAL_UART_MspInit+0xb8>)
 c003af6:	f043 0301 	orr.w	r3, r3, #1
 c003afa:	65d3      	str	r3, [r2, #92]	; 0x5c
 c003afc:	4b17      	ldr	r3, [pc, #92]	; (c003b5c <HAL_UART_MspInit+0xb8>)
 c003afe:	6ddb      	ldr	r3, [r3, #92]	; 0x5c
 c003b00:	f003 0301 	and.w	r3, r3, #1
 c003b04:	60fb      	str	r3, [r7, #12]
 c003b06:	68fb      	ldr	r3, [r7, #12]

    __HAL_RCC_GPIOG_CLK_ENABLE();
 c003b08:	4b14      	ldr	r3, [pc, #80]	; (c003b5c <HAL_UART_MspInit+0xb8>)
 c003b0a:	6cdb      	ldr	r3, [r3, #76]	; 0x4c
 c003b0c:	4a13      	ldr	r2, [pc, #76]	; (c003b5c <HAL_UART_MspInit+0xb8>)
 c003b0e:	f043 0340 	orr.w	r3, r3, #64	; 0x40
 c003b12:	64d3      	str	r3, [r2, #76]	; 0x4c
 c003b14:	4b11      	ldr	r3, [pc, #68]	; (c003b5c <HAL_UART_MspInit+0xb8>)
 c003b16:	6cdb      	ldr	r3, [r3, #76]	; 0x4c
 c003b18:	f003 0340 	and.w	r3, r3, #64	; 0x40
 c003b1c:	60bb      	str	r3, [r7, #8]
 c003b1e:	68bb      	ldr	r3, [r7, #8]
    HAL_PWREx_EnableVddIO2();
 c003b20:	f000 ffee 	bl	c004b00 <HAL_PWREx_EnableVddIO2>
    /**LPUART1 GPIO Configuration
    PG7     ------> LPUART1_TX
    PG8     ------> LPUART1_RX
    */
    GPIO_InitStruct.Pin = GPIO_PIN_7|GPIO_PIN_8;
 c003b24:	f44f 73c0 	mov.w	r3, #384	; 0x180
 c003b28:	f8c7 30a4 	str.w	r3, [r7, #164]	; 0xa4
    GPIO_InitStruct.Mode = GPIO_MODE_AF_PP;
 c003b2c:	2302      	movs	r3, #2
 c003b2e:	f8c7 30a8 	str.w	r3, [r7, #168]	; 0xa8
    GPIO_InitStruct.Pull = GPIO_NOPULL;
 c003b32:	2300      	movs	r3, #0
 c003b34:	f8c7 30ac 	str.w	r3, [r7, #172]	; 0xac
    GPIO_InitStruct.Speed = GPIO_SPEED_FREQ_LOW;
 c003b38:	2300      	movs	r3, #0
 c003b3a:	f8c7 30b0 	str.w	r3, [r7, #176]	; 0xb0
    GPIO_InitStruct.Alternate = GPIO_AF8_LPUART1;
 c003b3e:	2308      	movs	r3, #8
 c003b40:	f8c7 30b4 	str.w	r3, [r7, #180]	; 0xb4
    HAL_GPIO_Init(GPIOG, &GPIO_InitStruct);
 c003b44:	f107 03a4 	add.w	r3, r7, #164	; 0xa4
 c003b48:	4619      	mov	r1, r3
 c003b4a:	4805      	ldr	r0, [pc, #20]	; (c003b60 <HAL_UART_MspInit+0xbc>)
 c003b4c:	f000 fb74 	bl	c004238 <HAL_GPIO_Init>

  /* USER CODE BEGIN LPUART1_MspInit 1 */

  /* USER CODE END LPUART1_MspInit 1 */
  }
}
 c003b50:	bf00      	nop
 c003b52:	37b8      	adds	r7, #184	; 0xb8
 c003b54:	46bd      	mov	sp, r7
 c003b56:	bd80      	pop	{r7, pc}
 c003b58:	50008000 	.word	0x50008000
 c003b5c:	50021000 	.word	0x50021000
 c003b60:	52021800 	.word	0x52021800

0c003b64 <SecureUartTx>:
}

/* USER CODE BEGIN 1 */

void SecureUartTx(uint8_t* data, uint16_t len)
{
 c003b64:	b580      	push	{r7, lr}
 c003b66:	b082      	sub	sp, #8
 c003b68:	af00      	add	r7, sp, #0
 c003b6a:	6078      	str	r0, [r7, #4]
 c003b6c:	460b      	mov	r3, r1
 c003b6e:	807b      	strh	r3, [r7, #2]
  HAL_UART_Transmit(&hlpuart1, data, len, HAL_MAX_DELAY);
 c003b70:	887a      	ldrh	r2, [r7, #2]
 c003b72:	f04f 33ff 	mov.w	r3, #4294967295	; 0xffffffff
 c003b76:	6879      	ldr	r1, [r7, #4]
 c003b78:	4803      	ldr	r0, [pc, #12]	; (c003b88 <SecureUartTx+0x24>)
 c003b7a:	f003 f99b 	bl	c006eb4 <HAL_UART_Transmit>
}
 c003b7e:	bf00      	nop
 c003b80:	3708      	adds	r7, #8
 c003b82:	46bd      	mov	sp, r7
 c003b84:	bd80      	pop	{r7, pc}
 c003b86:	bf00      	nop
 c003b88:	300007a0 	.word	0x300007a0

0c003b8c <SecureUartRx>:

void SecureUartRx(uint8_t* data, uint16_t len)
{
 c003b8c:	b580      	push	{r7, lr}
 c003b8e:	b082      	sub	sp, #8
 c003b90:	af00      	add	r7, sp, #0
 c003b92:	6078      	str	r0, [r7, #4]
 c003b94:	460b      	mov	r3, r1
 c003b96:	807b      	strh	r3, [r7, #2]
	HAL_UART_Receive(&hlpuart1, data, len, HAL_MAX_DELAY);
 c003b98:	887a      	ldrh	r2, [r7, #2]
 c003b9a:	f04f 33ff 	mov.w	r3, #4294967295	; 0xffffffff
 c003b9e:	6879      	ldr	r1, [r7, #4]
 c003ba0:	4803      	ldr	r0, [pc, #12]	; (c003bb0 <SecureUartRx+0x24>)
 c003ba2:	f003 fa1d 	bl	c006fe0 <HAL_UART_Receive>

}
 c003ba6:	bf00      	nop
 c003ba8:	3708      	adds	r7, #8
 c003baa:	46bd      	mov	sp, r7
 c003bac:	bd80      	pop	{r7, pc}
 c003bae:	bf00      	nop
 c003bb0:	300007a0 	.word	0x300007a0

0c003bb4 <Reset_Handler>:

    .section	.text.Reset_Handler
	.weak	Reset_Handler
	.type	Reset_Handler, %function
Reset_Handler:
  ldr   sp, =_estack    /* set stack pointer */
 c003bb4:	f8df d034 	ldr.w	sp, [pc, #52]	; c003bec <LoopForever+0x2>

/* Call the clock system initialization function.*/
  bl  SystemInit
 c003bb8:	f7ff fd44 	bl	c003644 <SystemInit>

/* Copy the data segment initializers from flash to SRAM */
  movs	r1, #0
 c003bbc:	2100      	movs	r1, #0
  b	LoopCopyDataInit
 c003bbe:	e003      	b.n	c003bc8 <LoopCopyDataInit>

0c003bc0 <CopyDataInit>:

CopyDataInit:
	ldr	r3, =_sidata
 c003bc0:	4b0b      	ldr	r3, [pc, #44]	; (c003bf0 <LoopForever+0x6>)
	ldr	r3, [r3, r1]
 c003bc2:	585b      	ldr	r3, [r3, r1]
	str	r3, [r0, r1]
 c003bc4:	5043      	str	r3, [r0, r1]
	adds	r1, r1, #4
 c003bc6:	3104      	adds	r1, #4

0c003bc8 <LoopCopyDataInit>:

LoopCopyDataInit:
	ldr	r0, =_sdata
 c003bc8:	480a      	ldr	r0, [pc, #40]	; (c003bf4 <LoopForever+0xa>)
	ldr	r3, =_edata
 c003bca:	4b0b      	ldr	r3, [pc, #44]	; (c003bf8 <LoopForever+0xe>)
	adds	r2, r0, r1
 c003bcc:	1842      	adds	r2, r0, r1
	cmp	r2, r3
 c003bce:	429a      	cmp	r2, r3
	bcc	CopyDataInit
 c003bd0:	d3f6      	bcc.n	c003bc0 <CopyDataInit>
	ldr	r2, =_sbss
 c003bd2:	4a0a      	ldr	r2, [pc, #40]	; (c003bfc <LoopForever+0x12>)
	b	LoopFillZerobss
 c003bd4:	e002      	b.n	c003bdc <LoopFillZerobss>

0c003bd6 <FillZerobss>:
/* Zero fill the bss segment. */
FillZerobss:
	movs	r3, #0
 c003bd6:	2300      	movs	r3, #0
	str	r3, [r2], #4
 c003bd8:	f842 3b04 	str.w	r3, [r2], #4

0c003bdc <LoopFillZerobss>:

LoopFillZerobss:
	ldr	r3, = _ebss
 c003bdc:	4b08      	ldr	r3, [pc, #32]	; (c003c00 <LoopForever+0x16>)
	cmp	r2, r3
 c003bde:	429a      	cmp	r2, r3
	bcc	FillZerobss
 c003be0:	d3f9      	bcc.n	c003bd6 <FillZerobss>

/* Call static constructors */
  bl __libc_init_array
 c003be2:	f004 f83f 	bl	c007c64 <__libc_init_array>
/* Call the application's entry point.*/
	bl	main
 c003be6:	f7ff f8cb 	bl	c002d80 <main>

0c003bea <LoopForever>:

LoopForever:
    b LoopForever
 c003bea:	e7fe      	b.n	c003bea <LoopForever>
  ldr   sp, =_estack    /* set stack pointer */
 c003bec:	30010000 	.word	0x30010000
	ldr	r3, =_sidata
 c003bf0:	0c007db0 	.word	0x0c007db0
	ldr	r0, =_sdata
 c003bf4:	30000000 	.word	0x30000000
	ldr	r3, =_edata
 c003bf8:	30000034 	.word	0x30000034
	ldr	r2, =_sbss
 c003bfc:	3000049c 	.word	0x3000049c
	ldr	r3, = _ebss
 c003c00:	30000834 	.word	0x30000834

0c003c04 <ADC1_2_IRQHandler>:
 * @retval : None
*/
    .section	.text.Default_Handler,"ax",%progbits
Default_Handler:
Infinite_Loop:
	b	Infinite_Loop
 c003c04:	e7fe      	b.n	c003c04 <ADC1_2_IRQHandler>

0c003c06 <HAL_Init>:
  *         each 1ms in the SysTick_Handler() interrupt handler.
  *
  * @retval HAL status
  */
HAL_StatusTypeDef HAL_Init(void)
{
 c003c06:	b580      	push	{r7, lr}
 c003c08:	b082      	sub	sp, #8
 c003c0a:	af00      	add	r7, sp, #0
  HAL_StatusTypeDef  status = HAL_OK;
 c003c0c:	2300      	movs	r3, #0
 c003c0e:	71fb      	strb	r3, [r7, #7]

  /* Set Interrupt Group Priority */
  HAL_NVIC_SetPriorityGrouping(NVIC_PRIORITYGROUP_3);
 c003c10:	2004      	movs	r0, #4
 c003c12:	f000 f93f 	bl	c003e94 <HAL_NVIC_SetPriorityGrouping>

  /* Insure time base clock coherency */
  SystemCoreClockUpdate();
 c003c16:	f7ff fd2f 	bl	c003678 <SystemCoreClockUpdate>

  /* Use SysTick as time base source and configure 1ms tick (default clock after Reset is MSI) */
  if (HAL_InitTick(TICK_INT_PRIORITY) != HAL_OK)
 c003c1a:	2007      	movs	r0, #7
 c003c1c:	f000 f80e 	bl	c003c3c <HAL_InitTick>
 c003c20:	4603      	mov	r3, r0
 c003c22:	2b00      	cmp	r3, #0
 c003c24:	d002      	beq.n	c003c2c <HAL_Init+0x26>
  {
    status = HAL_ERROR;
 c003c26:	2301      	movs	r3, #1
 c003c28:	71fb      	strb	r3, [r7, #7]
 c003c2a:	e001      	b.n	c003c30 <HAL_Init+0x2a>
  }
  else
  {
    /* Init the low level hardware */
    HAL_MspInit();
 c003c2c:	f7ff fbda 	bl	c0033e4 <HAL_MspInit>
  }

  /* Return function status */
  return status;
 c003c30:	79fb      	ldrb	r3, [r7, #7]
}
 c003c32:	4618      	mov	r0, r3
 c003c34:	3708      	adds	r7, #8
 c003c36:	46bd      	mov	sp, r7
 c003c38:	bd80      	pop	{r7, pc}
	...

0c003c3c <HAL_InitTick>:
  *       implementation  in user file.
  * @param TickPriority  Tick interrupt priority.
  * @retval HAL status
  */
__weak HAL_StatusTypeDef HAL_InitTick(uint32_t TickPriority)
{
 c003c3c:	b580      	push	{r7, lr}
 c003c3e:	b084      	sub	sp, #16
 c003c40:	af00      	add	r7, sp, #0
 c003c42:	6078      	str	r0, [r7, #4]
  HAL_StatusTypeDef  status = HAL_OK;
 c003c44:	2300      	movs	r3, #0
 c003c46:	73fb      	strb	r3, [r7, #15]

  /* Check uwTickFreq for MisraC 2012 (even if uwTickFreq is a enum type that doesn't take the value zero)*/
  if ((uint32_t)uwTickFreq != 0U)
 c003c48:	4b17      	ldr	r3, [pc, #92]	; (c003ca8 <HAL_InitTick+0x6c>)
 c003c4a:	781b      	ldrb	r3, [r3, #0]
 c003c4c:	2b00      	cmp	r3, #0
 c003c4e:	d023      	beq.n	c003c98 <HAL_InitTick+0x5c>
  {
    /*Configure the SysTick to have interrupt in 1ms time basis*/
    if (HAL_SYSTICK_Config(SystemCoreClock / (1000U / (uint32_t)uwTickFreq)) == 0U)
 c003c50:	4b16      	ldr	r3, [pc, #88]	; (c003cac <HAL_InitTick+0x70>)
 c003c52:	681a      	ldr	r2, [r3, #0]
 c003c54:	4b14      	ldr	r3, [pc, #80]	; (c003ca8 <HAL_InitTick+0x6c>)
 c003c56:	781b      	ldrb	r3, [r3, #0]
 c003c58:	4619      	mov	r1, r3
 c003c5a:	f44f 737a 	mov.w	r3, #1000	; 0x3e8
 c003c5e:	fbb3 f3f1 	udiv	r3, r3, r1
 c003c62:	fbb2 f3f3 	udiv	r3, r2, r3
 c003c66:	4618      	mov	r0, r3
 c003c68:	f000 f947 	bl	c003efa <HAL_SYSTICK_Config>
 c003c6c:	4603      	mov	r3, r0
 c003c6e:	2b00      	cmp	r3, #0
 c003c70:	d10f      	bne.n	c003c92 <HAL_InitTick+0x56>
    {
      /* Configure the SysTick IRQ priority */
      if (TickPriority < (1UL << __NVIC_PRIO_BITS))
 c003c72:	687b      	ldr	r3, [r7, #4]
 c003c74:	2b07      	cmp	r3, #7
 c003c76:	d809      	bhi.n	c003c8c <HAL_InitTick+0x50>
      {
        HAL_NVIC_SetPriority(SysTick_IRQn, TickPriority, 0U);
 c003c78:	2200      	movs	r2, #0
 c003c7a:	6879      	ldr	r1, [r7, #4]
 c003c7c:	f04f 30ff 	mov.w	r0, #4294967295	; 0xffffffff
 c003c80:	f000 f913 	bl	c003eaa <HAL_NVIC_SetPriority>
        uwTickPrio = TickPriority;
 c003c84:	4a0a      	ldr	r2, [pc, #40]	; (c003cb0 <HAL_InitTick+0x74>)
 c003c86:	687b      	ldr	r3, [r7, #4]
 c003c88:	6013      	str	r3, [r2, #0]
 c003c8a:	e007      	b.n	c003c9c <HAL_InitTick+0x60>
      }
      else
      {
        status = HAL_ERROR;
 c003c8c:	2301      	movs	r3, #1
 c003c8e:	73fb      	strb	r3, [r7, #15]
 c003c90:	e004      	b.n	c003c9c <HAL_InitTick+0x60>
      }
    }
    else
    {
      status = HAL_ERROR;
 c003c92:	2301      	movs	r3, #1
 c003c94:	73fb      	strb	r3, [r7, #15]
 c003c96:	e001      	b.n	c003c9c <HAL_InitTick+0x60>
    }
  }
  else
  {
    status = HAL_ERROR;
 c003c98:	2301      	movs	r3, #1
 c003c9a:	73fb      	strb	r3, [r7, #15]
  }

  /* Return function status */
  return status;
 c003c9c:	7bfb      	ldrb	r3, [r7, #15]
}
 c003c9e:	4618      	mov	r0, r3
 c003ca0:	3710      	adds	r7, #16
 c003ca2:	46bd      	mov	sp, r7
 c003ca4:	bd80      	pop	{r7, pc}
 c003ca6:	bf00      	nop
 c003ca8:	30000030 	.word	0x30000030
 c003cac:	30000028 	.word	0x30000028
 c003cb0:	3000002c 	.word	0x3000002c

0c003cb4 <HAL_IncTick>:
  * @note This function is declared as __weak to be overwritten in case of other
  *      implementations in user file.
  * @retval None
  */
__weak void HAL_IncTick(void)
{
 c003cb4:	b480      	push	{r7}
 c003cb6:	af00      	add	r7, sp, #0
  uwTick += (uint32_t)uwTickFreq;
 c003cb8:	4b06      	ldr	r3, [pc, #24]	; (c003cd4 <HAL_IncTick+0x20>)
 c003cba:	781b      	ldrb	r3, [r3, #0]
 c003cbc:	461a      	mov	r2, r3
 c003cbe:	4b06      	ldr	r3, [pc, #24]	; (c003cd8 <HAL_IncTick+0x24>)
 c003cc0:	681b      	ldr	r3, [r3, #0]
 c003cc2:	4413      	add	r3, r2
 c003cc4:	4a04      	ldr	r2, [pc, #16]	; (c003cd8 <HAL_IncTick+0x24>)
 c003cc6:	6013      	str	r3, [r2, #0]
}
 c003cc8:	bf00      	nop
 c003cca:	46bd      	mov	sp, r7
 c003ccc:	f85d 7b04 	ldr.w	r7, [sp], #4
 c003cd0:	4770      	bx	lr
 c003cd2:	bf00      	nop
 c003cd4:	30000030 	.word	0x30000030
 c003cd8:	30000830 	.word	0x30000830

0c003cdc <HAL_GetTick>:
  * @note This function is declared as __weak to be overwritten in case of other
  *       implementations in user file.
  * @retval tick value
  */
__weak uint32_t HAL_GetTick(void)
{
 c003cdc:	b480      	push	{r7}
 c003cde:	af00      	add	r7, sp, #0
  return uwTick;
 c003ce0:	4b03      	ldr	r3, [pc, #12]	; (c003cf0 <HAL_GetTick+0x14>)
 c003ce2:	681b      	ldr	r3, [r3, #0]
}
 c003ce4:	4618      	mov	r0, r3
 c003ce6:	46bd      	mov	sp, r7
 c003ce8:	f85d 7b04 	ldr.w	r7, [sp], #4
 c003cec:	4770      	bx	lr
 c003cee:	bf00      	nop
 c003cf0:	30000830 	.word	0x30000830

0c003cf4 <__NVIC_SetPriorityGrouping>:
           In case of a conflict between priority grouping and available
           priority bits (__NVIC_PRIO_BITS), the smallest possible priority group is set.
  \param [in]      PriorityGroup  Priority grouping field.
 */
__STATIC_INLINE void __NVIC_SetPriorityGrouping(uint32_t PriorityGroup)
{
 c003cf4:	b480      	push	{r7}
 c003cf6:	b085      	sub	sp, #20
 c003cf8:	af00      	add	r7, sp, #0
 c003cfa:	6078      	str	r0, [r7, #4]
  uint32_t reg_value;
  uint32_t PriorityGroupTmp = (PriorityGroup & (uint32_t)0x07UL);             /* only values 0..7 are used          */
 c003cfc:	687b      	ldr	r3, [r7, #4]
 c003cfe:	f003 0307 	and.w	r3, r3, #7
 c003d02:	60fb      	str	r3, [r7, #12]

  reg_value  =  SCB->AIRCR;                                                   /* read old register configuration    */
 c003d04:	4b0c      	ldr	r3, [pc, #48]	; (c003d38 <__NVIC_SetPriorityGrouping+0x44>)
 c003d06:	68db      	ldr	r3, [r3, #12]
 c003d08:	60bb      	str	r3, [r7, #8]
  reg_value &= ~((uint32_t)(SCB_AIRCR_VECTKEY_Msk | SCB_AIRCR_PRIGROUP_Msk)); /* clear bits to change               */
 c003d0a:	68ba      	ldr	r2, [r7, #8]
 c003d0c:	f64f 03ff 	movw	r3, #63743	; 0xf8ff
 c003d10:	4013      	ands	r3, r2
 c003d12:	60bb      	str	r3, [r7, #8]
  reg_value  =  (reg_value                                   |
                ((uint32_t)0x5FAUL << SCB_AIRCR_VECTKEY_Pos) |
                (PriorityGroupTmp << SCB_AIRCR_PRIGROUP_Pos)  );              /* Insert write key and priority group */
 c003d14:	68fb      	ldr	r3, [r7, #12]
 c003d16:	021a      	lsls	r2, r3, #8
                ((uint32_t)0x5FAUL << SCB_AIRCR_VECTKEY_Pos) |
 c003d18:	68bb      	ldr	r3, [r7, #8]
 c003d1a:	4313      	orrs	r3, r2
  reg_value  =  (reg_value                                   |
 c003d1c:	f043 63bf 	orr.w	r3, r3, #100139008	; 0x5f80000
 c003d20:	f443 3300 	orr.w	r3, r3, #131072	; 0x20000
 c003d24:	60bb      	str	r3, [r7, #8]
  SCB->AIRCR =  reg_value;
 c003d26:	4a04      	ldr	r2, [pc, #16]	; (c003d38 <__NVIC_SetPriorityGrouping+0x44>)
 c003d28:	68bb      	ldr	r3, [r7, #8]
 c003d2a:	60d3      	str	r3, [r2, #12]
}
 c003d2c:	bf00      	nop
 c003d2e:	3714      	adds	r7, #20
 c003d30:	46bd      	mov	sp, r7
 c003d32:	f85d 7b04 	ldr.w	r7, [sp], #4
 c003d36:	4770      	bx	lr
 c003d38:	e000ed00 	.word	0xe000ed00

0c003d3c <__NVIC_GetPriorityGrouping>:
  \brief   Get Priority Grouping
  \details Reads the priority grouping field from the NVIC Interrupt Controller.
  \return                Priority grouping field (SCB->AIRCR [10:8] PRIGROUP field).
 */
__STATIC_INLINE uint32_t __NVIC_GetPriorityGrouping(void)
{
 c003d3c:	b480      	push	{r7}
 c003d3e:	af00      	add	r7, sp, #0
  return ((uint32_t)((SCB->AIRCR & SCB_AIRCR_PRIGROUP_Msk) >> SCB_AIRCR_PRIGROUP_Pos));
 c003d40:	4b04      	ldr	r3, [pc, #16]	; (c003d54 <__NVIC_GetPriorityGrouping+0x18>)
 c003d42:	68db      	ldr	r3, [r3, #12]
 c003d44:	0a1b      	lsrs	r3, r3, #8
 c003d46:	f003 0307 	and.w	r3, r3, #7
}
 c003d4a:	4618      	mov	r0, r3
 c003d4c:	46bd      	mov	sp, r7
 c003d4e:	f85d 7b04 	ldr.w	r7, [sp], #4
 c003d52:	4770      	bx	lr
 c003d54:	e000ed00 	.word	0xe000ed00

0c003d58 <__NVIC_EnableIRQ>:
  \details Enables a device specific interrupt in the NVIC interrupt controller.
  \param [in]      IRQn  Device specific interrupt number.
  \note    IRQn must not be negative.
 */
__STATIC_INLINE void __NVIC_EnableIRQ(IRQn_Type IRQn)
{
 c003d58:	b480      	push	{r7}
 c003d5a:	b083      	sub	sp, #12
 c003d5c:	af00      	add	r7, sp, #0
 c003d5e:	4603      	mov	r3, r0
 c003d60:	71fb      	strb	r3, [r7, #7]
  if ((int32_t)(IRQn) >= 0)
 c003d62:	f997 3007 	ldrsb.w	r3, [r7, #7]
 c003d66:	2b00      	cmp	r3, #0
 c003d68:	db0b      	blt.n	c003d82 <__NVIC_EnableIRQ+0x2a>
  {
    __COMPILER_BARRIER();
    NVIC->ISER[(((uint32_t)IRQn) >> 5UL)] = (uint32_t)(1UL << (((uint32_t)IRQn) & 0x1FUL));
 c003d6a:	79fb      	ldrb	r3, [r7, #7]
 c003d6c:	f003 021f 	and.w	r2, r3, #31
 c003d70:	4907      	ldr	r1, [pc, #28]	; (c003d90 <__NVIC_EnableIRQ+0x38>)
 c003d72:	f997 3007 	ldrsb.w	r3, [r7, #7]
 c003d76:	095b      	lsrs	r3, r3, #5
 c003d78:	2001      	movs	r0, #1
 c003d7a:	fa00 f202 	lsl.w	r2, r0, r2
 c003d7e:	f841 2023 	str.w	r2, [r1, r3, lsl #2]
    __COMPILER_BARRIER();
  }
}
 c003d82:	bf00      	nop
 c003d84:	370c      	adds	r7, #12
 c003d86:	46bd      	mov	sp, r7
 c003d88:	f85d 7b04 	ldr.w	r7, [sp], #4
 c003d8c:	4770      	bx	lr
 c003d8e:	bf00      	nop
 c003d90:	e000e100 	.word	0xe000e100

0c003d94 <__NVIC_SetPriority>:
  \param [in]      IRQn  Interrupt number.
  \param [in]  priority  Priority to set.
  \note    The priority cannot be set for every processor exception.
 */
__STATIC_INLINE void __NVIC_SetPriority(IRQn_Type IRQn, uint32_t priority)
{
 c003d94:	b480      	push	{r7}
 c003d96:	b083      	sub	sp, #12
 c003d98:	af00      	add	r7, sp, #0
 c003d9a:	4603      	mov	r3, r0
 c003d9c:	6039      	str	r1, [r7, #0]
 c003d9e:	71fb      	strb	r3, [r7, #7]
  if ((int32_t)(IRQn) >= 0)
 c003da0:	f997 3007 	ldrsb.w	r3, [r7, #7]
 c003da4:	2b00      	cmp	r3, #0
 c003da6:	db0a      	blt.n	c003dbe <__NVIC_SetPriority+0x2a>
  {
    NVIC->IPR[((uint32_t)IRQn)]               = (uint8_t)((priority << (8U - __NVIC_PRIO_BITS)) & (uint32_t)0xFFUL);
 c003da8:	683b      	ldr	r3, [r7, #0]
 c003daa:	b2da      	uxtb	r2, r3
 c003dac:	490c      	ldr	r1, [pc, #48]	; (c003de0 <__NVIC_SetPriority+0x4c>)
 c003dae:	f997 3007 	ldrsb.w	r3, [r7, #7]
 c003db2:	0152      	lsls	r2, r2, #5
 c003db4:	b2d2      	uxtb	r2, r2
 c003db6:	440b      	add	r3, r1
 c003db8:	f883 2300 	strb.w	r2, [r3, #768]	; 0x300
  }
  else
  {
    SCB->SHPR[(((uint32_t)IRQn) & 0xFUL)-4UL] = (uint8_t)((priority << (8U - __NVIC_PRIO_BITS)) & (uint32_t)0xFFUL);
  }
}
 c003dbc:	e00a      	b.n	c003dd4 <__NVIC_SetPriority+0x40>
    SCB->SHPR[(((uint32_t)IRQn) & 0xFUL)-4UL] = (uint8_t)((priority << (8U - __NVIC_PRIO_BITS)) & (uint32_t)0xFFUL);
 c003dbe:	683b      	ldr	r3, [r7, #0]
 c003dc0:	b2da      	uxtb	r2, r3
 c003dc2:	4908      	ldr	r1, [pc, #32]	; (c003de4 <__NVIC_SetPriority+0x50>)
 c003dc4:	79fb      	ldrb	r3, [r7, #7]
 c003dc6:	f003 030f 	and.w	r3, r3, #15
 c003dca:	3b04      	subs	r3, #4
 c003dcc:	0152      	lsls	r2, r2, #5
 c003dce:	b2d2      	uxtb	r2, r2
 c003dd0:	440b      	add	r3, r1
 c003dd2:	761a      	strb	r2, [r3, #24]
}
 c003dd4:	bf00      	nop
 c003dd6:	370c      	adds	r7, #12
 c003dd8:	46bd      	mov	sp, r7
 c003dda:	f85d 7b04 	ldr.w	r7, [sp], #4
 c003dde:	4770      	bx	lr
 c003de0:	e000e100 	.word	0xe000e100
 c003de4:	e000ed00 	.word	0xe000ed00

0c003de8 <NVIC_EncodePriority>:
  \param [in]   PreemptPriority  Preemptive priority value (starting from 0).
  \param [in]       SubPriority  Subpriority value (starting from 0).
  \return                        Encoded priority. Value can be used in the function \ref NVIC_SetPriority().
 */
__STATIC_INLINE uint32_t NVIC_EncodePriority (uint32_t PriorityGroup, uint32_t PreemptPriority, uint32_t SubPriority)
{
 c003de8:	b480      	push	{r7}
 c003dea:	b089      	sub	sp, #36	; 0x24
 c003dec:	af00      	add	r7, sp, #0
 c003dee:	60f8      	str	r0, [r7, #12]
 c003df0:	60b9      	str	r1, [r7, #8]
 c003df2:	607a      	str	r2, [r7, #4]
  uint32_t PriorityGroupTmp = (PriorityGroup & (uint32_t)0x07UL);   /* only values 0..7 are used          */
 c003df4:	68fb      	ldr	r3, [r7, #12]
 c003df6:	f003 0307 	and.w	r3, r3, #7
 c003dfa:	61fb      	str	r3, [r7, #28]
  uint32_t PreemptPriorityBits;
  uint32_t SubPriorityBits;

  PreemptPriorityBits = ((7UL - PriorityGroupTmp) > (uint32_t)(__NVIC_PRIO_BITS)) ? (uint32_t)(__NVIC_PRIO_BITS) : (uint32_t)(7UL - PriorityGroupTmp);
 c003dfc:	69fb      	ldr	r3, [r7, #28]
 c003dfe:	f1c3 0307 	rsb	r3, r3, #7
 c003e02:	2b03      	cmp	r3, #3
 c003e04:	bf28      	it	cs
 c003e06:	2303      	movcs	r3, #3
 c003e08:	61bb      	str	r3, [r7, #24]
  SubPriorityBits     = ((PriorityGroupTmp + (uint32_t)(__NVIC_PRIO_BITS)) < (uint32_t)7UL) ? (uint32_t)0UL : (uint32_t)((PriorityGroupTmp - 7UL) + (uint32_t)(__NVIC_PRIO_BITS));
 c003e0a:	69fb      	ldr	r3, [r7, #28]
 c003e0c:	3303      	adds	r3, #3
 c003e0e:	2b06      	cmp	r3, #6
 c003e10:	d902      	bls.n	c003e18 <NVIC_EncodePriority+0x30>
 c003e12:	69fb      	ldr	r3, [r7, #28]
 c003e14:	3b04      	subs	r3, #4
 c003e16:	e000      	b.n	c003e1a <NVIC_EncodePriority+0x32>
 c003e18:	2300      	movs	r3, #0
 c003e1a:	617b      	str	r3, [r7, #20]

  return (
           ((PreemptPriority & (uint32_t)((1UL << (PreemptPriorityBits)) - 1UL)) << SubPriorityBits) |
 c003e1c:	f04f 32ff 	mov.w	r2, #4294967295	; 0xffffffff
 c003e20:	69bb      	ldr	r3, [r7, #24]
 c003e22:	fa02 f303 	lsl.w	r3, r2, r3
 c003e26:	43da      	mvns	r2, r3
 c003e28:	68bb      	ldr	r3, [r7, #8]
 c003e2a:	401a      	ands	r2, r3
 c003e2c:	697b      	ldr	r3, [r7, #20]
 c003e2e:	409a      	lsls	r2, r3
           ((SubPriority     & (uint32_t)((1UL << (SubPriorityBits    )) - 1UL)))
 c003e30:	f04f 31ff 	mov.w	r1, #4294967295	; 0xffffffff
 c003e34:	697b      	ldr	r3, [r7, #20]
 c003e36:	fa01 f303 	lsl.w	r3, r1, r3
 c003e3a:	43d9      	mvns	r1, r3
 c003e3c:	687b      	ldr	r3, [r7, #4]
 c003e3e:	400b      	ands	r3, r1
           ((PreemptPriority & (uint32_t)((1UL << (PreemptPriorityBits)) - 1UL)) << SubPriorityBits) |
 c003e40:	4313      	orrs	r3, r2
         );
}
 c003e42:	4618      	mov	r0, r3
 c003e44:	3724      	adds	r7, #36	; 0x24
 c003e46:	46bd      	mov	sp, r7
 c003e48:	f85d 7b04 	ldr.w	r7, [sp], #4
 c003e4c:	4770      	bx	lr
	...

0c003e50 <SysTick_Config>:
  \note    When the variable <b>__Vendor_SysTickConfig</b> is set to 1, then the
           function <b>SysTick_Config</b> is not included. In this case, the file <b><i>device</i>.h</b>
           must contain a vendor-specific implementation of this function.
 */
__STATIC_INLINE uint32_t SysTick_Config(uint32_t ticks)
{
 c003e50:	b580      	push	{r7, lr}
 c003e52:	b082      	sub	sp, #8
 c003e54:	af00      	add	r7, sp, #0
 c003e56:	6078      	str	r0, [r7, #4]
  if ((ticks - 1UL) > SysTick_LOAD_RELOAD_Msk)
 c003e58:	687b      	ldr	r3, [r7, #4]
 c003e5a:	3b01      	subs	r3, #1
 c003e5c:	f1b3 7f80 	cmp.w	r3, #16777216	; 0x1000000
 c003e60:	d301      	bcc.n	c003e66 <SysTick_Config+0x16>
  {
    return (1UL);                                                   /* Reload value impossible */
 c003e62:	2301      	movs	r3, #1
 c003e64:	e00f      	b.n	c003e86 <SysTick_Config+0x36>
  }

  SysTick->LOAD  = (uint32_t)(ticks - 1UL);                         /* set reload register */
 c003e66:	4a0a      	ldr	r2, [pc, #40]	; (c003e90 <SysTick_Config+0x40>)
 c003e68:	687b      	ldr	r3, [r7, #4]
 c003e6a:	3b01      	subs	r3, #1
 c003e6c:	6053      	str	r3, [r2, #4]
  NVIC_SetPriority (SysTick_IRQn, (1UL << __NVIC_PRIO_BITS) - 1UL); /* set Priority for Systick Interrupt */
 c003e6e:	2107      	movs	r1, #7
 c003e70:	f04f 30ff 	mov.w	r0, #4294967295	; 0xffffffff
 c003e74:	f7ff ff8e 	bl	c003d94 <__NVIC_SetPriority>
  SysTick->VAL   = 0UL;                                             /* Load the SysTick Counter Value */
 c003e78:	4b05      	ldr	r3, [pc, #20]	; (c003e90 <SysTick_Config+0x40>)
 c003e7a:	2200      	movs	r2, #0
 c003e7c:	609a      	str	r2, [r3, #8]
  SysTick->CTRL  = SysTick_CTRL_CLKSOURCE_Msk |
 c003e7e:	4b04      	ldr	r3, [pc, #16]	; (c003e90 <SysTick_Config+0x40>)
 c003e80:	2207      	movs	r2, #7
 c003e82:	601a      	str	r2, [r3, #0]
                   SysTick_CTRL_TICKINT_Msk   |
                   SysTick_CTRL_ENABLE_Msk;                         /* Enable SysTick IRQ and SysTick Timer */
  return (0UL);                                                     /* Function successful */
 c003e84:	2300      	movs	r3, #0
}
 c003e86:	4618      	mov	r0, r3
 c003e88:	3708      	adds	r7, #8
 c003e8a:	46bd      	mov	sp, r7
 c003e8c:	bd80      	pop	{r7, pc}
 c003e8e:	bf00      	nop
 c003e90:	e000e010 	.word	0xe000e010

0c003e94 <HAL_NVIC_SetPriorityGrouping>:
  * @note   When the NVIC_PriorityGroup_0 is selected, IRQ pre-emption is no more possible.
  *         The pending IRQ priority will be managed only by the subpriority.
  * @retval None
  */
void HAL_NVIC_SetPriorityGrouping(uint32_t PriorityGroup)
{
 c003e94:	b580      	push	{r7, lr}
 c003e96:	b082      	sub	sp, #8
 c003e98:	af00      	add	r7, sp, #0
 c003e9a:	6078      	str	r0, [r7, #4]
  /* Check the parameters */
  assert_param(IS_NVIC_PRIORITY_GROUP(PriorityGroup));

  /* Set the PRIGROUP[10:8] bits according to the PriorityGroup parameter value */
  NVIC_SetPriorityGrouping(PriorityGroup);
 c003e9c:	6878      	ldr	r0, [r7, #4]
 c003e9e:	f7ff ff29 	bl	c003cf4 <__NVIC_SetPriorityGrouping>
}
 c003ea2:	bf00      	nop
 c003ea4:	3708      	adds	r7, #8
 c003ea6:	46bd      	mov	sp, r7
 c003ea8:	bd80      	pop	{r7, pc}

0c003eaa <HAL_NVIC_SetPriority>:
  *         This parameter can be a value between 0 and 7
  *         A lower priority value indicates a higher priority.
  * @retval None
  */
void HAL_NVIC_SetPriority(IRQn_Type IRQn, uint32_t PreemptPriority, uint32_t SubPriority)
{
 c003eaa:	b580      	push	{r7, lr}
 c003eac:	b086      	sub	sp, #24
 c003eae:	af00      	add	r7, sp, #0
 c003eb0:	4603      	mov	r3, r0
 c003eb2:	60b9      	str	r1, [r7, #8]
 c003eb4:	607a      	str	r2, [r7, #4]
 c003eb6:	73fb      	strb	r3, [r7, #15]

  /* Check the parameters */
  assert_param(IS_NVIC_SUB_PRIORITY(SubPriority));
  assert_param(IS_NVIC_PREEMPTION_PRIORITY(PreemptPriority));

  prioritygroup = NVIC_GetPriorityGrouping();
 c003eb8:	f7ff ff40 	bl	c003d3c <__NVIC_GetPriorityGrouping>
 c003ebc:	6178      	str	r0, [r7, #20]

  NVIC_SetPriority(IRQn, NVIC_EncodePriority(prioritygroup, PreemptPriority, SubPriority));
 c003ebe:	687a      	ldr	r2, [r7, #4]
 c003ec0:	68b9      	ldr	r1, [r7, #8]
 c003ec2:	6978      	ldr	r0, [r7, #20]
 c003ec4:	f7ff ff90 	bl	c003de8 <NVIC_EncodePriority>
 c003ec8:	4602      	mov	r2, r0
 c003eca:	f997 300f 	ldrsb.w	r3, [r7, #15]
 c003ece:	4611      	mov	r1, r2
 c003ed0:	4618      	mov	r0, r3
 c003ed2:	f7ff ff5f 	bl	c003d94 <__NVIC_SetPriority>
}
 c003ed6:	bf00      	nop
 c003ed8:	3718      	adds	r7, #24
 c003eda:	46bd      	mov	sp, r7
 c003edc:	bd80      	pop	{r7, pc}

0c003ede <HAL_NVIC_EnableIRQ>:
  *         This parameter can be an enumerator of IRQn_Type enumeration
  *         (For the complete STM32 Devices IRQ Channels list, please refer to the appropriate CMSIS device file (stm32l5xxxx.h))
  * @retval None
  */
void HAL_NVIC_EnableIRQ(IRQn_Type IRQn)
{
 c003ede:	b580      	push	{r7, lr}
 c003ee0:	b082      	sub	sp, #8
 c003ee2:	af00      	add	r7, sp, #0
 c003ee4:	4603      	mov	r3, r0
 c003ee6:	71fb      	strb	r3, [r7, #7]
  /* Check the parameters */
  assert_param(IS_NVIC_DEVICE_IRQ(IRQn));

  /* Enable interrupt */
  NVIC_EnableIRQ(IRQn);
 c003ee8:	f997 3007 	ldrsb.w	r3, [r7, #7]
 c003eec:	4618      	mov	r0, r3
 c003eee:	f7ff ff33 	bl	c003d58 <__NVIC_EnableIRQ>
}
 c003ef2:	bf00      	nop
 c003ef4:	3708      	adds	r7, #8
 c003ef6:	46bd      	mov	sp, r7
 c003ef8:	bd80      	pop	{r7, pc}

0c003efa <HAL_SYSTICK_Config>:
  * @param  TicksNumb Specifies the ticks Number of ticks between two interrupts.
  * @retval status:  - 0  Function succeeded.
  *                  - 1  Function failed.
  */
uint32_t HAL_SYSTICK_Config(uint32_t TicksNumb)
{
 c003efa:	b580      	push	{r7, lr}
 c003efc:	b082      	sub	sp, #8
 c003efe:	af00      	add	r7, sp, #0
 c003f00:	6078      	str	r0, [r7, #4]
  return SysTick_Config(TicksNumb);
 c003f02:	6878      	ldr	r0, [r7, #4]
 c003f04:	f7ff ffa4 	bl	c003e50 <SysTick_Config>
 c003f08:	4603      	mov	r3, r0
}
 c003f0a:	4618      	mov	r0, r3
 c003f0c:	3708      	adds	r7, #8
 c003f0e:	46bd      	mov	sp, r7
 c003f10:	bd80      	pop	{r7, pc}
	...

0c003f14 <HAL_DMA_Init>:
  * @param  hdma pointer to a DMA_HandleTypeDef structure that contains
  *              the configuration information for the specified DMA Channel.
  * @retval HAL status
  */
HAL_StatusTypeDef HAL_DMA_Init(DMA_HandleTypeDef *hdma)
{
 c003f14:	b580      	push	{r7, lr}
 c003f16:	b084      	sub	sp, #16
 c003f18:	af00      	add	r7, sp, #0
 c003f1a:	6078      	str	r0, [r7, #4]
  uint32_t tmp;

  /* Check the DMA handle allocation */
  if(hdma == NULL)
 c003f1c:	687b      	ldr	r3, [r7, #4]
 c003f1e:	2b00      	cmp	r3, #0
 c003f20:	d101      	bne.n	c003f26 <HAL_DMA_Init+0x12>
  {
    return HAL_ERROR;
 c003f22:	2301      	movs	r3, #1
 c003f24:	e08d      	b.n	c004042 <HAL_DMA_Init+0x12e>
  assert_param(IS_DMA_PRIORITY(hdma->Init.Priority));

  assert_param(IS_DMA_ALL_REQUEST(hdma->Init.Request));

  /* Compute the channel index */
  if ((uint32_t)(hdma->Instance) < (uint32_t)(DMA2_Channel1))
 c003f26:	687b      	ldr	r3, [r7, #4]
 c003f28:	681b      	ldr	r3, [r3, #0]
 c003f2a:	461a      	mov	r2, r3
 c003f2c:	4b47      	ldr	r3, [pc, #284]	; (c00404c <HAL_DMA_Init+0x138>)
 c003f2e:	429a      	cmp	r2, r3
 c003f30:	d80f      	bhi.n	c003f52 <HAL_DMA_Init+0x3e>
  {
    /* DMA1 */
    hdma->ChannelIndex = (((uint32_t)hdma->Instance - (uint32_t)DMA1_Channel1) / ((uint32_t)DMA1_Channel2 - (uint32_t)DMA1_Channel1)) << 2U;
 c003f32:	687b      	ldr	r3, [r7, #4]
 c003f34:	681b      	ldr	r3, [r3, #0]
 c003f36:	461a      	mov	r2, r3
 c003f38:	4b45      	ldr	r3, [pc, #276]	; (c004050 <HAL_DMA_Init+0x13c>)
 c003f3a:	4413      	add	r3, r2
 c003f3c:	4a45      	ldr	r2, [pc, #276]	; (c004054 <HAL_DMA_Init+0x140>)
 c003f3e:	fba2 2303 	umull	r2, r3, r2, r3
 c003f42:	091b      	lsrs	r3, r3, #4
 c003f44:	009a      	lsls	r2, r3, #2
 c003f46:	687b      	ldr	r3, [r7, #4]
 c003f48:	64da      	str	r2, [r3, #76]	; 0x4c
    hdma->DmaBaseAddress = DMA1;
 c003f4a:	687b      	ldr	r3, [r7, #4]
 c003f4c:	4a42      	ldr	r2, [pc, #264]	; (c004058 <HAL_DMA_Init+0x144>)
 c003f4e:	649a      	str	r2, [r3, #72]	; 0x48
 c003f50:	e00e      	b.n	c003f70 <HAL_DMA_Init+0x5c>
  }
  else
  {
    /* DMA2 */
    hdma->ChannelIndex = (((uint32_t)hdma->Instance - (uint32_t)DMA2_Channel1) / ((uint32_t)DMA2_Channel2 - (uint32_t)DMA2_Channel1)) << 2U;
 c003f52:	687b      	ldr	r3, [r7, #4]
 c003f54:	681b      	ldr	r3, [r3, #0]
 c003f56:	461a      	mov	r2, r3
 c003f58:	4b40      	ldr	r3, [pc, #256]	; (c00405c <HAL_DMA_Init+0x148>)
 c003f5a:	4413      	add	r3, r2
 c003f5c:	4a3d      	ldr	r2, [pc, #244]	; (c004054 <HAL_DMA_Init+0x140>)
 c003f5e:	fba2 2303 	umull	r2, r3, r2, r3
 c003f62:	091b      	lsrs	r3, r3, #4
 c003f64:	009a      	lsls	r2, r3, #2
 c003f66:	687b      	ldr	r3, [r7, #4]
 c003f68:	64da      	str	r2, [r3, #76]	; 0x4c
    hdma->DmaBaseAddress = DMA2;
 c003f6a:	687b      	ldr	r3, [r7, #4]
 c003f6c:	4a3c      	ldr	r2, [pc, #240]	; (c004060 <HAL_DMA_Init+0x14c>)
 c003f6e:	649a      	str	r2, [r3, #72]	; 0x48
  }

  /* Change DMA peripheral state */
  hdma->State = HAL_DMA_STATE_BUSY;
 c003f70:	687b      	ldr	r3, [r7, #4]
 c003f72:	2202      	movs	r2, #2
 c003f74:	f883 2025 	strb.w	r2, [r3, #37]	; 0x25

  /* Get the CR register value */
  tmp = hdma->Instance->CCR;
 c003f78:	687b      	ldr	r3, [r7, #4]
 c003f7a:	681b      	ldr	r3, [r3, #0]
 c003f7c:	681b      	ldr	r3, [r3, #0]
 c003f7e:	60fb      	str	r3, [r7, #12]

  /* Clear PL, MSIZE, PSIZE, MINC, PINC, CIRC, DIR, MEM2MEM, CT and DBM bits */
  tmp &= ((uint32_t)~(DMA_CCR_PL    | DMA_CCR_MSIZE   | DMA_CCR_PSIZE  |
 c003f80:	68fb      	ldr	r3, [r7, #12]
 c003f82:	f423 33ff 	bic.w	r3, r3, #130560	; 0x1fe00
 c003f86:	f423 73f8 	bic.w	r3, r3, #496	; 0x1f0
 c003f8a:	60fb      	str	r3, [r7, #12]
                      DMA_CCR_MINC  | DMA_CCR_PINC    | DMA_CCR_CIRC   |
                      DMA_CCR_DIR   | DMA_CCR_MEM2MEM | DMA_CCR_CT     |
                      DMA_CCR_DBM));

  /* Prepare the DMA Channel configuration */
  tmp |=  hdma->Init.Direction        |
 c003f8c:	687b      	ldr	r3, [r7, #4]
 c003f8e:	689a      	ldr	r2, [r3, #8]
          hdma->Init.PeriphInc           | hdma->Init.MemInc           |
 c003f90:	687b      	ldr	r3, [r7, #4]
 c003f92:	68db      	ldr	r3, [r3, #12]
  tmp |=  hdma->Init.Direction        |
 c003f94:	431a      	orrs	r2, r3
          hdma->Init.PeriphInc           | hdma->Init.MemInc           |
 c003f96:	687b      	ldr	r3, [r7, #4]
 c003f98:	691b      	ldr	r3, [r3, #16]
 c003f9a:	431a      	orrs	r2, r3
          hdma->Init.PeriphDataAlignment | hdma->Init.MemDataAlignment |
 c003f9c:	687b      	ldr	r3, [r7, #4]
 c003f9e:	695b      	ldr	r3, [r3, #20]
          hdma->Init.PeriphInc           | hdma->Init.MemInc           |
 c003fa0:	431a      	orrs	r2, r3
          hdma->Init.PeriphDataAlignment | hdma->Init.MemDataAlignment |
 c003fa2:	687b      	ldr	r3, [r7, #4]
 c003fa4:	699b      	ldr	r3, [r3, #24]
 c003fa6:	431a      	orrs	r2, r3
          hdma->Init.Mode                | hdma->Init.Priority;
 c003fa8:	687b      	ldr	r3, [r7, #4]
 c003faa:	69db      	ldr	r3, [r3, #28]
          hdma->Init.PeriphDataAlignment | hdma->Init.MemDataAlignment |
 c003fac:	431a      	orrs	r2, r3
          hdma->Init.Mode                | hdma->Init.Priority;
 c003fae:	687b      	ldr	r3, [r7, #4]
 c003fb0:	6a1b      	ldr	r3, [r3, #32]
 c003fb2:	4313      	orrs	r3, r2
  tmp |=  hdma->Init.Direction        |
 c003fb4:	68fa      	ldr	r2, [r7, #12]
 c003fb6:	4313      	orrs	r3, r2
 c003fb8:	60fb      	str	r3, [r7, #12]

  /* Write to DMA Channel CR register */
  hdma->Instance->CCR = tmp;
 c003fba:	687b      	ldr	r3, [r7, #4]
 c003fbc:	681b      	ldr	r3, [r3, #0]
 c003fbe:	68fa      	ldr	r2, [r7, #12]
 c003fc0:	601a      	str	r2, [r3, #0]

  /* Initialize parameters for DMAMUX channel :
     DMAmuxChannel, DMAmuxChannelStatus and DMAmuxChannelStatusMask
  */
  DMA_CalcDMAMUXChannelBaseAndMask(hdma);
 c003fc2:	6878      	ldr	r0, [r7, #4]
 c003fc4:	f000 f8d6 	bl	c004174 <DMA_CalcDMAMUXChannelBaseAndMask>

  if(hdma->Init.Direction == DMA_MEMORY_TO_MEMORY)
 c003fc8:	687b      	ldr	r3, [r7, #4]
 c003fca:	689b      	ldr	r3, [r3, #8]
 c003fcc:	f5b3 4f80 	cmp.w	r3, #16384	; 0x4000
 c003fd0:	d102      	bne.n	c003fd8 <HAL_DMA_Init+0xc4>
  {
    /* if memory to memory force the request to 0*/
    hdma->Init.Request = DMA_REQUEST_MEM2MEM;
 c003fd2:	687b      	ldr	r3, [r7, #4]
 c003fd4:	2200      	movs	r2, #0
 c003fd6:	605a      	str	r2, [r3, #4]
  }

  /* Set peripheral request  to DMAMUX channel */
  hdma->DMAmuxChannel->CCR = (hdma->Init.Request & DMAMUX_CxCR_DMAREQ_ID);
 c003fd8:	687b      	ldr	r3, [r7, #4]
 c003fda:	685a      	ldr	r2, [r3, #4]
 c003fdc:	687b      	ldr	r3, [r7, #4]
 c003fde:	6d1b      	ldr	r3, [r3, #80]	; 0x50
 c003fe0:	b2d2      	uxtb	r2, r2
 c003fe2:	601a      	str	r2, [r3, #0]

  /* Clear the DMAMUX synchro overrun flag */
  hdma->DMAmuxChannelStatus->CFR = hdma->DMAmuxChannelStatusMask;
 c003fe4:	687b      	ldr	r3, [r7, #4]
 c003fe6:	6d5b      	ldr	r3, [r3, #84]	; 0x54
 c003fe8:	687a      	ldr	r2, [r7, #4]
 c003fea:	6d92      	ldr	r2, [r2, #88]	; 0x58
 c003fec:	605a      	str	r2, [r3, #4]

  if(((hdma->Init.Request > 0U) && (hdma->Init.Request <= DMA_REQUEST_GENERATOR3)))
 c003fee:	687b      	ldr	r3, [r7, #4]
 c003ff0:	685b      	ldr	r3, [r3, #4]
 c003ff2:	2b00      	cmp	r3, #0
 c003ff4:	d010      	beq.n	c004018 <HAL_DMA_Init+0x104>
 c003ff6:	687b      	ldr	r3, [r7, #4]
 c003ff8:	685b      	ldr	r3, [r3, #4]
 c003ffa:	2b04      	cmp	r3, #4
 c003ffc:	d80c      	bhi.n	c004018 <HAL_DMA_Init+0x104>
  {
    /* Initialize parameters for DMAMUX request generator :
       DMAmuxRequestGen, DMAmuxRequestGenStatus and DMAmuxRequestGenStatusMask
    */
    DMA_CalcDMAMUXRequestGenBaseAndMask(hdma);
 c003ffe:	6878      	ldr	r0, [r7, #4]
 c004000:	f000 f8f6 	bl	c0041f0 <DMA_CalcDMAMUXRequestGenBaseAndMask>

    /* Reset the DMAMUX request generator register*/
    hdma->DMAmuxRequestGen->RGCR = 0U;
 c004004:	687b      	ldr	r3, [r7, #4]
 c004006:	6ddb      	ldr	r3, [r3, #92]	; 0x5c
 c004008:	2200      	movs	r2, #0
 c00400a:	601a      	str	r2, [r3, #0]

    /* Clear the DMAMUX request generator overrun flag */
    hdma->DMAmuxRequestGenStatus->RGCFR = hdma->DMAmuxRequestGenStatusMask;
 c00400c:	687b      	ldr	r3, [r7, #4]
 c00400e:	6e1b      	ldr	r3, [r3, #96]	; 0x60
 c004010:	687a      	ldr	r2, [r7, #4]
 c004012:	6e52      	ldr	r2, [r2, #100]	; 0x64
 c004014:	605a      	str	r2, [r3, #4]
 c004016:	e008      	b.n	c00402a <HAL_DMA_Init+0x116>
  }
  else
  {
    hdma->DMAmuxRequestGen = 0U;
 c004018:	687b      	ldr	r3, [r7, #4]
 c00401a:	2200      	movs	r2, #0
 c00401c:	65da      	str	r2, [r3, #92]	; 0x5c
    hdma->DMAmuxRequestGenStatus = 0U;
 c00401e:	687b      	ldr	r3, [r7, #4]
 c004020:	2200      	movs	r2, #0
 c004022:	661a      	str	r2, [r3, #96]	; 0x60
    hdma->DMAmuxRequestGenStatusMask = 0U;
 c004024:	687b      	ldr	r3, [r7, #4]
 c004026:	2200      	movs	r2, #0
 c004028:	665a      	str	r2, [r3, #100]	; 0x64
  }

  /* Initialise the error code */
  hdma->ErrorCode = HAL_DMA_ERROR_NONE;
 c00402a:	687b      	ldr	r3, [r7, #4]
 c00402c:	2200      	movs	r2, #0
 c00402e:	645a      	str	r2, [r3, #68]	; 0x44

  /* Initialize the DMA state*/
  hdma->State = HAL_DMA_STATE_READY;
 c004030:	687b      	ldr	r3, [r7, #4]
 c004032:	2201      	movs	r2, #1
 c004034:	f883 2025 	strb.w	r2, [r3, #37]	; 0x25

  /* Allocate lock resource and initialize it */
  hdma->Lock = HAL_UNLOCKED;
 c004038:	687b      	ldr	r3, [r7, #4]
 c00403a:	2200      	movs	r2, #0
 c00403c:	f883 2024 	strb.w	r2, [r3, #36]	; 0x24

  return HAL_OK;
 c004040:	2300      	movs	r3, #0
}
 c004042:	4618      	mov	r0, r3
 c004044:	3710      	adds	r7, #16
 c004046:	46bd      	mov	sp, r7
 c004048:	bd80      	pop	{r7, pc}
 c00404a:	bf00      	nop
 c00404c:	50020407 	.word	0x50020407
 c004050:	affdfff8 	.word	0xaffdfff8
 c004054:	cccccccd 	.word	0xcccccccd
 c004058:	50020000 	.word	0x50020000
 c00405c:	affdfbf8 	.word	0xaffdfbf8
 c004060:	50020400 	.word	0x50020400

0c004064 <HAL_DMA_ConfigChannelAttributes>:
  * @param  ChannelAttributes specifies the DMA channel secure/privilege attributes.
  *         This parameter can be a one or a combination of @ref DMA_Channel_Attributes
  * @retval HAL Status
  */
HAL_StatusTypeDef HAL_DMA_ConfigChannelAttributes(DMA_HandleTypeDef *hdma, uint32_t ChannelAttributes)
{
 c004064:	b480      	push	{r7}
 c004066:	b087      	sub	sp, #28
 c004068:	af00      	add	r7, sp, #0
 c00406a:	6078      	str	r0, [r7, #4]
 c00406c:	6039      	str	r1, [r7, #0]
  HAL_StatusTypeDef status = HAL_OK;
 c00406e:	2300      	movs	r3, #0
 c004070:	75fb      	strb	r3, [r7, #23]
#if defined (__ARM_FEATURE_CMSE) && (__ARM_FEATURE_CMSE == 3U)
  uint32_t ccr_SECM;
#endif
  
  /* Check the DMA peripheral handle */
  if(hdma == NULL)
 c004072:	687b      	ldr	r3, [r7, #4]
 c004074:	2b00      	cmp	r3, #0
 c004076:	d103      	bne.n	c004080 <HAL_DMA_ConfigChannelAttributes+0x1c>
  {
    status = HAL_ERROR;
 c004078:	2301      	movs	r3, #1
 c00407a:	75fb      	strb	r3, [r7, #23]
    return status;
 c00407c:	7dfb      	ldrb	r3, [r7, #23]
 c00407e:	e073      	b.n	c004168 <HAL_DMA_ConfigChannelAttributes+0x104>

  /* Check the parameters */
  assert_param(IS_DMA_ATTRIBUTES(ChannelAttributes));

  /* Read CCR register */
  ccr = READ_REG(hdma->Instance->CCR);
 c004080:	687b      	ldr	r3, [r7, #4]
 c004082:	681b      	ldr	r3, [r3, #0]
 c004084:	681b      	ldr	r3, [r3, #0]
 c004086:	613b      	str	r3, [r7, #16]

  /* Apply any requested privilege/non-privilege attributes */
  if ((ChannelAttributes & DMA_CHANNEL_ATTR_PRIV_MASK) != 0U)
 c004088:	683b      	ldr	r3, [r7, #0]
 c00408a:	f003 0310 	and.w	r3, r3, #16
 c00408e:	2b00      	cmp	r3, #0
 c004090:	d00d      	beq.n	c0040ae <HAL_DMA_ConfigChannelAttributes+0x4a>
  {
    if((ChannelAttributes & DMA_CCR_PRIV) != 0U)
 c004092:	683b      	ldr	r3, [r7, #0]
 c004094:	f403 1380 	and.w	r3, r3, #1048576	; 0x100000
 c004098:	2b00      	cmp	r3, #0
 c00409a:	d004      	beq.n	c0040a6 <HAL_DMA_ConfigChannelAttributes+0x42>
    {
      SET_BIT(ccr, DMA_CCR_PRIV);
 c00409c:	693b      	ldr	r3, [r7, #16]
 c00409e:	f443 1380 	orr.w	r3, r3, #1048576	; 0x100000
 c0040a2:	613b      	str	r3, [r7, #16]
 c0040a4:	e003      	b.n	c0040ae <HAL_DMA_ConfigChannelAttributes+0x4a>
    }
    else
    {
      CLEAR_BIT(ccr, DMA_CCR_PRIV);
 c0040a6:	693b      	ldr	r3, [r7, #16]
 c0040a8:	f423 1380 	bic.w	r3, r3, #1048576	; 0x100000
 c0040ac:	613b      	str	r3, [r7, #16]
  }

#if defined (__ARM_FEATURE_CMSE) && (__ARM_FEATURE_CMSE == 3U)
  /* Channel */
  /* Check what is the current SECM status */
  if ((hdma->Instance->CCR & DMA_CCR_SECM) == DMA_CCR_SECM)
 c0040ae:	687b      	ldr	r3, [r7, #4]
 c0040b0:	681b      	ldr	r3, [r3, #0]
 c0040b2:	681b      	ldr	r3, [r3, #0]
 c0040b4:	f403 3300 	and.w	r3, r3, #131072	; 0x20000
 c0040b8:	f5b3 3f00 	cmp.w	r3, #131072	; 0x20000
 c0040bc:	d103      	bne.n	c0040c6 <HAL_DMA_ConfigChannelAttributes+0x62>
  {
    /* Channel is currently secure */
    ccr_SECM = DMA_CCR_SECM;
 c0040be:	f44f 3300 	mov.w	r3, #131072	; 0x20000
 c0040c2:	60fb      	str	r3, [r7, #12]
 c0040c4:	e001      	b.n	c0040ca <HAL_DMA_ConfigChannelAttributes+0x66>
  }
  else
  {
    /* Channel is currently non-secure */
    ccr_SECM = 0U;
 c0040c6:	2300      	movs	r3, #0
 c0040c8:	60fb      	str	r3, [r7, #12]
  }

  if((ChannelAttributes & DMA_CHANNEL_ATTR_SEC_MASK) != 0U)
 c0040ca:	683b      	ldr	r3, [r7, #0]
 c0040cc:	f003 0302 	and.w	r3, r3, #2
 c0040d0:	2b00      	cmp	r3, #0
 c0040d2:	d012      	beq.n	c0040fa <HAL_DMA_ConfigChannelAttributes+0x96>
  {
    if((ChannelAttributes & DMA_CCR_SECM) != 0U)
 c0040d4:	683b      	ldr	r3, [r7, #0]
 c0040d6:	f403 3300 	and.w	r3, r3, #131072	; 0x20000
 c0040da:	2b00      	cmp	r3, #0
 c0040dc:	d007      	beq.n	c0040ee <HAL_DMA_ConfigChannelAttributes+0x8a>
    {
      SET_BIT(ccr, DMA_CCR_SECM);
 c0040de:	693b      	ldr	r3, [r7, #16]
 c0040e0:	f443 3300 	orr.w	r3, r3, #131072	; 0x20000
 c0040e4:	613b      	str	r3, [r7, #16]
      /* Channel changed to secure */
      ccr_SECM = DMA_CCR_SECM;
 c0040e6:	f44f 3300 	mov.w	r3, #131072	; 0x20000
 c0040ea:	60fb      	str	r3, [r7, #12]
 c0040ec:	e005      	b.n	c0040fa <HAL_DMA_ConfigChannelAttributes+0x96>
    }
    else
    {
      CLEAR_BIT(ccr, DMA_CCR_SECM);
 c0040ee:	693b      	ldr	r3, [r7, #16]
 c0040f0:	f423 3300 	bic.w	r3, r3, #131072	; 0x20000
 c0040f4:	613b      	str	r3, [r7, #16]
      /* Channel changed to non-secure */
      ccr_SECM = 0U;
 c0040f6:	2300      	movs	r3, #0
 c0040f8:	60fb      	str	r3, [r7, #12]
    }
  }

  /* Channel source */
  if((ChannelAttributes & DMA_CHANNEL_ATTR_SEC_SRC_MASK) != 0U)
 c0040fa:	683b      	ldr	r3, [r7, #0]
 c0040fc:	f003 0304 	and.w	r3, r3, #4
 c004100:	2b00      	cmp	r3, #0
 c004102:	d013      	beq.n	c00412c <HAL_DMA_ConfigChannelAttributes+0xc8>
  {
    /* Configure Source security attributes */
    if ((ChannelAttributes & DMA_CCR_SSEC) != 0x0U)
 c004104:	683b      	ldr	r3, [r7, #0]
 c004106:	f403 2380 	and.w	r3, r3, #262144	; 0x40000
 c00410a:	2b00      	cmp	r3, #0
 c00410c:	d00a      	beq.n	c004124 <HAL_DMA_ConfigChannelAttributes+0xc0>
    {
      /* SSEC can only be set if channel is secure */
      /* Otherwise configuration is not taken into account */
      if (ccr_SECM == 0U)
 c00410e:	68fb      	ldr	r3, [r7, #12]
 c004110:	2b00      	cmp	r3, #0
 c004112:	d102      	bne.n	c00411a <HAL_DMA_ConfigChannelAttributes+0xb6>
      {
        /* DSEC can not be secure */
        /* Source channel is non secure */
         status = HAL_ERROR;
 c004114:	2301      	movs	r3, #1
 c004116:	75fb      	strb	r3, [r7, #23]
 c004118:	e008      	b.n	c00412c <HAL_DMA_ConfigChannelAttributes+0xc8>
      }
      else
      {
        SET_BIT(ccr, DMA_CCR_SSEC);
 c00411a:	693b      	ldr	r3, [r7, #16]
 c00411c:	f443 2380 	orr.w	r3, r3, #262144	; 0x40000
 c004120:	613b      	str	r3, [r7, #16]
 c004122:	e003      	b.n	c00412c <HAL_DMA_ConfigChannelAttributes+0xc8>
      }
    }
    else
    {
      CLEAR_BIT(ccr, DMA_CCR_SSEC);
 c004124:	693b      	ldr	r3, [r7, #16]
 c004126:	f423 2380 	bic.w	r3, r3, #262144	; 0x40000
 c00412a:	613b      	str	r3, [r7, #16]
    }
  }

  /* Channel destination */
  if((ChannelAttributes & DMA_CHANNEL_ATTR_SEC_DEST_MASK) != 0U)
 c00412c:	683b      	ldr	r3, [r7, #0]
 c00412e:	f003 0308 	and.w	r3, r3, #8
 c004132:	2b00      	cmp	r3, #0
 c004134:	d013      	beq.n	c00415e <HAL_DMA_ConfigChannelAttributes+0xfa>
  {
    /* Configure Destination security attributes */
    if((ChannelAttributes & DMA_CCR_DSEC) != 0U)
 c004136:	683b      	ldr	r3, [r7, #0]
 c004138:	f403 2300 	and.w	r3, r3, #524288	; 0x80000
 c00413c:	2b00      	cmp	r3, #0
 c00413e:	d00a      	beq.n	c004156 <HAL_DMA_ConfigChannelAttributes+0xf2>
    {
      if (ccr_SECM == 0U)
 c004140:	68fb      	ldr	r3, [r7, #12]
 c004142:	2b00      	cmp	r3, #0
 c004144:	d102      	bne.n	c00414c <HAL_DMA_ConfigChannelAttributes+0xe8>
      {
        /* DSEC can only be set if channel is secure */
        /* Destination channel is non secure */
         status = HAL_ERROR;
 c004146:	2301      	movs	r3, #1
 c004148:	75fb      	strb	r3, [r7, #23]
 c00414a:	e008      	b.n	c00415e <HAL_DMA_ConfigChannelAttributes+0xfa>
      }
      else
      {
        SET_BIT(ccr, DMA_CCR_DSEC);
 c00414c:	693b      	ldr	r3, [r7, #16]
 c00414e:	f443 2300 	orr.w	r3, r3, #524288	; 0x80000
 c004152:	613b      	str	r3, [r7, #16]
 c004154:	e003      	b.n	c00415e <HAL_DMA_ConfigChannelAttributes+0xfa>
      }
    }
    else
    {
      CLEAR_BIT(ccr, DMA_CCR_DSEC);
 c004156:	693b      	ldr	r3, [r7, #16]
 c004158:	f423 2300 	bic.w	r3, r3, #524288	; 0x80000
 c00415c:	613b      	str	r3, [r7, #16]
  }

#endif /* __ARM_FEATURE_CMSE */

  /* Update CCR Register: PRIV, SECM, SCEC, DSEC bits */
  WRITE_REG(hdma->Instance->CCR, ccr);
 c00415e:	687b      	ldr	r3, [r7, #4]
 c004160:	681b      	ldr	r3, [r3, #0]
 c004162:	693a      	ldr	r2, [r7, #16]
 c004164:	601a      	str	r2, [r3, #0]

  return status;
 c004166:	7dfb      	ldrb	r3, [r7, #23]
}
 c004168:	4618      	mov	r0, r3
 c00416a:	371c      	adds	r7, #28
 c00416c:	46bd      	mov	sp, r7
 c00416e:	f85d 7b04 	ldr.w	r7, [sp], #4
 c004172:	4770      	bx	lr

0c004174 <DMA_CalcDMAMUXChannelBaseAndMask>:
  * @param  hdma        pointer to a DMA_HandleTypeDef structure that contains
  *                     the configuration information for the specified DMA Channel.
  * @retval None
  */
static void DMA_CalcDMAMUXChannelBaseAndMask(DMA_HandleTypeDef *hdma)
{
 c004174:	b480      	push	{r7}
 c004176:	b085      	sub	sp, #20
 c004178:	af00      	add	r7, sp, #0
 c00417a:	6078      	str	r0, [r7, #4]
  uint32_t channel_number;

  /* check if instance is not outside the DMA channel range */
  if ((uint32_t)hdma->Instance < (uint32_t)DMA2_Channel1)
 c00417c:	687b      	ldr	r3, [r7, #4]
 c00417e:	681b      	ldr	r3, [r3, #0]
 c004180:	461a      	mov	r2, r3
 c004182:	4b17      	ldr	r3, [pc, #92]	; (c0041e0 <DMA_CalcDMAMUXChannelBaseAndMask+0x6c>)
 c004184:	429a      	cmp	r2, r3
 c004186:	d80a      	bhi.n	c00419e <DMA_CalcDMAMUXChannelBaseAndMask+0x2a>
  {
    /* DMA1 */
    hdma->DMAmuxChannel = (DMAMUX1_Channel0 + (hdma->ChannelIndex >> 2U));
 c004188:	687b      	ldr	r3, [r7, #4]
 c00418a:	6cdb      	ldr	r3, [r3, #76]	; 0x4c
 c00418c:	089b      	lsrs	r3, r3, #2
 c00418e:	009b      	lsls	r3, r3, #2
 c004190:	f103 43a0 	add.w	r3, r3, #1342177280	; 0x50000000
 c004194:	f503 3302 	add.w	r3, r3, #133120	; 0x20800
 c004198:	687a      	ldr	r2, [r7, #4]
 c00419a:	6513      	str	r3, [r2, #80]	; 0x50
 c00419c:	e007      	b.n	c0041ae <DMA_CalcDMAMUXChannelBaseAndMask+0x3a>
  }
  else
  {
    /* DMA2 */
    hdma->DMAmuxChannel = (DMAMUX1_Channel8 + (hdma->ChannelIndex >> 2U));
 c00419e:	687b      	ldr	r3, [r7, #4]
 c0041a0:	6cdb      	ldr	r3, [r3, #76]	; 0x4c
 c0041a2:	089b      	lsrs	r3, r3, #2
 c0041a4:	009a      	lsls	r2, r3, #2
 c0041a6:	4b0f      	ldr	r3, [pc, #60]	; (c0041e4 <DMA_CalcDMAMUXChannelBaseAndMask+0x70>)
 c0041a8:	4413      	add	r3, r2
 c0041aa:	687a      	ldr	r2, [r7, #4]
 c0041ac:	6513      	str	r3, [r2, #80]	; 0x50
  }

  channel_number = (((uint32_t)hdma->Instance & 0xFFU) - 8U) / 20U;
 c0041ae:	687b      	ldr	r3, [r7, #4]
 c0041b0:	681b      	ldr	r3, [r3, #0]
 c0041b2:	b2db      	uxtb	r3, r3
 c0041b4:	3b08      	subs	r3, #8
 c0041b6:	4a0c      	ldr	r2, [pc, #48]	; (c0041e8 <DMA_CalcDMAMUXChannelBaseAndMask+0x74>)
 c0041b8:	fba2 2303 	umull	r2, r3, r2, r3
 c0041bc:	091b      	lsrs	r3, r3, #4
 c0041be:	60fb      	str	r3, [r7, #12]
  hdma->DMAmuxChannelStatus = DMAMUX1_ChannelStatus;
 c0041c0:	687b      	ldr	r3, [r7, #4]
 c0041c2:	4a0a      	ldr	r2, [pc, #40]	; (c0041ec <DMA_CalcDMAMUXChannelBaseAndMask+0x78>)
 c0041c4:	655a      	str	r2, [r3, #84]	; 0x54
  hdma->DMAmuxChannelStatusMask = 1UL << (channel_number & 0x1FU);
 c0041c6:	68fb      	ldr	r3, [r7, #12]
 c0041c8:	f003 031f 	and.w	r3, r3, #31
 c0041cc:	2201      	movs	r2, #1
 c0041ce:	409a      	lsls	r2, r3
 c0041d0:	687b      	ldr	r3, [r7, #4]
 c0041d2:	659a      	str	r2, [r3, #88]	; 0x58
}
 c0041d4:	bf00      	nop
 c0041d6:	3714      	adds	r7, #20
 c0041d8:	46bd      	mov	sp, r7
 c0041da:	f85d 7b04 	ldr.w	r7, [sp], #4
 c0041de:	4770      	bx	lr
 c0041e0:	50020407 	.word	0x50020407
 c0041e4:	50020820 	.word	0x50020820
 c0041e8:	cccccccd 	.word	0xcccccccd
 c0041ec:	50020880 	.word	0x50020880

0c0041f0 <DMA_CalcDMAMUXRequestGenBaseAndMask>:
  *                     the configuration information for the specified DMA Channel.
  * @retval None
  */

static void DMA_CalcDMAMUXRequestGenBaseAndMask(DMA_HandleTypeDef *hdma)
{
 c0041f0:	b480      	push	{r7}
 c0041f2:	b085      	sub	sp, #20
 c0041f4:	af00      	add	r7, sp, #0
 c0041f6:	6078      	str	r0, [r7, #4]
  uint32_t request =  hdma->Init.Request & DMAMUX_CxCR_DMAREQ_ID;
 c0041f8:	687b      	ldr	r3, [r7, #4]
 c0041fa:	685b      	ldr	r3, [r3, #4]
 c0041fc:	b2db      	uxtb	r3, r3
 c0041fe:	60fb      	str	r3, [r7, #12]

  /* DMA Channels are connected to DMAMUX1 request generator blocks*/
  hdma->DMAmuxRequestGen = (DMAMUX_RequestGen_TypeDef *)((uint32_t)(((uint32_t)DMAMUX1_RequestGenerator0) + ((request - 1U) * 4U)));
 c004200:	68fa      	ldr	r2, [r7, #12]
 c004202:	4b0b      	ldr	r3, [pc, #44]	; (c004230 <DMA_CalcDMAMUXRequestGenBaseAndMask+0x40>)
 c004204:	4413      	add	r3, r2
 c004206:	009b      	lsls	r3, r3, #2
 c004208:	461a      	mov	r2, r3
 c00420a:	687b      	ldr	r3, [r7, #4]
 c00420c:	65da      	str	r2, [r3, #92]	; 0x5c

  hdma->DMAmuxRequestGenStatus = DMAMUX1_RequestGenStatus;
 c00420e:	687b      	ldr	r3, [r7, #4]
 c004210:	4a08      	ldr	r2, [pc, #32]	; (c004234 <DMA_CalcDMAMUXRequestGenBaseAndMask+0x44>)
 c004212:	661a      	str	r2, [r3, #96]	; 0x60

  /* here "Request" is either DMA_REQUEST_GENERATOR0 to DMA_REQUEST_GENERATOR3, i.e. <= 4*/
  hdma->DMAmuxRequestGenStatusMask = 1UL << ((request - 1U) & 0x3U);
 c004214:	68fb      	ldr	r3, [r7, #12]
 c004216:	3b01      	subs	r3, #1
 c004218:	f003 0303 	and.w	r3, r3, #3
 c00421c:	2201      	movs	r2, #1
 c00421e:	409a      	lsls	r2, r3
 c004220:	687b      	ldr	r3, [r7, #4]
 c004222:	665a      	str	r2, [r3, #100]	; 0x64
}
 c004224:	bf00      	nop
 c004226:	3714      	adds	r7, #20
 c004228:	46bd      	mov	sp, r7
 c00422a:	f85d 7b04 	ldr.w	r7, [sp], #4
 c00422e:	4770      	bx	lr
 c004230:	1400823f 	.word	0x1400823f
 c004234:	50020940 	.word	0x50020940

0c004238 <HAL_GPIO_Init>:
  * @param  GPIO_Init pointer to a GPIO_InitTypeDef structure that contains
  *         the configuration information for the specified GPIO peripheral.
  * @retval None
  */
void HAL_GPIO_Init(GPIO_TypeDef  *GPIOx, GPIO_InitTypeDef *GPIO_Init)
{
 c004238:	b480      	push	{r7}
 c00423a:	b087      	sub	sp, #28
 c00423c:	af00      	add	r7, sp, #0
 c00423e:	6078      	str	r0, [r7, #4]
 c004240:	6039      	str	r1, [r7, #0]
  uint32_t position = 0U;
 c004242:	2300      	movs	r3, #0
 c004244:	617b      	str	r3, [r7, #20]
  assert_param(IS_GPIO_PIN(GPIO_Init->Pin));
  assert_param(IS_GPIO_MODE(GPIO_Init->Mode));
  assert_param(IS_GPIO_PULL(GPIO_Init->Pull));

  /* Configure the port pins */
  while (((GPIO_Init->Pin) >> position) != 0U)
 c004246:	e158      	b.n	c0044fa <HAL_GPIO_Init+0x2c2>
  {
    /* Get current io position */
    iocurrent = (GPIO_Init->Pin) & (1UL << position);
 c004248:	683b      	ldr	r3, [r7, #0]
 c00424a:	681a      	ldr	r2, [r3, #0]
 c00424c:	2101      	movs	r1, #1
 c00424e:	697b      	ldr	r3, [r7, #20]
 c004250:	fa01 f303 	lsl.w	r3, r1, r3
 c004254:	4013      	ands	r3, r2
 c004256:	60fb      	str	r3, [r7, #12]

    if(iocurrent != 0U)
 c004258:	68fb      	ldr	r3, [r7, #12]
 c00425a:	2b00      	cmp	r3, #0
 c00425c:	f000 814a 	beq.w	c0044f4 <HAL_GPIO_Init+0x2bc>
    {
      /*--------------------- GPIO Mode Configuration ------------------------*/
      /* In case of Output or Alternate function mode selection */
      if((GPIO_Init->Mode == GPIO_MODE_OUTPUT_PP) || (GPIO_Init->Mode == GPIO_MODE_AF_PP) ||
 c004260:	683b      	ldr	r3, [r7, #0]
 c004262:	685b      	ldr	r3, [r3, #4]
 c004264:	2b01      	cmp	r3, #1
 c004266:	d00b      	beq.n	c004280 <HAL_GPIO_Init+0x48>
 c004268:	683b      	ldr	r3, [r7, #0]
 c00426a:	685b      	ldr	r3, [r3, #4]
 c00426c:	2b02      	cmp	r3, #2
 c00426e:	d007      	beq.n	c004280 <HAL_GPIO_Init+0x48>
         (GPIO_Init->Mode == GPIO_MODE_OUTPUT_OD) || (GPIO_Init->Mode == GPIO_MODE_AF_OD))
 c004270:	683b      	ldr	r3, [r7, #0]
 c004272:	685b      	ldr	r3, [r3, #4]
      if((GPIO_Init->Mode == GPIO_MODE_OUTPUT_PP) || (GPIO_Init->Mode == GPIO_MODE_AF_PP) ||
 c004274:	2b11      	cmp	r3, #17
 c004276:	d003      	beq.n	c004280 <HAL_GPIO_Init+0x48>
         (GPIO_Init->Mode == GPIO_MODE_OUTPUT_OD) || (GPIO_Init->Mode == GPIO_MODE_AF_OD))
 c004278:	683b      	ldr	r3, [r7, #0]
 c00427a:	685b      	ldr	r3, [r3, #4]
 c00427c:	2b12      	cmp	r3, #18
 c00427e:	d130      	bne.n	c0042e2 <HAL_GPIO_Init+0xaa>
      {
        /* Check the Speed parameter */
        assert_param(IS_GPIO_SPEED(GPIO_Init->Speed));
        /* Configure the IO Speed */
        temp = GPIOx->OSPEEDR;
 c004280:	687b      	ldr	r3, [r7, #4]
 c004282:	689b      	ldr	r3, [r3, #8]
 c004284:	613b      	str	r3, [r7, #16]
        temp &= ~(GPIO_OSPEEDR_OSPEED0 << (position * 2U));
 c004286:	697b      	ldr	r3, [r7, #20]
 c004288:	005b      	lsls	r3, r3, #1
 c00428a:	2203      	movs	r2, #3
 c00428c:	fa02 f303 	lsl.w	r3, r2, r3
 c004290:	43db      	mvns	r3, r3
 c004292:	693a      	ldr	r2, [r7, #16]
 c004294:	4013      	ands	r3, r2
 c004296:	613b      	str	r3, [r7, #16]
        temp |= (GPIO_Init->Speed << (position * 2U));
 c004298:	683b      	ldr	r3, [r7, #0]
 c00429a:	68da      	ldr	r2, [r3, #12]
 c00429c:	697b      	ldr	r3, [r7, #20]
 c00429e:	005b      	lsls	r3, r3, #1
 c0042a0:	fa02 f303 	lsl.w	r3, r2, r3
 c0042a4:	693a      	ldr	r2, [r7, #16]
 c0042a6:	4313      	orrs	r3, r2
 c0042a8:	613b      	str	r3, [r7, #16]
        GPIOx->OSPEEDR = temp;
 c0042aa:	687b      	ldr	r3, [r7, #4]
 c0042ac:	693a      	ldr	r2, [r7, #16]
 c0042ae:	609a      	str	r2, [r3, #8]

        /* Configure the IO Output Type */
        temp = GPIOx->OTYPER;
 c0042b0:	687b      	ldr	r3, [r7, #4]
 c0042b2:	685b      	ldr	r3, [r3, #4]
 c0042b4:	613b      	str	r3, [r7, #16]
        temp &= ~(GPIO_OTYPER_OT0 << position) ;
 c0042b6:	2201      	movs	r2, #1
 c0042b8:	697b      	ldr	r3, [r7, #20]
 c0042ba:	fa02 f303 	lsl.w	r3, r2, r3
 c0042be:	43db      	mvns	r3, r3
 c0042c0:	693a      	ldr	r2, [r7, #16]
 c0042c2:	4013      	ands	r3, r2
 c0042c4:	613b      	str	r3, [r7, #16]
        temp |= (((GPIO_Init->Mode & GPIO_OUTPUT_TYPE) >> 4) << position);
 c0042c6:	683b      	ldr	r3, [r7, #0]
 c0042c8:	685b      	ldr	r3, [r3, #4]
 c0042ca:	091b      	lsrs	r3, r3, #4
 c0042cc:	f003 0201 	and.w	r2, r3, #1
 c0042d0:	697b      	ldr	r3, [r7, #20]
 c0042d2:	fa02 f303 	lsl.w	r3, r2, r3
 c0042d6:	693a      	ldr	r2, [r7, #16]
 c0042d8:	4313      	orrs	r3, r2
 c0042da:	613b      	str	r3, [r7, #16]
        GPIOx->OTYPER = temp;
 c0042dc:	687b      	ldr	r3, [r7, #4]
 c0042de:	693a      	ldr	r2, [r7, #16]
 c0042e0:	605a      	str	r2, [r3, #4]
      }

      /* Activate the Pull-up or Pull down resistor for the current IO */
      temp = GPIOx->PUPDR;
 c0042e2:	687b      	ldr	r3, [r7, #4]
 c0042e4:	68db      	ldr	r3, [r3, #12]
 c0042e6:	613b      	str	r3, [r7, #16]
      temp &= ~(GPIO_PUPDR_PUPD0 << (position * 2U));
 c0042e8:	697b      	ldr	r3, [r7, #20]
 c0042ea:	005b      	lsls	r3, r3, #1
 c0042ec:	2203      	movs	r2, #3
 c0042ee:	fa02 f303 	lsl.w	r3, r2, r3
 c0042f2:	43db      	mvns	r3, r3
 c0042f4:	693a      	ldr	r2, [r7, #16]
 c0042f6:	4013      	ands	r3, r2
 c0042f8:	613b      	str	r3, [r7, #16]
      temp |= ((GPIO_Init->Pull) << (position * 2U));
 c0042fa:	683b      	ldr	r3, [r7, #0]
 c0042fc:	689a      	ldr	r2, [r3, #8]
 c0042fe:	697b      	ldr	r3, [r7, #20]
 c004300:	005b      	lsls	r3, r3, #1
 c004302:	fa02 f303 	lsl.w	r3, r2, r3
 c004306:	693a      	ldr	r2, [r7, #16]
 c004308:	4313      	orrs	r3, r2
 c00430a:	613b      	str	r3, [r7, #16]
      GPIOx->PUPDR = temp;
 c00430c:	687b      	ldr	r3, [r7, #4]
 c00430e:	693a      	ldr	r2, [r7, #16]
 c004310:	60da      	str	r2, [r3, #12]

      /* In case of Alternate function mode selection */
      if((GPIO_Init->Mode == GPIO_MODE_AF_PP) || (GPIO_Init->Mode == GPIO_MODE_AF_OD))
 c004312:	683b      	ldr	r3, [r7, #0]
 c004314:	685b      	ldr	r3, [r3, #4]
 c004316:	2b02      	cmp	r3, #2
 c004318:	d003      	beq.n	c004322 <HAL_GPIO_Init+0xea>
 c00431a:	683b      	ldr	r3, [r7, #0]
 c00431c:	685b      	ldr	r3, [r3, #4]
 c00431e:	2b12      	cmp	r3, #18
 c004320:	d123      	bne.n	c00436a <HAL_GPIO_Init+0x132>
        /* Check the Alternate function parameters */
        assert_param(IS_GPIO_AF_INSTANCE(GPIOx));
        assert_param(IS_GPIO_AF(GPIO_Init->Alternate));

        /* Configure Alternate function mapped with the current IO */
        temp = GPIOx->AFR[position >> 3U];
 c004322:	697b      	ldr	r3, [r7, #20]
 c004324:	08da      	lsrs	r2, r3, #3
 c004326:	687b      	ldr	r3, [r7, #4]
 c004328:	3208      	adds	r2, #8
 c00432a:	f853 3022 	ldr.w	r3, [r3, r2, lsl #2]
 c00432e:	613b      	str	r3, [r7, #16]
        temp &= ~(0x0FUL << ((position & 0x07U) * 4U)) ;
 c004330:	697b      	ldr	r3, [r7, #20]
 c004332:	f003 0307 	and.w	r3, r3, #7
 c004336:	009b      	lsls	r3, r3, #2
 c004338:	220f      	movs	r2, #15
 c00433a:	fa02 f303 	lsl.w	r3, r2, r3
 c00433e:	43db      	mvns	r3, r3
 c004340:	693a      	ldr	r2, [r7, #16]
 c004342:	4013      	ands	r3, r2
 c004344:	613b      	str	r3, [r7, #16]
        temp |= ((GPIO_Init->Alternate) << ((position & 0x07U) * 4U));
 c004346:	683b      	ldr	r3, [r7, #0]
 c004348:	691a      	ldr	r2, [r3, #16]
 c00434a:	697b      	ldr	r3, [r7, #20]
 c00434c:	f003 0307 	and.w	r3, r3, #7
 c004350:	009b      	lsls	r3, r3, #2
 c004352:	fa02 f303 	lsl.w	r3, r2, r3
 c004356:	693a      	ldr	r2, [r7, #16]
 c004358:	4313      	orrs	r3, r2
 c00435a:	613b      	str	r3, [r7, #16]
        GPIOx->AFR[position >> 3U] = temp;
 c00435c:	697b      	ldr	r3, [r7, #20]
 c00435e:	08da      	lsrs	r2, r3, #3
 c004360:	687b      	ldr	r3, [r7, #4]
 c004362:	3208      	adds	r2, #8
 c004364:	6939      	ldr	r1, [r7, #16]
 c004366:	f843 1022 	str.w	r1, [r3, r2, lsl #2]
      }

      /* Configure IO Direction mode (Input, Output, Alternate or Analog) */
      temp = GPIOx->MODER;
 c00436a:	687b      	ldr	r3, [r7, #4]
 c00436c:	681b      	ldr	r3, [r3, #0]
 c00436e:	613b      	str	r3, [r7, #16]
      temp &= ~(GPIO_MODER_MODE0 << (position * 2U));
 c004370:	697b      	ldr	r3, [r7, #20]
 c004372:	005b      	lsls	r3, r3, #1
 c004374:	2203      	movs	r2, #3
 c004376:	fa02 f303 	lsl.w	r3, r2, r3
 c00437a:	43db      	mvns	r3, r3
 c00437c:	693a      	ldr	r2, [r7, #16]
 c00437e:	4013      	ands	r3, r2
 c004380:	613b      	str	r3, [r7, #16]
      temp |= ((GPIO_Init->Mode & GPIO_MODE) << (position * 2U));
 c004382:	683b      	ldr	r3, [r7, #0]
 c004384:	685b      	ldr	r3, [r3, #4]
 c004386:	f003 0203 	and.w	r2, r3, #3
 c00438a:	697b      	ldr	r3, [r7, #20]
 c00438c:	005b      	lsls	r3, r3, #1
 c00438e:	fa02 f303 	lsl.w	r3, r2, r3
 c004392:	693a      	ldr	r2, [r7, #16]
 c004394:	4313      	orrs	r3, r2
 c004396:	613b      	str	r3, [r7, #16]
      GPIOx->MODER = temp;
 c004398:	687b      	ldr	r3, [r7, #4]
 c00439a:	693a      	ldr	r2, [r7, #16]
 c00439c:	601a      	str	r2, [r3, #0]

      /*--------------------- EXTI Mode Configuration ------------------------*/
      /* Configure the External Interrupt or event for the current IO */
      if((GPIO_Init->Mode & EXTI_MODE) == EXTI_MODE)
 c00439e:	683b      	ldr	r3, [r7, #0]
 c0043a0:	685b      	ldr	r3, [r3, #4]
 c0043a2:	f003 5380 	and.w	r3, r3, #268435456	; 0x10000000
 c0043a6:	2b00      	cmp	r3, #0
 c0043a8:	f000 80a4 	beq.w	c0044f4 <HAL_GPIO_Init+0x2bc>
      {
        temp = EXTI->EXTICR[position >> 2U];
 c0043ac:	4a5a      	ldr	r2, [pc, #360]	; (c004518 <HAL_GPIO_Init+0x2e0>)
 c0043ae:	697b      	ldr	r3, [r7, #20]
 c0043b0:	089b      	lsrs	r3, r3, #2
 c0043b2:	3318      	adds	r3, #24
 c0043b4:	f852 3023 	ldr.w	r3, [r2, r3, lsl #2]
 c0043b8:	613b      	str	r3, [r7, #16]
        temp &= ~((0x0FU) << (8U * (position & 0x03U)));
 c0043ba:	697b      	ldr	r3, [r7, #20]
 c0043bc:	f003 0303 	and.w	r3, r3, #3
 c0043c0:	00db      	lsls	r3, r3, #3
 c0043c2:	220f      	movs	r2, #15
 c0043c4:	fa02 f303 	lsl.w	r3, r2, r3
 c0043c8:	43db      	mvns	r3, r3
 c0043ca:	693a      	ldr	r2, [r7, #16]
 c0043cc:	4013      	ands	r3, r2
 c0043ce:	613b      	str	r3, [r7, #16]
        temp |= (GPIO_GET_INDEX(GPIOx) << (8U * (position & 0x03U)));
 c0043d0:	687b      	ldr	r3, [r7, #4]
 c0043d2:	4a52      	ldr	r2, [pc, #328]	; (c00451c <HAL_GPIO_Init+0x2e4>)
 c0043d4:	4293      	cmp	r3, r2
 c0043d6:	d025      	beq.n	c004424 <HAL_GPIO_Init+0x1ec>
 c0043d8:	687b      	ldr	r3, [r7, #4]
 c0043da:	4a51      	ldr	r2, [pc, #324]	; (c004520 <HAL_GPIO_Init+0x2e8>)
 c0043dc:	4293      	cmp	r3, r2
 c0043de:	d01f      	beq.n	c004420 <HAL_GPIO_Init+0x1e8>
 c0043e0:	687b      	ldr	r3, [r7, #4]
 c0043e2:	4a50      	ldr	r2, [pc, #320]	; (c004524 <HAL_GPIO_Init+0x2ec>)
 c0043e4:	4293      	cmp	r3, r2
 c0043e6:	d019      	beq.n	c00441c <HAL_GPIO_Init+0x1e4>
 c0043e8:	687b      	ldr	r3, [r7, #4]
 c0043ea:	4a4f      	ldr	r2, [pc, #316]	; (c004528 <HAL_GPIO_Init+0x2f0>)
 c0043ec:	4293      	cmp	r3, r2
 c0043ee:	d013      	beq.n	c004418 <HAL_GPIO_Init+0x1e0>
 c0043f0:	687b      	ldr	r3, [r7, #4]
 c0043f2:	4a4e      	ldr	r2, [pc, #312]	; (c00452c <HAL_GPIO_Init+0x2f4>)
 c0043f4:	4293      	cmp	r3, r2
 c0043f6:	d00d      	beq.n	c004414 <HAL_GPIO_Init+0x1dc>
 c0043f8:	687b      	ldr	r3, [r7, #4]
 c0043fa:	4a4d      	ldr	r2, [pc, #308]	; (c004530 <HAL_GPIO_Init+0x2f8>)
 c0043fc:	4293      	cmp	r3, r2
 c0043fe:	d007      	beq.n	c004410 <HAL_GPIO_Init+0x1d8>
 c004400:	687b      	ldr	r3, [r7, #4]
 c004402:	4a4c      	ldr	r2, [pc, #304]	; (c004534 <HAL_GPIO_Init+0x2fc>)
 c004404:	4293      	cmp	r3, r2
 c004406:	d101      	bne.n	c00440c <HAL_GPIO_Init+0x1d4>
 c004408:	2306      	movs	r3, #6
 c00440a:	e00c      	b.n	c004426 <HAL_GPIO_Init+0x1ee>
 c00440c:	2307      	movs	r3, #7
 c00440e:	e00a      	b.n	c004426 <HAL_GPIO_Init+0x1ee>
 c004410:	2305      	movs	r3, #5
 c004412:	e008      	b.n	c004426 <HAL_GPIO_Init+0x1ee>
 c004414:	2304      	movs	r3, #4
 c004416:	e006      	b.n	c004426 <HAL_GPIO_Init+0x1ee>
 c004418:	2303      	movs	r3, #3
 c00441a:	e004      	b.n	c004426 <HAL_GPIO_Init+0x1ee>
 c00441c:	2302      	movs	r3, #2
 c00441e:	e002      	b.n	c004426 <HAL_GPIO_Init+0x1ee>
 c004420:	2301      	movs	r3, #1
 c004422:	e000      	b.n	c004426 <HAL_GPIO_Init+0x1ee>
 c004424:	2300      	movs	r3, #0
 c004426:	697a      	ldr	r2, [r7, #20]
 c004428:	f002 0203 	and.w	r2, r2, #3
 c00442c:	00d2      	lsls	r2, r2, #3
 c00442e:	4093      	lsls	r3, r2
 c004430:	693a      	ldr	r2, [r7, #16]
 c004432:	4313      	orrs	r3, r2
 c004434:	613b      	str	r3, [r7, #16]
        EXTI->EXTICR[position >> 2U] = temp;
 c004436:	4938      	ldr	r1, [pc, #224]	; (c004518 <HAL_GPIO_Init+0x2e0>)
 c004438:	697b      	ldr	r3, [r7, #20]
 c00443a:	089b      	lsrs	r3, r3, #2
 c00443c:	3318      	adds	r3, #24
 c00443e:	693a      	ldr	r2, [r7, #16]
 c004440:	f841 2023 	str.w	r2, [r1, r3, lsl #2]

        /* Clear EXTI line configuration */
        temp = EXTI->IMR1;
 c004444:	4b34      	ldr	r3, [pc, #208]	; (c004518 <HAL_GPIO_Init+0x2e0>)
 c004446:	f8d3 3080 	ldr.w	r3, [r3, #128]	; 0x80
 c00444a:	613b      	str	r3, [r7, #16]
        temp &= ~(iocurrent);
 c00444c:	68fb      	ldr	r3, [r7, #12]
 c00444e:	43db      	mvns	r3, r3
 c004450:	693a      	ldr	r2, [r7, #16]
 c004452:	4013      	ands	r3, r2
 c004454:	613b      	str	r3, [r7, #16]
        if((GPIO_Init->Mode & GPIO_MODE_IT) == GPIO_MODE_IT)
 c004456:	683b      	ldr	r3, [r7, #0]
 c004458:	685b      	ldr	r3, [r3, #4]
 c00445a:	f403 3380 	and.w	r3, r3, #65536	; 0x10000
 c00445e:	2b00      	cmp	r3, #0
 c004460:	d003      	beq.n	c00446a <HAL_GPIO_Init+0x232>
        {
          temp |= iocurrent;
 c004462:	693a      	ldr	r2, [r7, #16]
 c004464:	68fb      	ldr	r3, [r7, #12]
 c004466:	4313      	orrs	r3, r2
 c004468:	613b      	str	r3, [r7, #16]
        }
        EXTI->IMR1 = temp;
 c00446a:	4a2b      	ldr	r2, [pc, #172]	; (c004518 <HAL_GPIO_Init+0x2e0>)
 c00446c:	693b      	ldr	r3, [r7, #16]
 c00446e:	f8c2 3080 	str.w	r3, [r2, #128]	; 0x80

        temp = EXTI->EMR1;
 c004472:	4b29      	ldr	r3, [pc, #164]	; (c004518 <HAL_GPIO_Init+0x2e0>)
 c004474:	f8d3 3084 	ldr.w	r3, [r3, #132]	; 0x84
 c004478:	613b      	str	r3, [r7, #16]
        temp &= ~(iocurrent);
 c00447a:	68fb      	ldr	r3, [r7, #12]
 c00447c:	43db      	mvns	r3, r3
 c00447e:	693a      	ldr	r2, [r7, #16]
 c004480:	4013      	ands	r3, r2
 c004482:	613b      	str	r3, [r7, #16]
        if((GPIO_Init->Mode & GPIO_MODE_EVT) == GPIO_MODE_EVT)
 c004484:	683b      	ldr	r3, [r7, #0]
 c004486:	685b      	ldr	r3, [r3, #4]
 c004488:	f403 3300 	and.w	r3, r3, #131072	; 0x20000
 c00448c:	2b00      	cmp	r3, #0
 c00448e:	d003      	beq.n	c004498 <HAL_GPIO_Init+0x260>
        {
          temp |= iocurrent;
 c004490:	693a      	ldr	r2, [r7, #16]
 c004492:	68fb      	ldr	r3, [r7, #12]
 c004494:	4313      	orrs	r3, r2
 c004496:	613b      	str	r3, [r7, #16]
        }
        EXTI->EMR1 = temp;
 c004498:	4a1f      	ldr	r2, [pc, #124]	; (c004518 <HAL_GPIO_Init+0x2e0>)
 c00449a:	693b      	ldr	r3, [r7, #16]
 c00449c:	f8c2 3084 	str.w	r3, [r2, #132]	; 0x84

        /* Clear Rising Falling edge configuration */
        temp = EXTI->RTSR1;
 c0044a0:	4b1d      	ldr	r3, [pc, #116]	; (c004518 <HAL_GPIO_Init+0x2e0>)
 c0044a2:	681b      	ldr	r3, [r3, #0]
 c0044a4:	613b      	str	r3, [r7, #16]
        temp &= ~(iocurrent);
 c0044a6:	68fb      	ldr	r3, [r7, #12]
 c0044a8:	43db      	mvns	r3, r3
 c0044aa:	693a      	ldr	r2, [r7, #16]
 c0044ac:	4013      	ands	r3, r2
 c0044ae:	613b      	str	r3, [r7, #16]
        if((GPIO_Init->Mode & RISING_EDGE) == RISING_EDGE)
 c0044b0:	683b      	ldr	r3, [r7, #0]
 c0044b2:	685b      	ldr	r3, [r3, #4]
 c0044b4:	f403 1380 	and.w	r3, r3, #1048576	; 0x100000
 c0044b8:	2b00      	cmp	r3, #0
 c0044ba:	d003      	beq.n	c0044c4 <HAL_GPIO_Init+0x28c>
        {
          temp |= iocurrent;
 c0044bc:	693a      	ldr	r2, [r7, #16]
 c0044be:	68fb      	ldr	r3, [r7, #12]
 c0044c0:	4313      	orrs	r3, r2
 c0044c2:	613b      	str	r3, [r7, #16]
        }
        EXTI->RTSR1 = temp;
 c0044c4:	4a14      	ldr	r2, [pc, #80]	; (c004518 <HAL_GPIO_Init+0x2e0>)
 c0044c6:	693b      	ldr	r3, [r7, #16]
 c0044c8:	6013      	str	r3, [r2, #0]

        temp = EXTI->FTSR1;
 c0044ca:	4b13      	ldr	r3, [pc, #76]	; (c004518 <HAL_GPIO_Init+0x2e0>)
 c0044cc:	685b      	ldr	r3, [r3, #4]
 c0044ce:	613b      	str	r3, [r7, #16]
        temp &= ~(iocurrent);
 c0044d0:	68fb      	ldr	r3, [r7, #12]
 c0044d2:	43db      	mvns	r3, r3
 c0044d4:	693a      	ldr	r2, [r7, #16]
 c0044d6:	4013      	ands	r3, r2
 c0044d8:	613b      	str	r3, [r7, #16]
        if((GPIO_Init->Mode & FALLING_EDGE) == FALLING_EDGE)
 c0044da:	683b      	ldr	r3, [r7, #0]
 c0044dc:	685b      	ldr	r3, [r3, #4]
 c0044de:	f403 1300 	and.w	r3, r3, #2097152	; 0x200000
 c0044e2:	2b00      	cmp	r3, #0
 c0044e4:	d003      	beq.n	c0044ee <HAL_GPIO_Init+0x2b6>
        {
          temp |= iocurrent;
 c0044e6:	693a      	ldr	r2, [r7, #16]
 c0044e8:	68fb      	ldr	r3, [r7, #12]
 c0044ea:	4313      	orrs	r3, r2
 c0044ec:	613b      	str	r3, [r7, #16]
        }
        EXTI->FTSR1 = temp;
 c0044ee:	4a0a      	ldr	r2, [pc, #40]	; (c004518 <HAL_GPIO_Init+0x2e0>)
 c0044f0:	693b      	ldr	r3, [r7, #16]
 c0044f2:	6053      	str	r3, [r2, #4]
      }
    }

    position++;
 c0044f4:	697b      	ldr	r3, [r7, #20]
 c0044f6:	3301      	adds	r3, #1
 c0044f8:	617b      	str	r3, [r7, #20]
  while (((GPIO_Init->Pin) >> position) != 0U)
 c0044fa:	683b      	ldr	r3, [r7, #0]
 c0044fc:	681a      	ldr	r2, [r3, #0]
 c0044fe:	697b      	ldr	r3, [r7, #20]
 c004500:	fa22 f303 	lsr.w	r3, r2, r3
 c004504:	2b00      	cmp	r3, #0
 c004506:	f47f ae9f 	bne.w	c004248 <HAL_GPIO_Init+0x10>
  }
}
 c00450a:	bf00      	nop
 c00450c:	bf00      	nop
 c00450e:	371c      	adds	r7, #28
 c004510:	46bd      	mov	sp, r7
 c004512:	f85d 7b04 	ldr.w	r7, [sp], #4
 c004516:	4770      	bx	lr
 c004518:	5002f400 	.word	0x5002f400
 c00451c:	52020000 	.word	0x52020000
 c004520:	52020400 	.word	0x52020400
 c004524:	52020800 	.word	0x52020800
 c004528:	52020c00 	.word	0x52020c00
 c00452c:	52021000 	.word	0x52021000
 c004530:	52021400 	.word	0x52021400
 c004534:	52021800 	.word	0x52021800

0c004538 <HAL_GTZC_TZSC_ConfigPeriphAttributes>:
  * @param  PeriphAttributes Peripheral attributes, see @ref GTZC_TZSC_PeriphAttributes.
  * @retval HAL status.
  */
HAL_StatusTypeDef HAL_GTZC_TZSC_ConfigPeriphAttributes(uint32_t PeriphId,
                                                       uint32_t PeriphAttributes)
{
 c004538:	b480      	push	{r7}
 c00453a:	b085      	sub	sp, #20
 c00453c:	af00      	add	r7, sp, #0
 c00453e:	6078      	str	r0, [r7, #4]
 c004540:	6039      	str	r1, [r7, #0]
  uint32_t register_address;

  /* check entry parameters */
  if ((PeriphAttributes > (GTZC_TZSC_PERIPH_SEC | GTZC_TZSC_PERIPH_PRIV))
 c004542:	683b      	ldr	r3, [r7, #0]
 c004544:	f5b3 7f41 	cmp.w	r3, #772	; 0x304
 c004548:	d216      	bcs.n	c004578 <HAL_GTZC_TZSC_ConfigPeriphAttributes+0x40>
      || (HAL_GTZC_GET_ARRAY_INDEX(PeriphId) >= GTZC_TZSC_PERIPH_NUMBER)
 c00454a:	687b      	ldr	r3, [r7, #4]
 c00454c:	0f1b      	lsrs	r3, r3, #28
 c00454e:	015a      	lsls	r2, r3, #5
 c004550:	687b      	ldr	r3, [r7, #4]
 c004552:	f003 031f 	and.w	r3, r3, #31
 c004556:	4413      	add	r3, r2
 c004558:	2b32      	cmp	r3, #50	; 0x32
 c00455a:	d80d      	bhi.n	c004578 <HAL_GTZC_TZSC_ConfigPeriphAttributes+0x40>
      || (((PeriphId & GTZC_PERIPH_ALL) != 0U) && (HAL_GTZC_GET_ARRAY_INDEX(PeriphId) != 0U)))
 c00455c:	687b      	ldr	r3, [r7, #4]
 c00455e:	f003 0320 	and.w	r3, r3, #32
 c004562:	2b00      	cmp	r3, #0
 c004564:	d00a      	beq.n	c00457c <HAL_GTZC_TZSC_ConfigPeriphAttributes+0x44>
 c004566:	687b      	ldr	r3, [r7, #4]
 c004568:	0f1b      	lsrs	r3, r3, #28
 c00456a:	015a      	lsls	r2, r3, #5
 c00456c:	687b      	ldr	r3, [r7, #4]
 c00456e:	f003 031f 	and.w	r3, r3, #31
 c004572:	4413      	add	r3, r2
 c004574:	2b00      	cmp	r3, #0
 c004576:	d001      	beq.n	c00457c <HAL_GTZC_TZSC_ConfigPeriphAttributes+0x44>
  {
    return HAL_ERROR;
 c004578:	2301      	movs	r3, #1
 c00457a:	e0a4      	b.n	c0046c6 <HAL_GTZC_TZSC_ConfigPeriphAttributes+0x18e>
  }

  if ((PeriphId & GTZC_PERIPH_ALL) != 0U)
 c00457c:	687b      	ldr	r3, [r7, #4]
 c00457e:	f003 0320 	and.w	r3, r3, #32
 c004582:	2b00      	cmp	r3, #0
 c004584:	d04a      	beq.n	c00461c <HAL_GTZC_TZSC_ConfigPeriphAttributes+0xe4>
  {
    /* special case where same attributes are applied to all peripherals */

#if defined(__ARM_FEATURE_CMSE) && (__ARM_FEATURE_CMSE == 3U)
    /* secure configuration */
    if ((PeriphAttributes & GTZC_TZSC_PERIPH_SEC) == GTZC_TZSC_PERIPH_SEC)
 c004586:	683a      	ldr	r2, [r7, #0]
 c004588:	f240 1301 	movw	r3, #257	; 0x101
 c00458c:	4013      	ands	r3, r2
 c00458e:	f240 1201 	movw	r2, #257	; 0x101
 c004592:	4293      	cmp	r3, r2
 c004594:	d10c      	bne.n	c0045b0 <HAL_GTZC_TZSC_ConfigPeriphAttributes+0x78>
    {
      SET_BIT(GTZC_TZSC->SECCFGR1, TZSC_SECCFGR1_ALL);
 c004596:	4b4f      	ldr	r3, [pc, #316]	; (c0046d4 <HAL_GTZC_TZSC_ConfigPeriphAttributes+0x19c>)
 c004598:	691b      	ldr	r3, [r3, #16]
 c00459a:	4b4e      	ldr	r3, [pc, #312]	; (c0046d4 <HAL_GTZC_TZSC_ConfigPeriphAttributes+0x19c>)
 c00459c:	f04f 32ff 	mov.w	r2, #4294967295	; 0xffffffff
 c0045a0:	611a      	str	r2, [r3, #16]
      SET_BIT(GTZC_TZSC->SECCFGR2, TZSC_SECCFGR2_ALL);
 c0045a2:	4b4c      	ldr	r3, [pc, #304]	; (c0046d4 <HAL_GTZC_TZSC_ConfigPeriphAttributes+0x19c>)
 c0045a4:	695a      	ldr	r2, [r3, #20]
 c0045a6:	494b      	ldr	r1, [pc, #300]	; (c0046d4 <HAL_GTZC_TZSC_ConfigPeriphAttributes+0x19c>)
 c0045a8:	4b4b      	ldr	r3, [pc, #300]	; (c0046d8 <HAL_GTZC_TZSC_ConfigPeriphAttributes+0x1a0>)
 c0045aa:	4313      	orrs	r3, r2
 c0045ac:	614b      	str	r3, [r1, #20]
 c0045ae:	e00f      	b.n	c0045d0 <HAL_GTZC_TZSC_ConfigPeriphAttributes+0x98>
    }
    else if ((PeriphAttributes & GTZC_TZSC_PERIPH_NSEC) == GTZC_TZSC_PERIPH_NSEC)
 c0045b0:	683b      	ldr	r3, [r7, #0]
 c0045b2:	f403 7380 	and.w	r3, r3, #256	; 0x100
 c0045b6:	2b00      	cmp	r3, #0
 c0045b8:	d00a      	beq.n	c0045d0 <HAL_GTZC_TZSC_ConfigPeriphAttributes+0x98>
    {
      CLEAR_BIT(GTZC_TZSC->SECCFGR1, TZSC_SECCFGR1_ALL);
 c0045ba:	4b46      	ldr	r3, [pc, #280]	; (c0046d4 <HAL_GTZC_TZSC_ConfigPeriphAttributes+0x19c>)
 c0045bc:	691b      	ldr	r3, [r3, #16]
 c0045be:	4b45      	ldr	r3, [pc, #276]	; (c0046d4 <HAL_GTZC_TZSC_ConfigPeriphAttributes+0x19c>)
 c0045c0:	2200      	movs	r2, #0
 c0045c2:	611a      	str	r2, [r3, #16]
      CLEAR_BIT(GTZC_TZSC->SECCFGR2, TZSC_SECCFGR2_ALL);
 c0045c4:	4b43      	ldr	r3, [pc, #268]	; (c0046d4 <HAL_GTZC_TZSC_ConfigPeriphAttributes+0x19c>)
 c0045c6:	695a      	ldr	r2, [r3, #20]
 c0045c8:	4942      	ldr	r1, [pc, #264]	; (c0046d4 <HAL_GTZC_TZSC_ConfigPeriphAttributes+0x19c>)
 c0045ca:	4b44      	ldr	r3, [pc, #272]	; (c0046dc <HAL_GTZC_TZSC_ConfigPeriphAttributes+0x1a4>)
 c0045cc:	4013      	ands	r3, r2
 c0045ce:	614b      	str	r3, [r1, #20]
      /* do nothing */
    }
#endif /* defined(__ARM_FEATURE_CMSE) && (__ARM_FEATURE_CMSE == 3U) */

    /* privilege configuration */
    if ((PeriphAttributes & GTZC_TZSC_PERIPH_PRIV) == GTZC_TZSC_PERIPH_PRIV)
 c0045d0:	683a      	ldr	r2, [r7, #0]
 c0045d2:	f240 2302 	movw	r3, #514	; 0x202
 c0045d6:	4013      	ands	r3, r2
 c0045d8:	f240 2202 	movw	r2, #514	; 0x202
 c0045dc:	4293      	cmp	r3, r2
 c0045de:	d10c      	bne.n	c0045fa <HAL_GTZC_TZSC_ConfigPeriphAttributes+0xc2>
    {
      SET_BIT(GTZC_TZSC->PRIVCFGR1, TZSC_PRIVCFGR1_ALL);
 c0045e0:	4b3c      	ldr	r3, [pc, #240]	; (c0046d4 <HAL_GTZC_TZSC_ConfigPeriphAttributes+0x19c>)
 c0045e2:	6a1b      	ldr	r3, [r3, #32]
 c0045e4:	4b3b      	ldr	r3, [pc, #236]	; (c0046d4 <HAL_GTZC_TZSC_ConfigPeriphAttributes+0x19c>)
 c0045e6:	f04f 32ff 	mov.w	r2, #4294967295	; 0xffffffff
 c0045ea:	621a      	str	r2, [r3, #32]
      SET_BIT(GTZC_TZSC->PRIVCFGR2, TZSC_PRIVCFGR2_ALL);
 c0045ec:	4b39      	ldr	r3, [pc, #228]	; (c0046d4 <HAL_GTZC_TZSC_ConfigPeriphAttributes+0x19c>)
 c0045ee:	6a5a      	ldr	r2, [r3, #36]	; 0x24
 c0045f0:	4938      	ldr	r1, [pc, #224]	; (c0046d4 <HAL_GTZC_TZSC_ConfigPeriphAttributes+0x19c>)
 c0045f2:	4b39      	ldr	r3, [pc, #228]	; (c0046d8 <HAL_GTZC_TZSC_ConfigPeriphAttributes+0x1a0>)
 c0045f4:	4313      	orrs	r3, r2
 c0045f6:	624b      	str	r3, [r1, #36]	; 0x24
 c0045f8:	e064      	b.n	c0046c4 <HAL_GTZC_TZSC_ConfigPeriphAttributes+0x18c>
    }
    else if ((PeriphAttributes & GTZC_TZSC_PERIPH_NPRIV) == GTZC_TZSC_PERIPH_NPRIV)
 c0045fa:	683b      	ldr	r3, [r7, #0]
 c0045fc:	f403 7300 	and.w	r3, r3, #512	; 0x200
 c004600:	2b00      	cmp	r3, #0
 c004602:	d05f      	beq.n	c0046c4 <HAL_GTZC_TZSC_ConfigPeriphAttributes+0x18c>
    {
      CLEAR_BIT(GTZC_TZSC->PRIVCFGR1, TZSC_PRIVCFGR1_ALL);
 c004604:	4b33      	ldr	r3, [pc, #204]	; (c0046d4 <HAL_GTZC_TZSC_ConfigPeriphAttributes+0x19c>)
 c004606:	6a1b      	ldr	r3, [r3, #32]
 c004608:	4b32      	ldr	r3, [pc, #200]	; (c0046d4 <HAL_GTZC_TZSC_ConfigPeriphAttributes+0x19c>)
 c00460a:	2200      	movs	r2, #0
 c00460c:	621a      	str	r2, [r3, #32]
      CLEAR_BIT(GTZC_TZSC->PRIVCFGR2, TZSC_PRIVCFGR2_ALL);
 c00460e:	4b31      	ldr	r3, [pc, #196]	; (c0046d4 <HAL_GTZC_TZSC_ConfigPeriphAttributes+0x19c>)
 c004610:	6a5a      	ldr	r2, [r3, #36]	; 0x24
 c004612:	4930      	ldr	r1, [pc, #192]	; (c0046d4 <HAL_GTZC_TZSC_ConfigPeriphAttributes+0x19c>)
 c004614:	4b31      	ldr	r3, [pc, #196]	; (c0046dc <HAL_GTZC_TZSC_ConfigPeriphAttributes+0x1a4>)
 c004616:	4013      	ands	r3, r2
 c004618:	624b      	str	r3, [r1, #36]	; 0x24
 c00461a:	e053      	b.n	c0046c4 <HAL_GTZC_TZSC_ConfigPeriphAttributes+0x18c>
  {
    /* common case where only one peripheral is configured */

#if defined(__ARM_FEATURE_CMSE) && (__ARM_FEATURE_CMSE == 3U)
    /* secure configuration */
    register_address = (uint32_t) &(GTZC_TZSC->SECCFGR1) + (4U * GTZC_GET_REG_INDEX(PeriphId));
 c00461c:	687b      	ldr	r3, [r7, #4]
 c00461e:	0f1a      	lsrs	r2, r3, #28
 c004620:	4b2f      	ldr	r3, [pc, #188]	; (c0046e0 <HAL_GTZC_TZSC_ConfigPeriphAttributes+0x1a8>)
 c004622:	4413      	add	r3, r2
 c004624:	009b      	lsls	r3, r3, #2
 c004626:	60fb      	str	r3, [r7, #12]
    if ((PeriphAttributes & GTZC_TZSC_PERIPH_SEC) == GTZC_TZSC_PERIPH_SEC)
 c004628:	683a      	ldr	r2, [r7, #0]
 c00462a:	f240 1301 	movw	r3, #257	; 0x101
 c00462e:	4013      	ands	r3, r2
 c004630:	f240 1201 	movw	r2, #257	; 0x101
 c004634:	4293      	cmp	r3, r2
 c004636:	d10a      	bne.n	c00464e <HAL_GTZC_TZSC_ConfigPeriphAttributes+0x116>
    {
      SET_BIT(*(__IO uint32_t *)register_address, 1UL << GTZC_GET_PERIPH_POS(PeriphId));
 c004638:	68fb      	ldr	r3, [r7, #12]
 c00463a:	6819      	ldr	r1, [r3, #0]
 c00463c:	687b      	ldr	r3, [r7, #4]
 c00463e:	f003 031f 	and.w	r3, r3, #31
 c004642:	2201      	movs	r2, #1
 c004644:	409a      	lsls	r2, r3
 c004646:	68fb      	ldr	r3, [r7, #12]
 c004648:	430a      	orrs	r2, r1
 c00464a:	601a      	str	r2, [r3, #0]
 c00464c:	e010      	b.n	c004670 <HAL_GTZC_TZSC_ConfigPeriphAttributes+0x138>
    }
    else if ((PeriphAttributes & GTZC_TZSC_PERIPH_NSEC) == GTZC_TZSC_PERIPH_NSEC)
 c00464e:	683b      	ldr	r3, [r7, #0]
 c004650:	f403 7380 	and.w	r3, r3, #256	; 0x100
 c004654:	2b00      	cmp	r3, #0
 c004656:	d00b      	beq.n	c004670 <HAL_GTZC_TZSC_ConfigPeriphAttributes+0x138>
    {
      CLEAR_BIT(*(__IO uint32_t *)register_address, 1UL << GTZC_GET_PERIPH_POS(PeriphId));
 c004658:	68fb      	ldr	r3, [r7, #12]
 c00465a:	6819      	ldr	r1, [r3, #0]
 c00465c:	687b      	ldr	r3, [r7, #4]
 c00465e:	f003 031f 	and.w	r3, r3, #31
 c004662:	2201      	movs	r2, #1
 c004664:	fa02 f303 	lsl.w	r3, r2, r3
 c004668:	43da      	mvns	r2, r3
 c00466a:	68fb      	ldr	r3, [r7, #12]
 c00466c:	400a      	ands	r2, r1
 c00466e:	601a      	str	r2, [r3, #0]
      /* do nothing */
    }
#endif /* defined(__ARM_FEATURE_CMSE) && (__ARM_FEATURE_CMSE == 3U) */

    /* privilege configuration */
    register_address = (uint32_t) &(GTZC_TZSC->PRIVCFGR1) + (4U * GTZC_GET_REG_INDEX(PeriphId));
 c004670:	687b      	ldr	r3, [r7, #4]
 c004672:	0f1a      	lsrs	r2, r3, #28
 c004674:	4b1b      	ldr	r3, [pc, #108]	; (c0046e4 <HAL_GTZC_TZSC_ConfigPeriphAttributes+0x1ac>)
 c004676:	4413      	add	r3, r2
 c004678:	009b      	lsls	r3, r3, #2
 c00467a:	60fb      	str	r3, [r7, #12]
    if ((PeriphAttributes & GTZC_TZSC_PERIPH_PRIV) == GTZC_TZSC_PERIPH_PRIV)
 c00467c:	683a      	ldr	r2, [r7, #0]
 c00467e:	f240 2302 	movw	r3, #514	; 0x202
 c004682:	4013      	ands	r3, r2
 c004684:	f240 2202 	movw	r2, #514	; 0x202
 c004688:	4293      	cmp	r3, r2
 c00468a:	d10a      	bne.n	c0046a2 <HAL_GTZC_TZSC_ConfigPeriphAttributes+0x16a>
    {
      SET_BIT(*(__IO uint32_t *)register_address, 1UL << GTZC_GET_PERIPH_POS(PeriphId));
 c00468c:	68fb      	ldr	r3, [r7, #12]
 c00468e:	6819      	ldr	r1, [r3, #0]
 c004690:	687b      	ldr	r3, [r7, #4]
 c004692:	f003 031f 	and.w	r3, r3, #31
 c004696:	2201      	movs	r2, #1
 c004698:	409a      	lsls	r2, r3
 c00469a:	68fb      	ldr	r3, [r7, #12]
 c00469c:	430a      	orrs	r2, r1
 c00469e:	601a      	str	r2, [r3, #0]
 c0046a0:	e010      	b.n	c0046c4 <HAL_GTZC_TZSC_ConfigPeriphAttributes+0x18c>
    }
    else if ((PeriphAttributes & GTZC_TZSC_PERIPH_NPRIV) == GTZC_TZSC_PERIPH_NPRIV)
 c0046a2:	683b      	ldr	r3, [r7, #0]
 c0046a4:	f403 7300 	and.w	r3, r3, #512	; 0x200
 c0046a8:	2b00      	cmp	r3, #0
 c0046aa:	d00b      	beq.n	c0046c4 <HAL_GTZC_TZSC_ConfigPeriphAttributes+0x18c>
    {
      CLEAR_BIT(*(__IO uint32_t *)register_address, 1UL << GTZC_GET_PERIPH_POS(PeriphId));
 c0046ac:	68fb      	ldr	r3, [r7, #12]
 c0046ae:	6819      	ldr	r1, [r3, #0]
 c0046b0:	687b      	ldr	r3, [r7, #4]
 c0046b2:	f003 031f 	and.w	r3, r3, #31
 c0046b6:	2201      	movs	r2, #1
 c0046b8:	fa02 f303 	lsl.w	r3, r2, r3
 c0046bc:	43da      	mvns	r2, r3
 c0046be:	68fb      	ldr	r3, [r7, #12]
 c0046c0:	400a      	ands	r2, r1
 c0046c2:	601a      	str	r2, [r3, #0]
    else
    {
      /* do nothing */
    }
  }
  return HAL_OK;
 c0046c4:	2300      	movs	r3, #0
}
 c0046c6:	4618      	mov	r0, r3
 c0046c8:	3714      	adds	r7, #20
 c0046ca:	46bd      	mov	sp, r7
 c0046cc:	f85d 7b04 	ldr.w	r7, [sp], #4
 c0046d0:	4770      	bx	lr
 c0046d2:	bf00      	nop
 c0046d4:	50032400 	.word	0x50032400
 c0046d8:	00076fff 	.word	0x00076fff
 c0046dc:	fff89000 	.word	0xfff89000
 c0046e0:	1400c904 	.word	0x1400c904
 c0046e4:	1400c908 	.word	0x1400c908

0c0046e8 <HAL_GTZC_MPCBB_ConfigMem>:
  *         The structure description is available in @ref GTZC_Exported_Types.
  * @retval HAL status.
  */
HAL_StatusTypeDef HAL_GTZC_MPCBB_ConfigMem(uint32_t MemBaseAddress,
                                           MPCBB_ConfigTypeDef *pMPCBB_desc)
{
 c0046e8:	b480      	push	{r7}
 c0046ea:	b089      	sub	sp, #36	; 0x24
 c0046ec:	af00      	add	r7, sp, #0
 c0046ee:	6078      	str	r0, [r7, #4]
 c0046f0:	6039      	str	r1, [r7, #0]
  uint32_t size_mask;
  uint32_t size_in_superblocks;
  uint32_t i;

  /* check entry parameters */
  if ((!(IS_GTZC_BASE_ADDRESS(SRAM1, MemBaseAddress))
 c0046f2:	687b      	ldr	r3, [r7, #4]
 c0046f4:	f1b3 5f00 	cmp.w	r3, #536870912	; 0x20000000
 c0046f8:	d00b      	beq.n	c004712 <HAL_GTZC_MPCBB_ConfigMem+0x2a>
 c0046fa:	687b      	ldr	r3, [r7, #4]
 c0046fc:	f1b3 5f40 	cmp.w	r3, #805306368	; 0x30000000
 c004700:	d007      	beq.n	c004712 <HAL_GTZC_MPCBB_ConfigMem+0x2a>
       &&  !(IS_GTZC_BASE_ADDRESS(SRAM2, MemBaseAddress)))
 c004702:	687b      	ldr	r3, [r7, #4]
 c004704:	4a36      	ldr	r2, [pc, #216]	; (c0047e0 <HAL_GTZC_MPCBB_ConfigMem+0xf8>)
 c004706:	4293      	cmp	r3, r2
 c004708:	d003      	beq.n	c004712 <HAL_GTZC_MPCBB_ConfigMem+0x2a>
 c00470a:	687b      	ldr	r3, [r7, #4]
 c00470c:	4a35      	ldr	r2, [pc, #212]	; (c0047e4 <HAL_GTZC_MPCBB_ConfigMem+0xfc>)
 c00470e:	4293      	cmp	r3, r2
 c004710:	d111      	bne.n	c004736 <HAL_GTZC_MPCBB_ConfigMem+0x4e>
      || ((pMPCBB_desc->SecureRWIllegalMode != GTZC_MPCBB_SRWILADIS_ENABLE)
 c004712:	683b      	ldr	r3, [r7, #0]
 c004714:	681b      	ldr	r3, [r3, #0]
 c004716:	2b00      	cmp	r3, #0
 c004718:	d004      	beq.n	c004724 <HAL_GTZC_MPCBB_ConfigMem+0x3c>
          && (pMPCBB_desc->SecureRWIllegalMode != GTZC_MPCBB_SRWILADIS_DISABLE))
 c00471a:	683b      	ldr	r3, [r7, #0]
 c00471c:	681b      	ldr	r3, [r3, #0]
 c00471e:	f1b3 4f00 	cmp.w	r3, #2147483648	; 0x80000000
 c004722:	d108      	bne.n	c004736 <HAL_GTZC_MPCBB_ConfigMem+0x4e>
      || ((pMPCBB_desc->InvertSecureState != GTZC_MPCBB_INVSECSTATE_NOT_INVERTED)
 c004724:	683b      	ldr	r3, [r7, #0]
 c004726:	685b      	ldr	r3, [r3, #4]
 c004728:	2b00      	cmp	r3, #0
 c00472a:	d006      	beq.n	c00473a <HAL_GTZC_MPCBB_ConfigMem+0x52>
          && (pMPCBB_desc->InvertSecureState != GTZC_MPCBB_INVSECSTATE_INVERTED)))
 c00472c:	683b      	ldr	r3, [r7, #0]
 c00472e:	685b      	ldr	r3, [r3, #4]
 c004730:	f1b3 4f80 	cmp.w	r3, #1073741824	; 0x40000000
 c004734:	d001      	beq.n	c00473a <HAL_GTZC_MPCBB_ConfigMem+0x52>
  {
    return HAL_ERROR;
 c004736:	2301      	movs	r3, #1
 c004738:	e04b      	b.n	c0047d2 <HAL_GTZC_MPCBB_ConfigMem+0xea>
  }

  /* write InvertSecureState and SecureRWIllegalMode properties */
  /* assume their Position/Mask is identical for all sub-blocks */
  reg_value = pMPCBB_desc->InvertSecureState;
 c00473a:	683b      	ldr	r3, [r7, #0]
 c00473c:	685b      	ldr	r3, [r3, #4]
 c00473e:	613b      	str	r3, [r7, #16]
  reg_value |= pMPCBB_desc->SecureRWIllegalMode;
 c004740:	683b      	ldr	r3, [r7, #0]
 c004742:	681b      	ldr	r3, [r3, #0]
 c004744:	693a      	ldr	r2, [r7, #16]
 c004746:	4313      	orrs	r3, r2
 c004748:	613b      	str	r3, [r7, #16]
  if (IS_GTZC_BASE_ADDRESS(SRAM1, MemBaseAddress))
 c00474a:	687b      	ldr	r3, [r7, #4]
 c00474c:	f1b3 5f00 	cmp.w	r3, #536870912	; 0x20000000
 c004750:	d003      	beq.n	c00475a <HAL_GTZC_MPCBB_ConfigMem+0x72>
 c004752:	687b      	ldr	r3, [r7, #4]
 c004754:	f1b3 5f40 	cmp.w	r3, #805306368	; 0x30000000
 c004758:	d105      	bne.n	c004766 <HAL_GTZC_MPCBB_ConfigMem+0x7e>
  {
    mpcbb_ptr = GTZC_MPCBB1_S;
 c00475a:	4b23      	ldr	r3, [pc, #140]	; (c0047e8 <HAL_GTZC_MPCBB_ConfigMem+0x100>)
 c00475c:	61fb      	str	r3, [r7, #28]
    mem_size = GTZC_MEM_SIZE(SRAM1);
 c00475e:	f44f 3340 	mov.w	r3, #196608	; 0x30000
 c004762:	61bb      	str	r3, [r7, #24]
 c004764:	e004      	b.n	c004770 <HAL_GTZC_MPCBB_ConfigMem+0x88>
  }
  else
  {
    /* Here MemBaseAddress is inside SRAM2 (already tested) */
    mpcbb_ptr = GTZC_MPCBB2_S;
 c004766:	4b21      	ldr	r3, [pc, #132]	; (c0047ec <HAL_GTZC_MPCBB_ConfigMem+0x104>)
 c004768:	61fb      	str	r3, [r7, #28]
    mem_size = GTZC_MEM_SIZE(SRAM2);
 c00476a:	f44f 3380 	mov.w	r3, #65536	; 0x10000
 c00476e:	61bb      	str	r3, [r7, #24]
  }

  /* write configuration and lock register information */
  MODIFY_REG(mpcbb_ptr->CR,
 c004770:	69fb      	ldr	r3, [r7, #28]
 c004772:	681b      	ldr	r3, [r3, #0]
 c004774:	f023 4240 	bic.w	r2, r3, #3221225472	; 0xc0000000
 c004778:	693b      	ldr	r3, [r7, #16]
 c00477a:	431a      	orrs	r2, r3
 c00477c:	69fb      	ldr	r3, [r7, #28]
 c00477e:	601a      	str	r2, [r3, #0]
             GTZC_MPCBB_CR_INVSECSTATE_Msk | GTZC_MPCBB_CR_SRWILADIS_Msk, reg_value);
  size_mask = (1UL << (mem_size / GTZC_MPCBB_SUPERBLOCK_SIZE)) - 1U;
 c004780:	69bb      	ldr	r3, [r7, #24]
 c004782:	0b5b      	lsrs	r3, r3, #13
 c004784:	2201      	movs	r2, #1
 c004786:	fa02 f303 	lsl.w	r3, r2, r3
 c00478a:	3b01      	subs	r3, #1
 c00478c:	60fb      	str	r3, [r7, #12]
  /* limitation: code not portable with memory > 256K */
  MODIFY_REG(mpcbb_ptr->LCKVTR1, size_mask, pMPCBB_desc->AttributeConfig.MPCBB_LockConfig_array[0]);
 c00478e:	69fb      	ldr	r3, [r7, #28]
 c004790:	691a      	ldr	r2, [r3, #16]
 c004792:	68fb      	ldr	r3, [r7, #12]
 c004794:	43db      	mvns	r3, r3
 c004796:	401a      	ands	r2, r3
 c004798:	683b      	ldr	r3, [r7, #0]
 c00479a:	6e9b      	ldr	r3, [r3, #104]	; 0x68
 c00479c:	431a      	orrs	r2, r3
 c00479e:	69fb      	ldr	r3, [r7, #28]
 c0047a0:	611a      	str	r2, [r3, #16]

  /* write vector register information */
  size_in_superblocks = (mem_size / GTZC_MPCBB_SUPERBLOCK_SIZE);
 c0047a2:	69bb      	ldr	r3, [r7, #24]
 c0047a4:	0b5b      	lsrs	r3, r3, #13
 c0047a6:	60bb      	str	r3, [r7, #8]
  for (i = 0U; i < size_in_superblocks; i++)
 c0047a8:	2300      	movs	r3, #0
 c0047aa:	617b      	str	r3, [r7, #20]
 c0047ac:	e00c      	b.n	c0047c8 <HAL_GTZC_MPCBB_ConfigMem+0xe0>
  {
    WRITE_REG(mpcbb_ptr->VCTR[i],
 c0047ae:	683b      	ldr	r3, [r7, #0]
 c0047b0:	697a      	ldr	r2, [r7, #20]
 c0047b2:	3202      	adds	r2, #2
 c0047b4:	f853 1022 	ldr.w	r1, [r3, r2, lsl #2]
 c0047b8:	69fb      	ldr	r3, [r7, #28]
 c0047ba:	697a      	ldr	r2, [r7, #20]
 c0047bc:	3240      	adds	r2, #64	; 0x40
 c0047be:	f843 1022 	str.w	r1, [r3, r2, lsl #2]
  for (i = 0U; i < size_in_superblocks; i++)
 c0047c2:	697b      	ldr	r3, [r7, #20]
 c0047c4:	3301      	adds	r3, #1
 c0047c6:	617b      	str	r3, [r7, #20]
 c0047c8:	697a      	ldr	r2, [r7, #20]
 c0047ca:	68bb      	ldr	r3, [r7, #8]
 c0047cc:	429a      	cmp	r2, r3
 c0047ce:	d3ee      	bcc.n	c0047ae <HAL_GTZC_MPCBB_ConfigMem+0xc6>
              pMPCBB_desc->AttributeConfig.MPCBB_SecConfig_array[i]);
  }

  return HAL_OK;
 c0047d0:	2300      	movs	r3, #0
}
 c0047d2:	4618      	mov	r0, r3
 c0047d4:	3724      	adds	r7, #36	; 0x24
 c0047d6:	46bd      	mov	sp, r7
 c0047d8:	f85d 7b04 	ldr.w	r7, [sp], #4
 c0047dc:	4770      	bx	lr
 c0047de:	bf00      	nop
 c0047e0:	20030000 	.word	0x20030000
 c0047e4:	30030000 	.word	0x30030000
 c0047e8:	50032c00 	.word	0x50032c00
 c0047ec:	50033000 	.word	0x50033000

0c0047f0 <HAL_GTZC_TZIC_EnableIT>:
  *         This parameter can be a value of @ref GTZC_TZSC_TZIC_PeriphId.
  *         Use GTZC_PERIPH_ALL to select all peripherals.
  * @retval HAL status.
  */
HAL_StatusTypeDef HAL_GTZC_TZIC_EnableIT(uint32_t PeriphId)
{
 c0047f0:	b480      	push	{r7}
 c0047f2:	b085      	sub	sp, #20
 c0047f4:	af00      	add	r7, sp, #0
 c0047f6:	6078      	str	r0, [r7, #4]
  uint32_t register_address;

  /* check entry parameters */
  if ((HAL_GTZC_GET_ARRAY_INDEX(PeriphId) >= GTZC_TZIC_PERIPH_NUMBER)
 c0047f8:	687b      	ldr	r3, [r7, #4]
 c0047fa:	0f1b      	lsrs	r3, r3, #28
 c0047fc:	015a      	lsls	r2, r3, #5
 c0047fe:	687b      	ldr	r3, [r7, #4]
 c004800:	f003 031f 	and.w	r3, r3, #31
 c004804:	4413      	add	r3, r2
 c004806:	2b47      	cmp	r3, #71	; 0x47
 c004808:	d80d      	bhi.n	c004826 <HAL_GTZC_TZIC_EnableIT+0x36>
      || (((PeriphId & GTZC_PERIPH_ALL) != 0U) && (HAL_GTZC_GET_ARRAY_INDEX(PeriphId) != 0U)))
 c00480a:	687b      	ldr	r3, [r7, #4]
 c00480c:	f003 0320 	and.w	r3, r3, #32
 c004810:	2b00      	cmp	r3, #0
 c004812:	d00a      	beq.n	c00482a <HAL_GTZC_TZIC_EnableIT+0x3a>
 c004814:	687b      	ldr	r3, [r7, #4]
 c004816:	0f1b      	lsrs	r3, r3, #28
 c004818:	015a      	lsls	r2, r3, #5
 c00481a:	687b      	ldr	r3, [r7, #4]
 c00481c:	f003 031f 	and.w	r3, r3, #31
 c004820:	4413      	add	r3, r2
 c004822:	2b00      	cmp	r3, #0
 c004824:	d001      	beq.n	c00482a <HAL_GTZC_TZIC_EnableIT+0x3a>
  {
    return HAL_ERROR;
 c004826:	2301      	movs	r3, #1
 c004828:	e022      	b.n	c004870 <HAL_GTZC_TZIC_EnableIT+0x80>
  }

  if ((PeriphId & GTZC_PERIPH_ALL) != 0U)
 c00482a:	687b      	ldr	r3, [r7, #4]
 c00482c:	f003 0320 	and.w	r3, r3, #32
 c004830:	2b00      	cmp	r3, #0
 c004832:	d00a      	beq.n	c00484a <HAL_GTZC_TZIC_EnableIT+0x5a>
  {
    /* same configuration is applied to all peripherals */
    WRITE_REG(GTZC_TZIC->IER1, TZIC_IER1_ALL);
 c004834:	4b11      	ldr	r3, [pc, #68]	; (c00487c <HAL_GTZC_TZIC_EnableIT+0x8c>)
 c004836:	f04f 32ff 	mov.w	r2, #4294967295	; 0xffffffff
 c00483a:	601a      	str	r2, [r3, #0]
    WRITE_REG(GTZC_TZIC->IER2, TZIC_IER2_ALL);
 c00483c:	4b0f      	ldr	r3, [pc, #60]	; (c00487c <HAL_GTZC_TZIC_EnableIT+0x8c>)
 c00483e:	4a10      	ldr	r2, [pc, #64]	; (c004880 <HAL_GTZC_TZIC_EnableIT+0x90>)
 c004840:	605a      	str	r2, [r3, #4]
    WRITE_REG(GTZC_TZIC->IER3, TZIC_IER3_ALL);
 c004842:	4b0e      	ldr	r3, [pc, #56]	; (c00487c <HAL_GTZC_TZIC_EnableIT+0x8c>)
 c004844:	22ff      	movs	r2, #255	; 0xff
 c004846:	609a      	str	r2, [r3, #8]
 c004848:	e011      	b.n	c00486e <HAL_GTZC_TZIC_EnableIT+0x7e>
  }
  else
  {
    /* common case where only one peripheral is configured */
    register_address = (uint32_t) &(GTZC_TZIC->IER1) + (4U * GTZC_GET_REG_INDEX(PeriphId));
 c00484a:	687b      	ldr	r3, [r7, #4]
 c00484c:	0f1b      	lsrs	r3, r3, #28
 c00484e:	f103 53a0 	add.w	r3, r3, #335544320	; 0x14000000
 c004852:	f503 434a 	add.w	r3, r3, #51712	; 0xca00
 c004856:	009b      	lsls	r3, r3, #2
 c004858:	60fb      	str	r3, [r7, #12]
    SET_BIT(*(__IO uint32_t *)register_address, 1UL << GTZC_GET_PERIPH_POS(PeriphId));
 c00485a:	68fb      	ldr	r3, [r7, #12]
 c00485c:	6819      	ldr	r1, [r3, #0]
 c00485e:	687b      	ldr	r3, [r7, #4]
 c004860:	f003 031f 	and.w	r3, r3, #31
 c004864:	2201      	movs	r2, #1
 c004866:	409a      	lsls	r2, r3
 c004868:	68fb      	ldr	r3, [r7, #12]
 c00486a:	430a      	orrs	r2, r1
 c00486c:	601a      	str	r2, [r3, #0]
  }

  return HAL_OK;
 c00486e:	2300      	movs	r3, #0
}
 c004870:	4618      	mov	r0, r3
 c004872:	3714      	adds	r7, #20
 c004874:	46bd      	mov	sp, r7
 c004876:	f85d 7b04 	ldr.w	r7, [sp], #4
 c00487a:	4770      	bx	lr
 c00487c:	50032800 	.word	0x50032800
 c004880:	3fff6fff 	.word	0x3fff6fff

0c004884 <HAL_GTZC_IRQHandler>:
/**
  * @brief  This function handles GTZC interrupt request.
  * @retval None.
  */
void HAL_GTZC_IRQHandler(void)
{
 c004884:	b580      	push	{r7, lr}
 c004886:	b084      	sub	sp, #16
 c004888:	af00      	add	r7, sp, #0
  uint32_t flag;
  uint32_t ier_itsources;
  uint32_t sr_flags;

  /* Get current IT Flags and IT sources value on 1st register */
  ier_itsources = READ_REG(GTZC_TZIC->IER1);
 c00488a:	4b3f      	ldr	r3, [pc, #252]	; (c004988 <HAL_GTZC_IRQHandler+0x104>)
 c00488c:	681b      	ldr	r3, [r3, #0]
 c00488e:	60bb      	str	r3, [r7, #8]
  sr_flags      = READ_REG(GTZC_TZIC->SR1);
 c004890:	4b3d      	ldr	r3, [pc, #244]	; (c004988 <HAL_GTZC_IRQHandler+0x104>)
 c004892:	691b      	ldr	r3, [r3, #16]
 c004894:	607b      	str	r3, [r7, #4]

  /* Get Mask interrupt and then clear them */
  flag = ier_itsources & sr_flags;
 c004896:	68ba      	ldr	r2, [r7, #8]
 c004898:	687b      	ldr	r3, [r7, #4]
 c00489a:	4013      	ands	r3, r2
 c00489c:	603b      	str	r3, [r7, #0]
  if (flag != 0U)
 c00489e:	683b      	ldr	r3, [r7, #0]
 c0048a0:	2b00      	cmp	r3, #0
 c0048a2:	d019      	beq.n	c0048d8 <HAL_GTZC_IRQHandler+0x54>
  {
    WRITE_REG(GTZC_TZIC->FCR1, flag);
 c0048a4:	4a38      	ldr	r2, [pc, #224]	; (c004988 <HAL_GTZC_IRQHandler+0x104>)
 c0048a6:	683b      	ldr	r3, [r7, #0]
 c0048a8:	6213      	str	r3, [r2, #32]

    /* Loop on flag to check, which ones have been raised */
    position = 0U;
 c0048aa:	2300      	movs	r3, #0
 c0048ac:	60fb      	str	r3, [r7, #12]
    while ((flag >> position) != 0U)
 c0048ae:	e00d      	b.n	c0048cc <HAL_GTZC_IRQHandler+0x48>
    {
      if ((flag & (1UL << position)) != 0U)
 c0048b0:	683a      	ldr	r2, [r7, #0]
 c0048b2:	68fb      	ldr	r3, [r7, #12]
 c0048b4:	fa22 f303 	lsr.w	r3, r2, r3
 c0048b8:	f003 0301 	and.w	r3, r3, #1
 c0048bc:	2b00      	cmp	r3, #0
 c0048be:	d002      	beq.n	c0048c6 <HAL_GTZC_IRQHandler+0x42>
      {
        HAL_GTZC_TZIC_Callback(GTZC_PERIPH_REG1 | position);
 c0048c0:	68f8      	ldr	r0, [r7, #12]
 c0048c2:	f000 f863 	bl	c00498c <HAL_GTZC_TZIC_Callback>
      }

      /* Position bit to be updated */
      position++;
 c0048c6:	68fb      	ldr	r3, [r7, #12]
 c0048c8:	3301      	adds	r3, #1
 c0048ca:	60fb      	str	r3, [r7, #12]
    while ((flag >> position) != 0U)
 c0048cc:	683a      	ldr	r2, [r7, #0]
 c0048ce:	68fb      	ldr	r3, [r7, #12]
 c0048d0:	fa22 f303 	lsr.w	r3, r2, r3
 c0048d4:	2b00      	cmp	r3, #0
 c0048d6:	d1eb      	bne.n	c0048b0 <HAL_GTZC_IRQHandler+0x2c>
    }
  }

  /* Get current IT Flags and IT sources value on 2nd register */
  ier_itsources = READ_REG(GTZC_TZIC->IER2);
 c0048d8:	4b2b      	ldr	r3, [pc, #172]	; (c004988 <HAL_GTZC_IRQHandler+0x104>)
 c0048da:	685b      	ldr	r3, [r3, #4]
 c0048dc:	60bb      	str	r3, [r7, #8]
  sr_flags      = READ_REG(GTZC_TZIC->SR2);
 c0048de:	4b2a      	ldr	r3, [pc, #168]	; (c004988 <HAL_GTZC_IRQHandler+0x104>)
 c0048e0:	695b      	ldr	r3, [r3, #20]
 c0048e2:	607b      	str	r3, [r7, #4]

  /* Get Mask interrupt and then clear them */
  flag = ier_itsources & sr_flags;
 c0048e4:	68ba      	ldr	r2, [r7, #8]
 c0048e6:	687b      	ldr	r3, [r7, #4]
 c0048e8:	4013      	ands	r3, r2
 c0048ea:	603b      	str	r3, [r7, #0]
  if (flag != 0U)
 c0048ec:	683b      	ldr	r3, [r7, #0]
 c0048ee:	2b00      	cmp	r3, #0
 c0048f0:	d01c      	beq.n	c00492c <HAL_GTZC_IRQHandler+0xa8>
  {
    WRITE_REG(GTZC_TZIC->FCR2, flag);
 c0048f2:	4a25      	ldr	r2, [pc, #148]	; (c004988 <HAL_GTZC_IRQHandler+0x104>)
 c0048f4:	683b      	ldr	r3, [r7, #0]
 c0048f6:	6253      	str	r3, [r2, #36]	; 0x24

    /* Loop on flag to check, which ones have been raised */
    position = 0U;
 c0048f8:	2300      	movs	r3, #0
 c0048fa:	60fb      	str	r3, [r7, #12]
    while ((flag >> position) != 0U)
 c0048fc:	e010      	b.n	c004920 <HAL_GTZC_IRQHandler+0x9c>
    {
      if ((flag & (1UL << position)) != 0U)
 c0048fe:	683a      	ldr	r2, [r7, #0]
 c004900:	68fb      	ldr	r3, [r7, #12]
 c004902:	fa22 f303 	lsr.w	r3, r2, r3
 c004906:	f003 0301 	and.w	r3, r3, #1
 c00490a:	2b00      	cmp	r3, #0
 c00490c:	d005      	beq.n	c00491a <HAL_GTZC_IRQHandler+0x96>
      {
        HAL_GTZC_TZIC_Callback(GTZC_PERIPH_REG2 | position);
 c00490e:	68fb      	ldr	r3, [r7, #12]
 c004910:	f043 5380 	orr.w	r3, r3, #268435456	; 0x10000000
 c004914:	4618      	mov	r0, r3
 c004916:	f000 f839 	bl	c00498c <HAL_GTZC_TZIC_Callback>
      }

      /* Position bit to be updated */
      position++;
 c00491a:	68fb      	ldr	r3, [r7, #12]
 c00491c:	3301      	adds	r3, #1
 c00491e:	60fb      	str	r3, [r7, #12]
    while ((flag >> position) != 0U)
 c004920:	683a      	ldr	r2, [r7, #0]
 c004922:	68fb      	ldr	r3, [r7, #12]
 c004924:	fa22 f303 	lsr.w	r3, r2, r3
 c004928:	2b00      	cmp	r3, #0
 c00492a:	d1e8      	bne.n	c0048fe <HAL_GTZC_IRQHandler+0x7a>
    }
  }

  /* Get current IT Flags and IT sources value on 3rd register */
  ier_itsources = READ_REG(GTZC_TZIC->IER3);
 c00492c:	4b16      	ldr	r3, [pc, #88]	; (c004988 <HAL_GTZC_IRQHandler+0x104>)
 c00492e:	689b      	ldr	r3, [r3, #8]
 c004930:	60bb      	str	r3, [r7, #8]
  sr_flags      = READ_REG(GTZC_TZIC->SR3);
 c004932:	4b15      	ldr	r3, [pc, #84]	; (c004988 <HAL_GTZC_IRQHandler+0x104>)
 c004934:	699b      	ldr	r3, [r3, #24]
 c004936:	607b      	str	r3, [r7, #4]

  /* Get Mask interrupt and then clear them */
  flag = ier_itsources & sr_flags;
 c004938:	68ba      	ldr	r2, [r7, #8]
 c00493a:	687b      	ldr	r3, [r7, #4]
 c00493c:	4013      	ands	r3, r2
 c00493e:	603b      	str	r3, [r7, #0]
  if (flag != 0U)
 c004940:	683b      	ldr	r3, [r7, #0]
 c004942:	2b00      	cmp	r3, #0
 c004944:	d01c      	beq.n	c004980 <HAL_GTZC_IRQHandler+0xfc>
  {
    WRITE_REG(GTZC_TZIC->FCR3, flag);
 c004946:	4a10      	ldr	r2, [pc, #64]	; (c004988 <HAL_GTZC_IRQHandler+0x104>)
 c004948:	683b      	ldr	r3, [r7, #0]
 c00494a:	6293      	str	r3, [r2, #40]	; 0x28

    /* Loop on flag to check, which ones have been raised */
    position = 0U;
 c00494c:	2300      	movs	r3, #0
 c00494e:	60fb      	str	r3, [r7, #12]
    while ((flag >> position) != 0U)
 c004950:	e010      	b.n	c004974 <HAL_GTZC_IRQHandler+0xf0>
    {
      if ((flag & (1UL << position)) != 0U)
 c004952:	683a      	ldr	r2, [r7, #0]
 c004954:	68fb      	ldr	r3, [r7, #12]
 c004956:	fa22 f303 	lsr.w	r3, r2, r3
 c00495a:	f003 0301 	and.w	r3, r3, #1
 c00495e:	2b00      	cmp	r3, #0
 c004960:	d005      	beq.n	c00496e <HAL_GTZC_IRQHandler+0xea>
      {
        HAL_GTZC_TZIC_Callback(GTZC_PERIPH_REG3 | position);
 c004962:	68fb      	ldr	r3, [r7, #12]
 c004964:	f043 5300 	orr.w	r3, r3, #536870912	; 0x20000000
 c004968:	4618      	mov	r0, r3
 c00496a:	f000 f80f 	bl	c00498c <HAL_GTZC_TZIC_Callback>
      }

      /* Position bit to be updated */
      position++;
 c00496e:	68fb      	ldr	r3, [r7, #12]
 c004970:	3301      	adds	r3, #1
 c004972:	60fb      	str	r3, [r7, #12]
    while ((flag >> position) != 0U)
 c004974:	683a      	ldr	r2, [r7, #0]
 c004976:	68fb      	ldr	r3, [r7, #12]
 c004978:	fa22 f303 	lsr.w	r3, r2, r3
 c00497c:	2b00      	cmp	r3, #0
 c00497e:	d1e8      	bne.n	c004952 <HAL_GTZC_IRQHandler+0xce>
    }
  }
}
 c004980:	bf00      	nop
 c004982:	3710      	adds	r7, #16
 c004984:	46bd      	mov	sp, r7
 c004986:	bd80      	pop	{r7, pc}
 c004988:	50032800 	.word	0x50032800

0c00498c <HAL_GTZC_TZIC_Callback>:
  * @param  PeriphId Peripheral identifier triggering the illegal access.
  *         This parameter can be a value of @ref GTZC_TZSC_TZIC_PeriphId
  * @retval None.
  */
__weak void HAL_GTZC_TZIC_Callback(uint32_t PeriphId)
{
 c00498c:	b480      	push	{r7}
 c00498e:	b083      	sub	sp, #12
 c004990:	af00      	add	r7, sp, #0
 c004992:	6078      	str	r0, [r7, #4]
  UNUSED(PeriphId);

  /* NOTE: This function should not be modified. When the callback is needed,
   * the HAL_GTZC_TZIC_Callback is to be implemented in the user file
   */
}
 c004994:	bf00      	nop
 c004996:	370c      	adds	r7, #12
 c004998:	46bd      	mov	sp, r7
 c00499a:	f85d 7b04 	ldr.w	r7, [sp], #4
 c00499e:	4770      	bx	lr

0c0049a0 <HAL_PWR_ConfigAttributes>:
  *            @arg @ref PWR_SEC          Secure-only access
  *            @arg @ref PWR_NSEC         Secure/Non-secure access
  * @retval None
  */
void HAL_PWR_ConfigAttributes(uint32_t Item, uint32_t Attributes)
{
 c0049a0:	b480      	push	{r7}
 c0049a2:	b083      	sub	sp, #12
 c0049a4:	af00      	add	r7, sp, #0
 c0049a6:	6078      	str	r0, [r7, #4]
 c0049a8:	6039      	str	r1, [r7, #0]
  /* Check the parameters */
  assert_param(IS_PWR_ITEMS_ATTRIBUTES(Item));
  assert_param(IS_PWR_ATTRIBUTES(Attributes));

  /* Privilege/non-privilege attribute */
  if ((Attributes & PWR_PRIV) == PWR_PRIV)
 c0049aa:	683a      	ldr	r2, [r7, #0]
 c0049ac:	f240 2302 	movw	r3, #514	; 0x202
 c0049b0:	4013      	ands	r3, r2
 c0049b2:	f240 2202 	movw	r2, #514	; 0x202
 c0049b6:	4293      	cmp	r3, r2
 c0049b8:	d108      	bne.n	c0049cc <HAL_PWR_ConfigAttributes+0x2c>
  {
    SET_BIT(PWR->PRIVCFGR, PWR_PRIVCFGR_PRIV);
 c0049ba:	4b1b      	ldr	r3, [pc, #108]	; (c004a28 <HAL_PWR_ConfigAttributes+0x88>)
 c0049bc:	f8d3 3080 	ldr.w	r3, [r3, #128]	; 0x80
 c0049c0:	4a19      	ldr	r2, [pc, #100]	; (c004a28 <HAL_PWR_ConfigAttributes+0x88>)
 c0049c2:	f043 0301 	orr.w	r3, r3, #1
 c0049c6:	f8c2 3080 	str.w	r3, [r2, #128]	; 0x80
 c0049ca:	e00c      	b.n	c0049e6 <HAL_PWR_ConfigAttributes+0x46>
  }
  else if ((Attributes & PWR_NPRIV) == PWR_NPRIV)
 c0049cc:	683b      	ldr	r3, [r7, #0]
 c0049ce:	f403 7300 	and.w	r3, r3, #512	; 0x200
 c0049d2:	2b00      	cmp	r3, #0
 c0049d4:	d007      	beq.n	c0049e6 <HAL_PWR_ConfigAttributes+0x46>
  {
    CLEAR_BIT(PWR->PRIVCFGR, PWR_PRIVCFGR_PRIV);
 c0049d6:	4b14      	ldr	r3, [pc, #80]	; (c004a28 <HAL_PWR_ConfigAttributes+0x88>)
 c0049d8:	f8d3 3080 	ldr.w	r3, [r3, #128]	; 0x80
 c0049dc:	4a12      	ldr	r2, [pc, #72]	; (c004a28 <HAL_PWR_ConfigAttributes+0x88>)
 c0049de:	f023 0301 	bic.w	r3, r3, #1
 c0049e2:	f8c2 3080 	str.w	r3, [r2, #128]	; 0x80


#if defined (__ARM_FEATURE_CMSE) && (__ARM_FEATURE_CMSE == 3U)

  /* Secure/non-secure attribute */
  if ((Attributes & PWR_SEC) == PWR_SEC)
 c0049e6:	683a      	ldr	r2, [r7, #0]
 c0049e8:	f240 1301 	movw	r3, #257	; 0x101
 c0049ec:	4013      	ands	r3, r2
 c0049ee:	f240 1201 	movw	r2, #257	; 0x101
 c0049f2:	4293      	cmp	r3, r2
 c0049f4:	d106      	bne.n	c004a04 <HAL_PWR_ConfigAttributes+0x64>
  {
    SET_BIT(PWR_S->SECCFGR, Item);
 c0049f6:	4b0c      	ldr	r3, [pc, #48]	; (c004a28 <HAL_PWR_ConfigAttributes+0x88>)
 c0049f8:	6f9a      	ldr	r2, [r3, #120]	; 0x78
 c0049fa:	490b      	ldr	r1, [pc, #44]	; (c004a28 <HAL_PWR_ConfigAttributes+0x88>)
 c0049fc:	687b      	ldr	r3, [r7, #4]
 c0049fe:	4313      	orrs	r3, r2
 c004a00:	678b      	str	r3, [r1, #120]	; 0x78
  {
    /* do nothing */
  }

#endif /* __ARM_FEATURE_CMSE */
}
 c004a02:	e00b      	b.n	c004a1c <HAL_PWR_ConfigAttributes+0x7c>
  else if ((Attributes & PWR_NSEC) == PWR_NSEC)
 c004a04:	683b      	ldr	r3, [r7, #0]
 c004a06:	f403 7380 	and.w	r3, r3, #256	; 0x100
 c004a0a:	2b00      	cmp	r3, #0
 c004a0c:	d006      	beq.n	c004a1c <HAL_PWR_ConfigAttributes+0x7c>
    CLEAR_BIT(PWR_S->SECCFGR, Item);
 c004a0e:	4b06      	ldr	r3, [pc, #24]	; (c004a28 <HAL_PWR_ConfigAttributes+0x88>)
 c004a10:	6f9a      	ldr	r2, [r3, #120]	; 0x78
 c004a12:	687b      	ldr	r3, [r7, #4]
 c004a14:	43db      	mvns	r3, r3
 c004a16:	4904      	ldr	r1, [pc, #16]	; (c004a28 <HAL_PWR_ConfigAttributes+0x88>)
 c004a18:	4013      	ands	r3, r2
 c004a1a:	678b      	str	r3, [r1, #120]	; 0x78
}
 c004a1c:	bf00      	nop
 c004a1e:	370c      	adds	r7, #12
 c004a20:	46bd      	mov	sp, r7
 c004a22:	f85d 7b04 	ldr.w	r7, [sp], #4
 c004a26:	4770      	bx	lr
 c004a28:	50007000 	.word	0x50007000

0c004a2c <HAL_PWREx_GetVoltageRange>:
/**
  * @brief Return Voltage Scaling Range.
  * @retval VOS bit field (PWR_REGULATOR_VOLTAGE_SCALE0, PWR_REGULATOR_VOLTAGE_SCALE1 or PWR_REGULATOR_VOLTAGE_SCALE2)
  */
uint32_t HAL_PWREx_GetVoltageRange(void)
{
 c004a2c:	b480      	push	{r7}
 c004a2e:	af00      	add	r7, sp, #0
  return (PWR->CR1 & PWR_CR1_VOS);
 c004a30:	4b04      	ldr	r3, [pc, #16]	; (c004a44 <HAL_PWREx_GetVoltageRange+0x18>)
 c004a32:	681b      	ldr	r3, [r3, #0]
 c004a34:	f403 63c0 	and.w	r3, r3, #1536	; 0x600
}
 c004a38:	4618      	mov	r0, r3
 c004a3a:	46bd      	mov	sp, r7
 c004a3c:	f85d 7b04 	ldr.w	r7, [sp], #4
 c004a40:	4770      	bx	lr
 c004a42:	bf00      	nop
 c004a44:	50007000 	.word	0x50007000

0c004a48 <HAL_PWREx_ControlVoltageScaling>:
  * @note  The VOS shall NOT be changed in LP Mode of if LP mode is asked.
  * @note  The function shall not be called in Low-power run mode (meaningless and misleading).
  * @retval HAL Status
  */
HAL_StatusTypeDef HAL_PWREx_ControlVoltageScaling(uint32_t VoltageScaling)
{
 c004a48:	b580      	push	{r7, lr}
 c004a4a:	b084      	sub	sp, #16
 c004a4c:	af00      	add	r7, sp, #0
 c004a4e:	6078      	str	r0, [r7, #4]
  uint32_t wait_loop_index;

  assert_param(IS_PWR_VOLTAGE_SCALING_RANGE(VoltageScaling));

  uint32_t vos_old = READ_BIT(PWR->CR1, PWR_CR1_VOS);
 c004a50:	4b27      	ldr	r3, [pc, #156]	; (c004af0 <HAL_PWREx_ControlVoltageScaling+0xa8>)
 c004a52:	681b      	ldr	r3, [r3, #0]
 c004a54:	f403 63c0 	and.w	r3, r3, #1536	; 0x600
 c004a58:	60bb      	str	r3, [r7, #8]

  /* VOS shall not be changed in LP Mode            */
  /* or if LP Mode is asked but not yet established */
  if (HAL_PWREx_SMPS_GetEffectiveMode() == PWR_SMPS_LOW_POWER)
 c004a5a:	f000 f871 	bl	c004b40 <HAL_PWREx_SMPS_GetEffectiveMode>
 c004a5e:	4603      	mov	r3, r0
 c004a60:	f5b3 4f00 	cmp.w	r3, #32768	; 0x8000
 c004a64:	d101      	bne.n	c004a6a <HAL_PWREx_ControlVoltageScaling+0x22>
  {
    return HAL_ERROR;
 c004a66:	2301      	movs	r3, #1
 c004a68:	e03e      	b.n	c004ae8 <HAL_PWREx_ControlVoltageScaling+0xa0>
  }
  if (READ_BIT(PWR->CR4, PWR_CR4_SMPSLPEN) == PWR_CR4_SMPSLPEN)
 c004a6a:	4b21      	ldr	r3, [pc, #132]	; (c004af0 <HAL_PWREx_ControlVoltageScaling+0xa8>)
 c004a6c:	68db      	ldr	r3, [r3, #12]
 c004a6e:	f403 4300 	and.w	r3, r3, #32768	; 0x8000
 c004a72:	f5b3 4f00 	cmp.w	r3, #32768	; 0x8000
 c004a76:	d101      	bne.n	c004a7c <HAL_PWREx_ControlVoltageScaling+0x34>
  {
    return HAL_ERROR;
 c004a78:	2301      	movs	r3, #1
 c004a7a:	e035      	b.n	c004ae8 <HAL_PWREx_ControlVoltageScaling+0xa0>
  }

  /* No change, nothing to do */
  if (vos_old == VoltageScaling)
 c004a7c:	68ba      	ldr	r2, [r7, #8]
 c004a7e:	687b      	ldr	r3, [r7, #4]
 c004a80:	429a      	cmp	r2, r3
 c004a82:	d101      	bne.n	c004a88 <HAL_PWREx_ControlVoltageScaling+0x40>
  {
    return HAL_OK;
 c004a84:	2300      	movs	r3, #0
 c004a86:	e02f      	b.n	c004ae8 <HAL_PWREx_ControlVoltageScaling+0xa0>
  }

  MODIFY_REG(PWR->CR1, PWR_CR1_VOS, VoltageScaling);
 c004a88:	4b19      	ldr	r3, [pc, #100]	; (c004af0 <HAL_PWREx_ControlVoltageScaling+0xa8>)
 c004a8a:	681b      	ldr	r3, [r3, #0]
 c004a8c:	f423 62c0 	bic.w	r2, r3, #1536	; 0x600
 c004a90:	4917      	ldr	r1, [pc, #92]	; (c004af0 <HAL_PWREx_ControlVoltageScaling+0xa8>)
 c004a92:	687b      	ldr	r3, [r7, #4]
 c004a94:	4313      	orrs	r3, r2
 c004a96:	600b      	str	r3, [r1, #0]

  /* Wait until VOSF is cleared */
  /* and at least one iteration loop */
  wait_loop_index = ((PWR_VOSF_SETTING_DELAY_VALUE * (SystemCoreClock / 100000U)) / 10U) + 1U;
 c004a98:	4b16      	ldr	r3, [pc, #88]	; (c004af4 <HAL_PWREx_ControlVoltageScaling+0xac>)
 c004a9a:	681b      	ldr	r3, [r3, #0]
 c004a9c:	095b      	lsrs	r3, r3, #5
 c004a9e:	4a16      	ldr	r2, [pc, #88]	; (c004af8 <HAL_PWREx_ControlVoltageScaling+0xb0>)
 c004aa0:	fba2 2303 	umull	r2, r3, r2, r3
 c004aa4:	09db      	lsrs	r3, r3, #7
 c004aa6:	2232      	movs	r2, #50	; 0x32
 c004aa8:	fb02 f303 	mul.w	r3, r2, r3
 c004aac:	4a13      	ldr	r2, [pc, #76]	; (c004afc <HAL_PWREx_ControlVoltageScaling+0xb4>)
 c004aae:	fba2 2303 	umull	r2, r3, r2, r3
 c004ab2:	08db      	lsrs	r3, r3, #3
 c004ab4:	3301      	adds	r3, #1
 c004ab6:	60fb      	str	r3, [r7, #12]

  while ((HAL_IS_BIT_SET(PWR->SR2, PWR_SR2_VOSF)) && (wait_loop_index != 0U))
 c004ab8:	e002      	b.n	c004ac0 <HAL_PWREx_ControlVoltageScaling+0x78>
  {
    wait_loop_index--;
 c004aba:	68fb      	ldr	r3, [r7, #12]
 c004abc:	3b01      	subs	r3, #1
 c004abe:	60fb      	str	r3, [r7, #12]
  while ((HAL_IS_BIT_SET(PWR->SR2, PWR_SR2_VOSF)) && (wait_loop_index != 0U))
 c004ac0:	4b0b      	ldr	r3, [pc, #44]	; (c004af0 <HAL_PWREx_ControlVoltageScaling+0xa8>)
 c004ac2:	695b      	ldr	r3, [r3, #20]
 c004ac4:	f403 6380 	and.w	r3, r3, #1024	; 0x400
 c004ac8:	f5b3 6f80 	cmp.w	r3, #1024	; 0x400
 c004acc:	d102      	bne.n	c004ad4 <HAL_PWREx_ControlVoltageScaling+0x8c>
 c004ace:	68fb      	ldr	r3, [r7, #12]
 c004ad0:	2b00      	cmp	r3, #0
 c004ad2:	d1f2      	bne.n	c004aba <HAL_PWREx_ControlVoltageScaling+0x72>
  }

  if (HAL_IS_BIT_SET(PWR->SR2, PWR_SR2_VOSF))
 c004ad4:	4b06      	ldr	r3, [pc, #24]	; (c004af0 <HAL_PWREx_ControlVoltageScaling+0xa8>)
 c004ad6:	695b      	ldr	r3, [r3, #20]
 c004ad8:	f403 6380 	and.w	r3, r3, #1024	; 0x400
 c004adc:	f5b3 6f80 	cmp.w	r3, #1024	; 0x400
 c004ae0:	d101      	bne.n	c004ae6 <HAL_PWREx_ControlVoltageScaling+0x9e>
  {
    return HAL_TIMEOUT;
 c004ae2:	2303      	movs	r3, #3
 c004ae4:	e000      	b.n	c004ae8 <HAL_PWREx_ControlVoltageScaling+0xa0>
  }

  return HAL_OK;
 c004ae6:	2300      	movs	r3, #0
}
 c004ae8:	4618      	mov	r0, r3
 c004aea:	3710      	adds	r7, #16
 c004aec:	46bd      	mov	sp, r7
 c004aee:	bd80      	pop	{r7, pc}
 c004af0:	50007000 	.word	0x50007000
 c004af4:	30000028 	.word	0x30000028
 c004af8:	0a7c5ac5 	.word	0x0a7c5ac5
 c004afc:	cccccccd 	.word	0xcccccccd

0c004b00 <HAL_PWREx_EnableVddIO2>:
  * @brief Enable VDDIO2 supply.
  * @note  Remove VDDIO2 electrical and logical isolation, once VDDIO2 supply is present.
  * @retval None
  */
void HAL_PWREx_EnableVddIO2(void)
{
 c004b00:	b480      	push	{r7}
 c004b02:	af00      	add	r7, sp, #0
  SET_BIT(PWR->CR2, PWR_CR2_IOSV);
 c004b04:	4b05      	ldr	r3, [pc, #20]	; (c004b1c <HAL_PWREx_EnableVddIO2+0x1c>)
 c004b06:	685b      	ldr	r3, [r3, #4]
 c004b08:	4a04      	ldr	r2, [pc, #16]	; (c004b1c <HAL_PWREx_EnableVddIO2+0x1c>)
 c004b0a:	f443 7300 	orr.w	r3, r3, #512	; 0x200
 c004b0e:	6053      	str	r3, [r2, #4]
}
 c004b10:	bf00      	nop
 c004b12:	46bd      	mov	sp, r7
 c004b14:	f85d 7b04 	ldr.w	r7, [sp], #4
 c004b18:	4770      	bx	lr
 c004b1a:	bf00      	nop
 c004b1c:	50007000 	.word	0x50007000

0c004b20 <HAL_PWREx_DisableUCPDDeadBattery>:
  *       or to hand over control to the UCPD (which should therefore be
  *       initialized before doing the disable).
  * @retval None
  */
void HAL_PWREx_DisableUCPDDeadBattery(void)
{
 c004b20:	b480      	push	{r7}
 c004b22:	af00      	add	r7, sp, #0
  /* Write 1 to disable the USB Type-C dead battery pull-down behavior */
  SET_BIT(PWR->CR3, PWR_CR3_UCPD_DBDIS);
 c004b24:	4b05      	ldr	r3, [pc, #20]	; (c004b3c <HAL_PWREx_DisableUCPDDeadBattery+0x1c>)
 c004b26:	689b      	ldr	r3, [r3, #8]
 c004b28:	4a04      	ldr	r2, [pc, #16]	; (c004b3c <HAL_PWREx_DisableUCPDDeadBattery+0x1c>)
 c004b2a:	f443 4380 	orr.w	r3, r3, #16384	; 0x4000
 c004b2e:	6093      	str	r3, [r2, #8]
}
 c004b30:	bf00      	nop
 c004b32:	46bd      	mov	sp, r7
 c004b34:	f85d 7b04 	ldr.w	r7, [sp], #4
 c004b38:	4770      	bx	lr
 c004b3a:	bf00      	nop
 c004b3c:	50007000 	.word	0x50007000

0c004b40 <HAL_PWREx_SMPS_GetEffectiveMode>:
  *         @arg @ref PWR_SMPS_HIGH_POWER    SMPS step down converter in high-power mode (default)
  *         @arg @ref PWR_SMPS_LOW_POWER     SMPS step down converter in low-power mode
  *         @arg @ref PWR_SMPS_BYPASS        SMPS step down converter in bypass mode
  */
uint32_t HAL_PWREx_SMPS_GetEffectiveMode(void)
{
 c004b40:	b480      	push	{r7}
 c004b42:	b083      	sub	sp, #12
 c004b44:	af00      	add	r7, sp, #0
  uint32_t mode;
  uint32_t pwr_sr1;

  pwr_sr1 = READ_REG(PWR->SR1);
 c004b46:	4b0f      	ldr	r3, [pc, #60]	; (c004b84 <HAL_PWREx_SMPS_GetEffectiveMode+0x44>)
 c004b48:	691b      	ldr	r3, [r3, #16]
 c004b4a:	603b      	str	r3, [r7, #0]
  if (READ_BIT(pwr_sr1, PWR_SR1_SMPSBYPRDY) != 0U)
 c004b4c:	683b      	ldr	r3, [r7, #0]
 c004b4e:	f403 5380 	and.w	r3, r3, #4096	; 0x1000
 c004b52:	2b00      	cmp	r3, #0
 c004b54:	d003      	beq.n	c004b5e <HAL_PWREx_SMPS_GetEffectiveMode+0x1e>
  {
    mode = PWR_SMPS_BYPASS;
 c004b56:	f44f 5380 	mov.w	r3, #4096	; 0x1000
 c004b5a:	607b      	str	r3, [r7, #4]
 c004b5c:	e00a      	b.n	c004b74 <HAL_PWREx_SMPS_GetEffectiveMode+0x34>
  }
  else if (READ_BIT(pwr_sr1, PWR_SR1_SMPSHPRDY) == 0U)
 c004b5e:	683b      	ldr	r3, [r7, #0]
 c004b60:	f403 4300 	and.w	r3, r3, #32768	; 0x8000
 c004b64:	2b00      	cmp	r3, #0
 c004b66:	d103      	bne.n	c004b70 <HAL_PWREx_SMPS_GetEffectiveMode+0x30>
  {
    mode = PWR_SMPS_LOW_POWER;
 c004b68:	f44f 4300 	mov.w	r3, #32768	; 0x8000
 c004b6c:	607b      	str	r3, [r7, #4]
 c004b6e:	e001      	b.n	c004b74 <HAL_PWREx_SMPS_GetEffectiveMode+0x34>
  }
  else
  {
    mode = PWR_SMPS_HIGH_POWER;
 c004b70:	2300      	movs	r3, #0
 c004b72:	607b      	str	r3, [r7, #4]
  }

  return mode;
 c004b74:	687b      	ldr	r3, [r7, #4]
}
 c004b76:	4618      	mov	r0, r3
 c004b78:	370c      	adds	r7, #12
 c004b7a:	46bd      	mov	sp, r7
 c004b7c:	f85d 7b04 	ldr.w	r7, [sp], #4
 c004b80:	4770      	bx	lr
 c004b82:	bf00      	nop
 c004b84:	50007000 	.word	0x50007000

0c004b88 <HAL_RCC_OscConfig>:
  *         and is updated by this function in case of simple MSI range update when MSI
  *         used as system clock.
  * @retval HAL status
  */
HAL_StatusTypeDef HAL_RCC_OscConfig(RCC_OscInitTypeDef  *RCC_OscInitStruct)
{
 c004b88:	b580      	push	{r7, lr}
 c004b8a:	b088      	sub	sp, #32
 c004b8c:	af00      	add	r7, sp, #0
 c004b8e:	6078      	str	r0, [r7, #4]
  uint32_t tickstart;
  HAL_StatusTypeDef status;
  uint32_t sysclk_source, pll_config;

  /* Check Null pointer */
  if (RCC_OscInitStruct == NULL)
 c004b90:	687b      	ldr	r3, [r7, #4]
 c004b92:	2b00      	cmp	r3, #0
 c004b94:	d102      	bne.n	c004b9c <HAL_RCC_OscConfig+0x14>
  {
    return HAL_ERROR;
 c004b96:	2301      	movs	r3, #1
 c004b98:	f000 bcd0 	b.w	c00553c <HAL_RCC_OscConfig+0x9b4>
  }

  /* Check the parameters */
  assert_param(IS_RCC_OSCILLATORTYPE(RCC_OscInitStruct->OscillatorType));

  sysclk_source = __HAL_RCC_GET_SYSCLK_SOURCE();
 c004b9c:	4b99      	ldr	r3, [pc, #612]	; (c004e04 <HAL_RCC_OscConfig+0x27c>)
 c004b9e:	689b      	ldr	r3, [r3, #8]
 c004ba0:	f003 030c 	and.w	r3, r3, #12
 c004ba4:	61bb      	str	r3, [r7, #24]
  pll_config = __HAL_RCC_GET_PLL_OSCSOURCE();
 c004ba6:	4b97      	ldr	r3, [pc, #604]	; (c004e04 <HAL_RCC_OscConfig+0x27c>)
 c004ba8:	68db      	ldr	r3, [r3, #12]
 c004baa:	f003 0303 	and.w	r3, r3, #3
 c004bae:	617b      	str	r3, [r7, #20]

  /*----------------------------- MSI Configuration --------------------------*/
  if (((RCC_OscInitStruct->OscillatorType) & RCC_OSCILLATORTYPE_MSI) == RCC_OSCILLATORTYPE_MSI)
 c004bb0:	687b      	ldr	r3, [r7, #4]
 c004bb2:	681b      	ldr	r3, [r3, #0]
 c004bb4:	f003 0310 	and.w	r3, r3, #16
 c004bb8:	2b00      	cmp	r3, #0
 c004bba:	f000 80e9 	beq.w	c004d90 <HAL_RCC_OscConfig+0x208>
    assert_param(IS_RCC_MSI(RCC_OscInitStruct->MSIState));
    assert_param(IS_RCC_MSICALIBRATION_VALUE(RCC_OscInitStruct->MSICalibrationValue));
    assert_param(IS_RCC_MSI_CLOCK_RANGE(RCC_OscInitStruct->MSIClockRange));

    /* Check if MSI is used as system clock or as PLL source when PLL is selected as system clock */
    if ((sysclk_source == RCC_SYSCLKSOURCE_STATUS_MSI) ||
 c004bbe:	69bb      	ldr	r3, [r7, #24]
 c004bc0:	2b00      	cmp	r3, #0
 c004bc2:	d006      	beq.n	c004bd2 <HAL_RCC_OscConfig+0x4a>
 c004bc4:	69bb      	ldr	r3, [r7, #24]
 c004bc6:	2b0c      	cmp	r3, #12
 c004bc8:	f040 8083 	bne.w	c004cd2 <HAL_RCC_OscConfig+0x14a>
        ((sysclk_source == RCC_SYSCLKSOURCE_STATUS_PLLCLK) && (pll_config == RCC_PLLSOURCE_MSI)))
 c004bcc:	697b      	ldr	r3, [r7, #20]
 c004bce:	2b01      	cmp	r3, #1
 c004bd0:	d17f      	bne.n	c004cd2 <HAL_RCC_OscConfig+0x14a>
    {
      if ((READ_BIT(RCC->CR, RCC_CR_MSIRDY) != 0U) && (RCC_OscInitStruct->MSIState == RCC_MSI_OFF))
 c004bd2:	4b8c      	ldr	r3, [pc, #560]	; (c004e04 <HAL_RCC_OscConfig+0x27c>)
 c004bd4:	681b      	ldr	r3, [r3, #0]
 c004bd6:	f003 0302 	and.w	r3, r3, #2
 c004bda:	2b00      	cmp	r3, #0
 c004bdc:	d006      	beq.n	c004bec <HAL_RCC_OscConfig+0x64>
 c004bde:	687b      	ldr	r3, [r7, #4]
 c004be0:	69db      	ldr	r3, [r3, #28]
 c004be2:	2b00      	cmp	r3, #0
 c004be4:	d102      	bne.n	c004bec <HAL_RCC_OscConfig+0x64>
      {
        return HAL_ERROR;
 c004be6:	2301      	movs	r3, #1
 c004be8:	f000 bca8 	b.w	c00553c <HAL_RCC_OscConfig+0x9b4>
      else
      {
        /* To correctly read data from FLASH memory, the number of wait states (LATENCY)
           must be correctly programmed according to the frequency of the CPU clock
           (HCLK) and the supply voltage of the device. */
        if (RCC_OscInitStruct->MSIClockRange > __HAL_RCC_GET_MSI_RANGE())
 c004bec:	687b      	ldr	r3, [r7, #4]
 c004bee:	6a5a      	ldr	r2, [r3, #36]	; 0x24
 c004bf0:	4b84      	ldr	r3, [pc, #528]	; (c004e04 <HAL_RCC_OscConfig+0x27c>)
 c004bf2:	681b      	ldr	r3, [r3, #0]
 c004bf4:	f003 0308 	and.w	r3, r3, #8
 c004bf8:	2b00      	cmp	r3, #0
 c004bfa:	d004      	beq.n	c004c06 <HAL_RCC_OscConfig+0x7e>
 c004bfc:	4b81      	ldr	r3, [pc, #516]	; (c004e04 <HAL_RCC_OscConfig+0x27c>)
 c004bfe:	681b      	ldr	r3, [r3, #0]
 c004c00:	f003 03f0 	and.w	r3, r3, #240	; 0xf0
 c004c04:	e005      	b.n	c004c12 <HAL_RCC_OscConfig+0x8a>
 c004c06:	4b7f      	ldr	r3, [pc, #508]	; (c004e04 <HAL_RCC_OscConfig+0x27c>)
 c004c08:	f8d3 3094 	ldr.w	r3, [r3, #148]	; 0x94
 c004c0c:	091b      	lsrs	r3, r3, #4
 c004c0e:	f003 03f0 	and.w	r3, r3, #240	; 0xf0
 c004c12:	4293      	cmp	r3, r2
 c004c14:	d224      	bcs.n	c004c60 <HAL_RCC_OscConfig+0xd8>
        {
          /* First increase number of wait states update if necessary */
          if (RCC_SetFlashLatencyFromMSIRange(RCC_OscInitStruct->MSIClockRange) != HAL_OK)
 c004c16:	687b      	ldr	r3, [r7, #4]
 c004c18:	6a5b      	ldr	r3, [r3, #36]	; 0x24
 c004c1a:	4618      	mov	r0, r3
 c004c1c:	f000 fe96 	bl	c00594c <RCC_SetFlashLatencyFromMSIRange>
 c004c20:	4603      	mov	r3, r0
 c004c22:	2b00      	cmp	r3, #0
 c004c24:	d002      	beq.n	c004c2c <HAL_RCC_OscConfig+0xa4>
          {
            return HAL_ERROR;
 c004c26:	2301      	movs	r3, #1
 c004c28:	f000 bc88 	b.w	c00553c <HAL_RCC_OscConfig+0x9b4>
          }

          /* Selects the Multiple Speed oscillator (MSI) clock range .*/
          __HAL_RCC_MSI_RANGE_CONFIG(RCC_OscInitStruct->MSIClockRange);
 c004c2c:	4b75      	ldr	r3, [pc, #468]	; (c004e04 <HAL_RCC_OscConfig+0x27c>)
 c004c2e:	681b      	ldr	r3, [r3, #0]
 c004c30:	4a74      	ldr	r2, [pc, #464]	; (c004e04 <HAL_RCC_OscConfig+0x27c>)
 c004c32:	f043 0308 	orr.w	r3, r3, #8
 c004c36:	6013      	str	r3, [r2, #0]
 c004c38:	4b72      	ldr	r3, [pc, #456]	; (c004e04 <HAL_RCC_OscConfig+0x27c>)
 c004c3a:	681b      	ldr	r3, [r3, #0]
 c004c3c:	f023 02f0 	bic.w	r2, r3, #240	; 0xf0
 c004c40:	687b      	ldr	r3, [r7, #4]
 c004c42:	6a5b      	ldr	r3, [r3, #36]	; 0x24
 c004c44:	496f      	ldr	r1, [pc, #444]	; (c004e04 <HAL_RCC_OscConfig+0x27c>)
 c004c46:	4313      	orrs	r3, r2
 c004c48:	600b      	str	r3, [r1, #0]
          /* Adjusts the Multiple Speed oscillator (MSI) calibration value.*/
          __HAL_RCC_MSI_CALIBRATIONVALUE_ADJUST(RCC_OscInitStruct->MSICalibrationValue);
 c004c4a:	4b6e      	ldr	r3, [pc, #440]	; (c004e04 <HAL_RCC_OscConfig+0x27c>)
 c004c4c:	685b      	ldr	r3, [r3, #4]
 c004c4e:	f423 427f 	bic.w	r2, r3, #65280	; 0xff00
 c004c52:	687b      	ldr	r3, [r7, #4]
 c004c54:	6a1b      	ldr	r3, [r3, #32]
 c004c56:	021b      	lsls	r3, r3, #8
 c004c58:	496a      	ldr	r1, [pc, #424]	; (c004e04 <HAL_RCC_OscConfig+0x27c>)
 c004c5a:	4313      	orrs	r3, r2
 c004c5c:	604b      	str	r3, [r1, #4]
 c004c5e:	e026      	b.n	c004cae <HAL_RCC_OscConfig+0x126>
        }
        else
        {
          /* Else, keep current flash latency while decreasing applies */
          /* Selects the Multiple Speed oscillator (MSI) clock range .*/
          __HAL_RCC_MSI_RANGE_CONFIG(RCC_OscInitStruct->MSIClockRange);
 c004c60:	4b68      	ldr	r3, [pc, #416]	; (c004e04 <HAL_RCC_OscConfig+0x27c>)
 c004c62:	681b      	ldr	r3, [r3, #0]
 c004c64:	4a67      	ldr	r2, [pc, #412]	; (c004e04 <HAL_RCC_OscConfig+0x27c>)
 c004c66:	f043 0308 	orr.w	r3, r3, #8
 c004c6a:	6013      	str	r3, [r2, #0]
 c004c6c:	4b65      	ldr	r3, [pc, #404]	; (c004e04 <HAL_RCC_OscConfig+0x27c>)
 c004c6e:	681b      	ldr	r3, [r3, #0]
 c004c70:	f023 02f0 	bic.w	r2, r3, #240	; 0xf0
 c004c74:	687b      	ldr	r3, [r7, #4]
 c004c76:	6a5b      	ldr	r3, [r3, #36]	; 0x24
 c004c78:	4962      	ldr	r1, [pc, #392]	; (c004e04 <HAL_RCC_OscConfig+0x27c>)
 c004c7a:	4313      	orrs	r3, r2
 c004c7c:	600b      	str	r3, [r1, #0]
          /* Adjusts the Multiple Speed oscillator (MSI) calibration value.*/
          __HAL_RCC_MSI_CALIBRATIONVALUE_ADJUST(RCC_OscInitStruct->MSICalibrationValue);
 c004c7e:	4b61      	ldr	r3, [pc, #388]	; (c004e04 <HAL_RCC_OscConfig+0x27c>)
 c004c80:	685b      	ldr	r3, [r3, #4]
 c004c82:	f423 427f 	bic.w	r2, r3, #65280	; 0xff00
 c004c86:	687b      	ldr	r3, [r7, #4]
 c004c88:	6a1b      	ldr	r3, [r3, #32]
 c004c8a:	021b      	lsls	r3, r3, #8
 c004c8c:	495d      	ldr	r1, [pc, #372]	; (c004e04 <HAL_RCC_OscConfig+0x27c>)
 c004c8e:	4313      	orrs	r3, r2
 c004c90:	604b      	str	r3, [r1, #4]

          /* Decrease number of wait states update if necessary */
          /* Only possible when MSI is the System clock source  */
          if (sysclk_source == RCC_SYSCLKSOURCE_STATUS_MSI)
 c004c92:	69bb      	ldr	r3, [r7, #24]
 c004c94:	2b00      	cmp	r3, #0
 c004c96:	d10a      	bne.n	c004cae <HAL_RCC_OscConfig+0x126>
          {
            if (RCC_SetFlashLatencyFromMSIRange(RCC_OscInitStruct->MSIClockRange) != HAL_OK)
 c004c98:	687b      	ldr	r3, [r7, #4]
 c004c9a:	6a5b      	ldr	r3, [r3, #36]	; 0x24
 c004c9c:	4618      	mov	r0, r3
 c004c9e:	f000 fe55 	bl	c00594c <RCC_SetFlashLatencyFromMSIRange>
 c004ca2:	4603      	mov	r3, r0
 c004ca4:	2b00      	cmp	r3, #0
 c004ca6:	d002      	beq.n	c004cae <HAL_RCC_OscConfig+0x126>
            {
              return HAL_ERROR;
 c004ca8:	2301      	movs	r3, #1
 c004caa:	f000 bc47 	b.w	c00553c <HAL_RCC_OscConfig+0x9b4>
            }
          }
        }

        /* Update the SystemCoreClock global variable */
        SystemCoreClock = HAL_RCC_GetHCLKFreq();
 c004cae:	f000 fe11 	bl	c0058d4 <HAL_RCC_GetHCLKFreq>
 c004cb2:	4603      	mov	r3, r0
 c004cb4:	4a54      	ldr	r2, [pc, #336]	; (c004e08 <HAL_RCC_OscConfig+0x280>)
 c004cb6:	6013      	str	r3, [r2, #0]

        /* Configure the source of time base considering new system clocks settings*/
        status = HAL_InitTick(uwTickPrio);
 c004cb8:	4b54      	ldr	r3, [pc, #336]	; (c004e0c <HAL_RCC_OscConfig+0x284>)
 c004cba:	681b      	ldr	r3, [r3, #0]
 c004cbc:	4618      	mov	r0, r3
 c004cbe:	f7fe ffbd 	bl	c003c3c <HAL_InitTick>
 c004cc2:	4603      	mov	r3, r0
 c004cc4:	73fb      	strb	r3, [r7, #15]
        if (status != HAL_OK)
 c004cc6:	7bfb      	ldrb	r3, [r7, #15]
 c004cc8:	2b00      	cmp	r3, #0
 c004cca:	d060      	beq.n	c004d8e <HAL_RCC_OscConfig+0x206>
        {
          return status;
 c004ccc:	7bfb      	ldrb	r3, [r7, #15]
 c004cce:	f000 bc35 	b.w	c00553c <HAL_RCC_OscConfig+0x9b4>
      }
    }
    else
    {
      /* Check the MSI State */
      if (RCC_OscInitStruct->MSIState != RCC_MSI_OFF)
 c004cd2:	687b      	ldr	r3, [r7, #4]
 c004cd4:	69db      	ldr	r3, [r3, #28]
 c004cd6:	2b00      	cmp	r3, #0
 c004cd8:	d039      	beq.n	c004d4e <HAL_RCC_OscConfig+0x1c6>
      {
        /* Enable the Internal High Speed oscillator (MSI). */
        __HAL_RCC_MSI_ENABLE();
 c004cda:	4b4a      	ldr	r3, [pc, #296]	; (c004e04 <HAL_RCC_OscConfig+0x27c>)
 c004cdc:	681b      	ldr	r3, [r3, #0]
 c004cde:	4a49      	ldr	r2, [pc, #292]	; (c004e04 <HAL_RCC_OscConfig+0x27c>)
 c004ce0:	f043 0301 	orr.w	r3, r3, #1
 c004ce4:	6013      	str	r3, [r2, #0]

        /* Get timeout */
        tickstart = HAL_GetTick();
 c004ce6:	f7fe fff9 	bl	c003cdc <HAL_GetTick>
 c004cea:	6138      	str	r0, [r7, #16]

        /* Wait till MSI is ready */
        while (READ_BIT(RCC->CR, RCC_CR_MSIRDY) == 0U)
 c004cec:	e00f      	b.n	c004d0e <HAL_RCC_OscConfig+0x186>
        {
          if ((HAL_GetTick() - tickstart) > MSI_TIMEOUT_VALUE)
 c004cee:	f7fe fff5 	bl	c003cdc <HAL_GetTick>
 c004cf2:	4602      	mov	r2, r0
 c004cf4:	693b      	ldr	r3, [r7, #16]
 c004cf6:	1ad3      	subs	r3, r2, r3
 c004cf8:	2b02      	cmp	r3, #2
 c004cfa:	d908      	bls.n	c004d0e <HAL_RCC_OscConfig+0x186>
          {
            /* New check to avoid false timeout detection in case of preemption */
            if (READ_BIT(RCC->CR, RCC_CR_MSIRDY) == 0U)
 c004cfc:	4b41      	ldr	r3, [pc, #260]	; (c004e04 <HAL_RCC_OscConfig+0x27c>)
 c004cfe:	681b      	ldr	r3, [r3, #0]
 c004d00:	f003 0302 	and.w	r3, r3, #2
 c004d04:	2b00      	cmp	r3, #0
 c004d06:	d102      	bne.n	c004d0e <HAL_RCC_OscConfig+0x186>
            {
              return HAL_TIMEOUT;
 c004d08:	2303      	movs	r3, #3
 c004d0a:	f000 bc17 	b.w	c00553c <HAL_RCC_OscConfig+0x9b4>
        while (READ_BIT(RCC->CR, RCC_CR_MSIRDY) == 0U)
 c004d0e:	4b3d      	ldr	r3, [pc, #244]	; (c004e04 <HAL_RCC_OscConfig+0x27c>)
 c004d10:	681b      	ldr	r3, [r3, #0]
 c004d12:	f003 0302 	and.w	r3, r3, #2
 c004d16:	2b00      	cmp	r3, #0
 c004d18:	d0e9      	beq.n	c004cee <HAL_RCC_OscConfig+0x166>
            }
          }
        }
        /* Selects the Multiple Speed oscillator (MSI) clock range .*/
        __HAL_RCC_MSI_RANGE_CONFIG(RCC_OscInitStruct->MSIClockRange);
 c004d1a:	4b3a      	ldr	r3, [pc, #232]	; (c004e04 <HAL_RCC_OscConfig+0x27c>)
 c004d1c:	681b      	ldr	r3, [r3, #0]
 c004d1e:	4a39      	ldr	r2, [pc, #228]	; (c004e04 <HAL_RCC_OscConfig+0x27c>)
 c004d20:	f043 0308 	orr.w	r3, r3, #8
 c004d24:	6013      	str	r3, [r2, #0]
 c004d26:	4b37      	ldr	r3, [pc, #220]	; (c004e04 <HAL_RCC_OscConfig+0x27c>)
 c004d28:	681b      	ldr	r3, [r3, #0]
 c004d2a:	f023 02f0 	bic.w	r2, r3, #240	; 0xf0
 c004d2e:	687b      	ldr	r3, [r7, #4]
 c004d30:	6a5b      	ldr	r3, [r3, #36]	; 0x24
 c004d32:	4934      	ldr	r1, [pc, #208]	; (c004e04 <HAL_RCC_OscConfig+0x27c>)
 c004d34:	4313      	orrs	r3, r2
 c004d36:	600b      	str	r3, [r1, #0]
        /* Adjusts the Multiple Speed oscillator (MSI) calibration value.*/
        __HAL_RCC_MSI_CALIBRATIONVALUE_ADJUST(RCC_OscInitStruct->MSICalibrationValue);
 c004d38:	4b32      	ldr	r3, [pc, #200]	; (c004e04 <HAL_RCC_OscConfig+0x27c>)
 c004d3a:	685b      	ldr	r3, [r3, #4]
 c004d3c:	f423 427f 	bic.w	r2, r3, #65280	; 0xff00
 c004d40:	687b      	ldr	r3, [r7, #4]
 c004d42:	6a1b      	ldr	r3, [r3, #32]
 c004d44:	021b      	lsls	r3, r3, #8
 c004d46:	492f      	ldr	r1, [pc, #188]	; (c004e04 <HAL_RCC_OscConfig+0x27c>)
 c004d48:	4313      	orrs	r3, r2
 c004d4a:	604b      	str	r3, [r1, #4]
 c004d4c:	e020      	b.n	c004d90 <HAL_RCC_OscConfig+0x208>

      }
      else
      {
        /* Disable the Internal High Speed oscillator (MSI). */
        __HAL_RCC_MSI_DISABLE();
 c004d4e:	4b2d      	ldr	r3, [pc, #180]	; (c004e04 <HAL_RCC_OscConfig+0x27c>)
 c004d50:	681b      	ldr	r3, [r3, #0]
 c004d52:	4a2c      	ldr	r2, [pc, #176]	; (c004e04 <HAL_RCC_OscConfig+0x27c>)
 c004d54:	f023 0301 	bic.w	r3, r3, #1
 c004d58:	6013      	str	r3, [r2, #0]

        /* Get timeout */
        tickstart = HAL_GetTick();
 c004d5a:	f7fe ffbf 	bl	c003cdc <HAL_GetTick>
 c004d5e:	6138      	str	r0, [r7, #16]

        /* Wait till MSI is ready */
        while (READ_BIT(RCC->CR, RCC_CR_MSIRDY) != 0U)
 c004d60:	e00e      	b.n	c004d80 <HAL_RCC_OscConfig+0x1f8>
        {
          if ((HAL_GetTick() - tickstart) > MSI_TIMEOUT_VALUE)
 c004d62:	f7fe ffbb 	bl	c003cdc <HAL_GetTick>
 c004d66:	4602      	mov	r2, r0
 c004d68:	693b      	ldr	r3, [r7, #16]
 c004d6a:	1ad3      	subs	r3, r2, r3
 c004d6c:	2b02      	cmp	r3, #2
 c004d6e:	d907      	bls.n	c004d80 <HAL_RCC_OscConfig+0x1f8>
          {
            /* New check to avoid false timeout detection in case of preemption */
            if (READ_BIT(RCC->CR, RCC_CR_MSIRDY) != 0U)
 c004d70:	4b24      	ldr	r3, [pc, #144]	; (c004e04 <HAL_RCC_OscConfig+0x27c>)
 c004d72:	681b      	ldr	r3, [r3, #0]
 c004d74:	f003 0302 	and.w	r3, r3, #2
 c004d78:	2b00      	cmp	r3, #0
 c004d7a:	d001      	beq.n	c004d80 <HAL_RCC_OscConfig+0x1f8>
            {
              return HAL_TIMEOUT;
 c004d7c:	2303      	movs	r3, #3
 c004d7e:	e3dd      	b.n	c00553c <HAL_RCC_OscConfig+0x9b4>
        while (READ_BIT(RCC->CR, RCC_CR_MSIRDY) != 0U)
 c004d80:	4b20      	ldr	r3, [pc, #128]	; (c004e04 <HAL_RCC_OscConfig+0x27c>)
 c004d82:	681b      	ldr	r3, [r3, #0]
 c004d84:	f003 0302 	and.w	r3, r3, #2
 c004d88:	2b00      	cmp	r3, #0
 c004d8a:	d1ea      	bne.n	c004d62 <HAL_RCC_OscConfig+0x1da>
 c004d8c:	e000      	b.n	c004d90 <HAL_RCC_OscConfig+0x208>
      if ((READ_BIT(RCC->CR, RCC_CR_MSIRDY) != 0U) && (RCC_OscInitStruct->MSIState == RCC_MSI_OFF))
 c004d8e:	bf00      	nop
        }
      }
    }
  }
  /*------------------------------- HSE Configuration ------------------------*/
  if (((RCC_OscInitStruct->OscillatorType) & RCC_OSCILLATORTYPE_HSE) == RCC_OSCILLATORTYPE_HSE)
 c004d90:	687b      	ldr	r3, [r7, #4]
 c004d92:	681b      	ldr	r3, [r3, #0]
 c004d94:	f003 0301 	and.w	r3, r3, #1
 c004d98:	2b00      	cmp	r3, #0
 c004d9a:	d07e      	beq.n	c004e9a <HAL_RCC_OscConfig+0x312>
  {
    /* Check the parameters */
    assert_param(IS_RCC_HSE(RCC_OscInitStruct->HSEState));

    /* When the HSE is used as system clock or clock source for PLL in these cases it is not allowed to be disabled */
    if ((sysclk_source == RCC_SYSCLKSOURCE_STATUS_HSE) ||
 c004d9c:	69bb      	ldr	r3, [r7, #24]
 c004d9e:	2b08      	cmp	r3, #8
 c004da0:	d005      	beq.n	c004dae <HAL_RCC_OscConfig+0x226>
 c004da2:	69bb      	ldr	r3, [r7, #24]
 c004da4:	2b0c      	cmp	r3, #12
 c004da6:	d10e      	bne.n	c004dc6 <HAL_RCC_OscConfig+0x23e>
        ((sysclk_source == RCC_SYSCLKSOURCE_STATUS_PLLCLK) && (pll_config == RCC_PLLSOURCE_HSE)))
 c004da8:	697b      	ldr	r3, [r7, #20]
 c004daa:	2b03      	cmp	r3, #3
 c004dac:	d10b      	bne.n	c004dc6 <HAL_RCC_OscConfig+0x23e>
    {
      if ((READ_BIT(RCC->CR, RCC_CR_HSERDY) != 0U) && (RCC_OscInitStruct->HSEState == RCC_HSE_OFF))
 c004dae:	4b15      	ldr	r3, [pc, #84]	; (c004e04 <HAL_RCC_OscConfig+0x27c>)
 c004db0:	681b      	ldr	r3, [r3, #0]
 c004db2:	f403 3300 	and.w	r3, r3, #131072	; 0x20000
 c004db6:	2b00      	cmp	r3, #0
 c004db8:	d06e      	beq.n	c004e98 <HAL_RCC_OscConfig+0x310>
 c004dba:	687b      	ldr	r3, [r7, #4]
 c004dbc:	685b      	ldr	r3, [r3, #4]
 c004dbe:	2b00      	cmp	r3, #0
 c004dc0:	d16a      	bne.n	c004e98 <HAL_RCC_OscConfig+0x310>
      {
        return HAL_ERROR;
 c004dc2:	2301      	movs	r3, #1
 c004dc4:	e3ba      	b.n	c00553c <HAL_RCC_OscConfig+0x9b4>
      }
    }
    else
    {
      /* Set the new HSE configuration ---------------------------------------*/
      __HAL_RCC_HSE_CONFIG(RCC_OscInitStruct->HSEState);
 c004dc6:	687b      	ldr	r3, [r7, #4]
 c004dc8:	685b      	ldr	r3, [r3, #4]
 c004dca:	f5b3 3f80 	cmp.w	r3, #65536	; 0x10000
 c004dce:	d106      	bne.n	c004dde <HAL_RCC_OscConfig+0x256>
 c004dd0:	4b0c      	ldr	r3, [pc, #48]	; (c004e04 <HAL_RCC_OscConfig+0x27c>)
 c004dd2:	681b      	ldr	r3, [r3, #0]
 c004dd4:	4a0b      	ldr	r2, [pc, #44]	; (c004e04 <HAL_RCC_OscConfig+0x27c>)
 c004dd6:	f443 3380 	orr.w	r3, r3, #65536	; 0x10000
 c004dda:	6013      	str	r3, [r2, #0]
 c004ddc:	e024      	b.n	c004e28 <HAL_RCC_OscConfig+0x2a0>
 c004dde:	687b      	ldr	r3, [r7, #4]
 c004de0:	685b      	ldr	r3, [r3, #4]
 c004de2:	f5b3 2fa0 	cmp.w	r3, #327680	; 0x50000
 c004de6:	d113      	bne.n	c004e10 <HAL_RCC_OscConfig+0x288>
 c004de8:	4b06      	ldr	r3, [pc, #24]	; (c004e04 <HAL_RCC_OscConfig+0x27c>)
 c004dea:	681b      	ldr	r3, [r3, #0]
 c004dec:	4a05      	ldr	r2, [pc, #20]	; (c004e04 <HAL_RCC_OscConfig+0x27c>)
 c004dee:	f443 2380 	orr.w	r3, r3, #262144	; 0x40000
 c004df2:	6013      	str	r3, [r2, #0]
 c004df4:	4b03      	ldr	r3, [pc, #12]	; (c004e04 <HAL_RCC_OscConfig+0x27c>)
 c004df6:	681b      	ldr	r3, [r3, #0]
 c004df8:	4a02      	ldr	r2, [pc, #8]	; (c004e04 <HAL_RCC_OscConfig+0x27c>)
 c004dfa:	f443 3380 	orr.w	r3, r3, #65536	; 0x10000
 c004dfe:	6013      	str	r3, [r2, #0]
 c004e00:	e012      	b.n	c004e28 <HAL_RCC_OscConfig+0x2a0>
 c004e02:	bf00      	nop
 c004e04:	50021000 	.word	0x50021000
 c004e08:	30000028 	.word	0x30000028
 c004e0c:	3000002c 	.word	0x3000002c
 c004e10:	4b8b      	ldr	r3, [pc, #556]	; (c005040 <HAL_RCC_OscConfig+0x4b8>)
 c004e12:	681b      	ldr	r3, [r3, #0]
 c004e14:	4a8a      	ldr	r2, [pc, #552]	; (c005040 <HAL_RCC_OscConfig+0x4b8>)
 c004e16:	f423 3380 	bic.w	r3, r3, #65536	; 0x10000
 c004e1a:	6013      	str	r3, [r2, #0]
 c004e1c:	4b88      	ldr	r3, [pc, #544]	; (c005040 <HAL_RCC_OscConfig+0x4b8>)
 c004e1e:	681b      	ldr	r3, [r3, #0]
 c004e20:	4a87      	ldr	r2, [pc, #540]	; (c005040 <HAL_RCC_OscConfig+0x4b8>)
 c004e22:	f423 2380 	bic.w	r3, r3, #262144	; 0x40000
 c004e26:	6013      	str	r3, [r2, #0]

      /* Check the HSE State */
      if (RCC_OscInitStruct->HSEState != RCC_HSE_OFF)
 c004e28:	687b      	ldr	r3, [r7, #4]
 c004e2a:	685b      	ldr	r3, [r3, #4]
 c004e2c:	2b00      	cmp	r3, #0
 c004e2e:	d019      	beq.n	c004e64 <HAL_RCC_OscConfig+0x2dc>
      {
        /* Get Start Tick*/
        tickstart = HAL_GetTick();
 c004e30:	f7fe ff54 	bl	c003cdc <HAL_GetTick>
 c004e34:	6138      	str	r0, [r7, #16]

        /* Wait till HSE is ready */
        while (READ_BIT(RCC->CR, RCC_CR_HSERDY) == 0U)
 c004e36:	e00e      	b.n	c004e56 <HAL_RCC_OscConfig+0x2ce>
        {
          if ((HAL_GetTick() - tickstart) > HSE_TIMEOUT_VALUE)
 c004e38:	f7fe ff50 	bl	c003cdc <HAL_GetTick>
 c004e3c:	4602      	mov	r2, r0
 c004e3e:	693b      	ldr	r3, [r7, #16]
 c004e40:	1ad3      	subs	r3, r2, r3
 c004e42:	2b64      	cmp	r3, #100	; 0x64
 c004e44:	d907      	bls.n	c004e56 <HAL_RCC_OscConfig+0x2ce>
          {
            /* New check to avoid false timeout detection in case of preemption */
            if (READ_BIT(RCC->CR, RCC_CR_HSERDY) == 0U)
 c004e46:	4b7e      	ldr	r3, [pc, #504]	; (c005040 <HAL_RCC_OscConfig+0x4b8>)
 c004e48:	681b      	ldr	r3, [r3, #0]
 c004e4a:	f403 3300 	and.w	r3, r3, #131072	; 0x20000
 c004e4e:	2b00      	cmp	r3, #0
 c004e50:	d101      	bne.n	c004e56 <HAL_RCC_OscConfig+0x2ce>
            {
              return HAL_TIMEOUT;
 c004e52:	2303      	movs	r3, #3
 c004e54:	e372      	b.n	c00553c <HAL_RCC_OscConfig+0x9b4>
        while (READ_BIT(RCC->CR, RCC_CR_HSERDY) == 0U)
 c004e56:	4b7a      	ldr	r3, [pc, #488]	; (c005040 <HAL_RCC_OscConfig+0x4b8>)
 c004e58:	681b      	ldr	r3, [r3, #0]
 c004e5a:	f403 3300 	and.w	r3, r3, #131072	; 0x20000
 c004e5e:	2b00      	cmp	r3, #0
 c004e60:	d0ea      	beq.n	c004e38 <HAL_RCC_OscConfig+0x2b0>
 c004e62:	e01a      	b.n	c004e9a <HAL_RCC_OscConfig+0x312>
        }
      }
      else
      {
        /* Get Start Tick*/
        tickstart = HAL_GetTick();
 c004e64:	f7fe ff3a 	bl	c003cdc <HAL_GetTick>
 c004e68:	6138      	str	r0, [r7, #16]

        /* Wait till HSE is disabled */
        while (READ_BIT(RCC->CR, RCC_CR_HSERDY) != 0U)
 c004e6a:	e00e      	b.n	c004e8a <HAL_RCC_OscConfig+0x302>
        {
          if ((HAL_GetTick() - tickstart) > HSE_TIMEOUT_VALUE)
 c004e6c:	f7fe ff36 	bl	c003cdc <HAL_GetTick>
 c004e70:	4602      	mov	r2, r0
 c004e72:	693b      	ldr	r3, [r7, #16]
 c004e74:	1ad3      	subs	r3, r2, r3
 c004e76:	2b64      	cmp	r3, #100	; 0x64
 c004e78:	d907      	bls.n	c004e8a <HAL_RCC_OscConfig+0x302>
          {
            /* New check to avoid false timeout detection in case of preemption */
            if (READ_BIT(RCC->CR, RCC_CR_HSERDY) != 0U)
 c004e7a:	4b71      	ldr	r3, [pc, #452]	; (c005040 <HAL_RCC_OscConfig+0x4b8>)
 c004e7c:	681b      	ldr	r3, [r3, #0]
 c004e7e:	f403 3300 	and.w	r3, r3, #131072	; 0x20000
 c004e82:	2b00      	cmp	r3, #0
 c004e84:	d001      	beq.n	c004e8a <HAL_RCC_OscConfig+0x302>
            {
              return HAL_TIMEOUT;
 c004e86:	2303      	movs	r3, #3
 c004e88:	e358      	b.n	c00553c <HAL_RCC_OscConfig+0x9b4>
        while (READ_BIT(RCC->CR, RCC_CR_HSERDY) != 0U)
 c004e8a:	4b6d      	ldr	r3, [pc, #436]	; (c005040 <HAL_RCC_OscConfig+0x4b8>)
 c004e8c:	681b      	ldr	r3, [r3, #0]
 c004e8e:	f403 3300 	and.w	r3, r3, #131072	; 0x20000
 c004e92:	2b00      	cmp	r3, #0
 c004e94:	d1ea      	bne.n	c004e6c <HAL_RCC_OscConfig+0x2e4>
 c004e96:	e000      	b.n	c004e9a <HAL_RCC_OscConfig+0x312>
      if ((READ_BIT(RCC->CR, RCC_CR_HSERDY) != 0U) && (RCC_OscInitStruct->HSEState == RCC_HSE_OFF))
 c004e98:	bf00      	nop
        }
      }
    }
  }
  /*----------------------------- HSI Configuration --------------------------*/
  if (((RCC_OscInitStruct->OscillatorType) & RCC_OSCILLATORTYPE_HSI) == RCC_OSCILLATORTYPE_HSI)
 c004e9a:	687b      	ldr	r3, [r7, #4]
 c004e9c:	681b      	ldr	r3, [r3, #0]
 c004e9e:	f003 0302 	and.w	r3, r3, #2
 c004ea2:	2b00      	cmp	r3, #0
 c004ea4:	d06c      	beq.n	c004f80 <HAL_RCC_OscConfig+0x3f8>
    /* Check the parameters */
    assert_param(IS_RCC_HSI(RCC_OscInitStruct->HSIState));
    assert_param(IS_RCC_HSI_CALIBRATION_VALUE(RCC_OscInitStruct->HSICalibrationValue));

    /* Check if HSI is used as system clock or as PLL source when PLL is selected as system clock */
    if ((sysclk_source == RCC_SYSCLKSOURCE_STATUS_HSI) ||
 c004ea6:	69bb      	ldr	r3, [r7, #24]
 c004ea8:	2b04      	cmp	r3, #4
 c004eaa:	d005      	beq.n	c004eb8 <HAL_RCC_OscConfig+0x330>
 c004eac:	69bb      	ldr	r3, [r7, #24]
 c004eae:	2b0c      	cmp	r3, #12
 c004eb0:	d119      	bne.n	c004ee6 <HAL_RCC_OscConfig+0x35e>
        ((sysclk_source == RCC_SYSCLKSOURCE_STATUS_PLLCLK) && (pll_config == RCC_PLLSOURCE_HSI)))
 c004eb2:	697b      	ldr	r3, [r7, #20]
 c004eb4:	2b02      	cmp	r3, #2
 c004eb6:	d116      	bne.n	c004ee6 <HAL_RCC_OscConfig+0x35e>
    {
      /* When HSI is used as system clock it will not be disabled */
      if ((READ_BIT(RCC->CR, RCC_CR_HSIRDY) != 0U) && (RCC_OscInitStruct->HSIState == RCC_HSI_OFF))
 c004eb8:	4b61      	ldr	r3, [pc, #388]	; (c005040 <HAL_RCC_OscConfig+0x4b8>)
 c004eba:	681b      	ldr	r3, [r3, #0]
 c004ebc:	f403 6380 	and.w	r3, r3, #1024	; 0x400
 c004ec0:	2b00      	cmp	r3, #0
 c004ec2:	d005      	beq.n	c004ed0 <HAL_RCC_OscConfig+0x348>
 c004ec4:	687b      	ldr	r3, [r7, #4]
 c004ec6:	68db      	ldr	r3, [r3, #12]
 c004ec8:	2b00      	cmp	r3, #0
 c004eca:	d101      	bne.n	c004ed0 <HAL_RCC_OscConfig+0x348>
      {
        return HAL_ERROR;
 c004ecc:	2301      	movs	r3, #1
 c004ece:	e335      	b.n	c00553c <HAL_RCC_OscConfig+0x9b4>
      }
      /* Otherwise, just the calibration is allowed */
      else
      {
        /* Adjusts the Internal High Speed oscillator (HSI) calibration value.*/
        __HAL_RCC_HSI_CALIBRATIONVALUE_ADJUST(RCC_OscInitStruct->HSICalibrationValue);
 c004ed0:	4b5b      	ldr	r3, [pc, #364]	; (c005040 <HAL_RCC_OscConfig+0x4b8>)
 c004ed2:	685b      	ldr	r3, [r3, #4]
 c004ed4:	f023 42fe 	bic.w	r2, r3, #2130706432	; 0x7f000000
 c004ed8:	687b      	ldr	r3, [r7, #4]
 c004eda:	691b      	ldr	r3, [r3, #16]
 c004edc:	061b      	lsls	r3, r3, #24
 c004ede:	4958      	ldr	r1, [pc, #352]	; (c005040 <HAL_RCC_OscConfig+0x4b8>)
 c004ee0:	4313      	orrs	r3, r2
 c004ee2:	604b      	str	r3, [r1, #4]
      if ((READ_BIT(RCC->CR, RCC_CR_HSIRDY) != 0U) && (RCC_OscInitStruct->HSIState == RCC_HSI_OFF))
 c004ee4:	e04c      	b.n	c004f80 <HAL_RCC_OscConfig+0x3f8>
      }
    }
    else
    {
      /* Check the HSI State */
      if (RCC_OscInitStruct->HSIState != RCC_HSI_OFF)
 c004ee6:	687b      	ldr	r3, [r7, #4]
 c004ee8:	68db      	ldr	r3, [r3, #12]
 c004eea:	2b00      	cmp	r3, #0
 c004eec:	d029      	beq.n	c004f42 <HAL_RCC_OscConfig+0x3ba>
      {
        /* Enable the Internal High Speed oscillator (HSI). */
        __HAL_RCC_HSI_ENABLE();
 c004eee:	4b54      	ldr	r3, [pc, #336]	; (c005040 <HAL_RCC_OscConfig+0x4b8>)
 c004ef0:	681b      	ldr	r3, [r3, #0]
 c004ef2:	4a53      	ldr	r2, [pc, #332]	; (c005040 <HAL_RCC_OscConfig+0x4b8>)
 c004ef4:	f443 7380 	orr.w	r3, r3, #256	; 0x100
 c004ef8:	6013      	str	r3, [r2, #0]

        /* Get Start Tick*/
        tickstart = HAL_GetTick();
 c004efa:	f7fe feef 	bl	c003cdc <HAL_GetTick>
 c004efe:	6138      	str	r0, [r7, #16]

        /* Wait till HSI is ready */
        while (READ_BIT(RCC->CR, RCC_CR_HSIRDY) == 0U)
 c004f00:	e00e      	b.n	c004f20 <HAL_RCC_OscConfig+0x398>
        {
          if ((HAL_GetTick() - tickstart) > HSI_TIMEOUT_VALUE)
 c004f02:	f7fe feeb 	bl	c003cdc <HAL_GetTick>
 c004f06:	4602      	mov	r2, r0
 c004f08:	693b      	ldr	r3, [r7, #16]
 c004f0a:	1ad3      	subs	r3, r2, r3
 c004f0c:	2b02      	cmp	r3, #2
 c004f0e:	d907      	bls.n	c004f20 <HAL_RCC_OscConfig+0x398>
          {
            /* New check to avoid false timeout detection in case of preemption */
            if (READ_BIT(RCC->CR, RCC_CR_HSIRDY) == 0U)
 c004f10:	4b4b      	ldr	r3, [pc, #300]	; (c005040 <HAL_RCC_OscConfig+0x4b8>)
 c004f12:	681b      	ldr	r3, [r3, #0]
 c004f14:	f403 6380 	and.w	r3, r3, #1024	; 0x400
 c004f18:	2b00      	cmp	r3, #0
 c004f1a:	d101      	bne.n	c004f20 <HAL_RCC_OscConfig+0x398>
            {
              return HAL_TIMEOUT;
 c004f1c:	2303      	movs	r3, #3
 c004f1e:	e30d      	b.n	c00553c <HAL_RCC_OscConfig+0x9b4>
        while (READ_BIT(RCC->CR, RCC_CR_HSIRDY) == 0U)
 c004f20:	4b47      	ldr	r3, [pc, #284]	; (c005040 <HAL_RCC_OscConfig+0x4b8>)
 c004f22:	681b      	ldr	r3, [r3, #0]
 c004f24:	f403 6380 	and.w	r3, r3, #1024	; 0x400
 c004f28:	2b00      	cmp	r3, #0
 c004f2a:	d0ea      	beq.n	c004f02 <HAL_RCC_OscConfig+0x37a>
            }
          }
        }

        /* Adjusts the Internal High Speed oscillator (HSI) calibration value.*/
        __HAL_RCC_HSI_CALIBRATIONVALUE_ADJUST(RCC_OscInitStruct->HSICalibrationValue);
 c004f2c:	4b44      	ldr	r3, [pc, #272]	; (c005040 <HAL_RCC_OscConfig+0x4b8>)
 c004f2e:	685b      	ldr	r3, [r3, #4]
 c004f30:	f023 42fe 	bic.w	r2, r3, #2130706432	; 0x7f000000
 c004f34:	687b      	ldr	r3, [r7, #4]
 c004f36:	691b      	ldr	r3, [r3, #16]
 c004f38:	061b      	lsls	r3, r3, #24
 c004f3a:	4941      	ldr	r1, [pc, #260]	; (c005040 <HAL_RCC_OscConfig+0x4b8>)
 c004f3c:	4313      	orrs	r3, r2
 c004f3e:	604b      	str	r3, [r1, #4]
 c004f40:	e01e      	b.n	c004f80 <HAL_RCC_OscConfig+0x3f8>
      }
      else
      {
        /* Disable the Internal High Speed oscillator (HSI). */
        __HAL_RCC_HSI_DISABLE();
 c004f42:	4b3f      	ldr	r3, [pc, #252]	; (c005040 <HAL_RCC_OscConfig+0x4b8>)
 c004f44:	681b      	ldr	r3, [r3, #0]
 c004f46:	4a3e      	ldr	r2, [pc, #248]	; (c005040 <HAL_RCC_OscConfig+0x4b8>)
 c004f48:	f423 7380 	bic.w	r3, r3, #256	; 0x100
 c004f4c:	6013      	str	r3, [r2, #0]

        /* Get Start Tick*/
        tickstart = HAL_GetTick();
 c004f4e:	f7fe fec5 	bl	c003cdc <HAL_GetTick>
 c004f52:	6138      	str	r0, [r7, #16]

        /* Wait till HSI is disabled */
        while (READ_BIT(RCC->CR, RCC_CR_HSIRDY) != 0U)
 c004f54:	e00e      	b.n	c004f74 <HAL_RCC_OscConfig+0x3ec>
        {
          if ((HAL_GetTick() - tickstart) > HSI_TIMEOUT_VALUE)
 c004f56:	f7fe fec1 	bl	c003cdc <HAL_GetTick>
 c004f5a:	4602      	mov	r2, r0
 c004f5c:	693b      	ldr	r3, [r7, #16]
 c004f5e:	1ad3      	subs	r3, r2, r3
 c004f60:	2b02      	cmp	r3, #2
 c004f62:	d907      	bls.n	c004f74 <HAL_RCC_OscConfig+0x3ec>
          {
            /* New check to avoid false timeout detection in case of preemption */
            if (READ_BIT(RCC->CR, RCC_CR_HSIRDY) != 0U)
 c004f64:	4b36      	ldr	r3, [pc, #216]	; (c005040 <HAL_RCC_OscConfig+0x4b8>)
 c004f66:	681b      	ldr	r3, [r3, #0]
 c004f68:	f403 6380 	and.w	r3, r3, #1024	; 0x400
 c004f6c:	2b00      	cmp	r3, #0
 c004f6e:	d001      	beq.n	c004f74 <HAL_RCC_OscConfig+0x3ec>
            {
              return HAL_TIMEOUT;
 c004f70:	2303      	movs	r3, #3
 c004f72:	e2e3      	b.n	c00553c <HAL_RCC_OscConfig+0x9b4>
        while (READ_BIT(RCC->CR, RCC_CR_HSIRDY) != 0U)
 c004f74:	4b32      	ldr	r3, [pc, #200]	; (c005040 <HAL_RCC_OscConfig+0x4b8>)
 c004f76:	681b      	ldr	r3, [r3, #0]
 c004f78:	f403 6380 	and.w	r3, r3, #1024	; 0x400
 c004f7c:	2b00      	cmp	r3, #0
 c004f7e:	d1ea      	bne.n	c004f56 <HAL_RCC_OscConfig+0x3ce>
        }
      }
    }
  }
  /*------------------------------ LSI Configuration -------------------------*/
  if (((RCC_OscInitStruct->OscillatorType) & RCC_OSCILLATORTYPE_LSI) == RCC_OSCILLATORTYPE_LSI)
 c004f80:	687b      	ldr	r3, [r7, #4]
 c004f82:	681b      	ldr	r3, [r3, #0]
 c004f84:	f003 0308 	and.w	r3, r3, #8
 c004f88:	2b00      	cmp	r3, #0
 c004f8a:	d062      	beq.n	c005052 <HAL_RCC_OscConfig+0x4ca>
  {
    /* Check the parameters */
    assert_param(IS_RCC_LSI(RCC_OscInitStruct->LSIState));

    /* Check the LSI State */
    if (RCC_OscInitStruct->LSIState != RCC_LSI_OFF)
 c004f8c:	687b      	ldr	r3, [r7, #4]
 c004f8e:	695b      	ldr	r3, [r3, #20]
 c004f90:	2b00      	cmp	r3, #0
 c004f92:	d038      	beq.n	c005006 <HAL_RCC_OscConfig+0x47e>
    {
      /* Apply prescaler value */
      if (RCC_OscInitStruct->LSIDiv == RCC_LSI_DIV1)
 c004f94:	687b      	ldr	r3, [r7, #4]
 c004f96:	699b      	ldr	r3, [r3, #24]
 c004f98:	2b00      	cmp	r3, #0
 c004f9a:	d108      	bne.n	c004fae <HAL_RCC_OscConfig+0x426>
      {
        CLEAR_BIT(RCC->CSR, RCC_CSR_LSIPRE);
 c004f9c:	4b28      	ldr	r3, [pc, #160]	; (c005040 <HAL_RCC_OscConfig+0x4b8>)
 c004f9e:	f8d3 3094 	ldr.w	r3, [r3, #148]	; 0x94
 c004fa2:	4a27      	ldr	r2, [pc, #156]	; (c005040 <HAL_RCC_OscConfig+0x4b8>)
 c004fa4:	f023 0310 	bic.w	r3, r3, #16
 c004fa8:	f8c2 3094 	str.w	r3, [r2, #148]	; 0x94
 c004fac:	e007      	b.n	c004fbe <HAL_RCC_OscConfig+0x436>
      }
      else
      {
        SET_BIT(RCC->CSR, RCC_CSR_LSIPRE);
 c004fae:	4b24      	ldr	r3, [pc, #144]	; (c005040 <HAL_RCC_OscConfig+0x4b8>)
 c004fb0:	f8d3 3094 	ldr.w	r3, [r3, #148]	; 0x94
 c004fb4:	4a22      	ldr	r2, [pc, #136]	; (c005040 <HAL_RCC_OscConfig+0x4b8>)
 c004fb6:	f043 0310 	orr.w	r3, r3, #16
 c004fba:	f8c2 3094 	str.w	r3, [r2, #148]	; 0x94
      }

      /* Enable the Internal Low Speed oscillator (LSI). */
      __HAL_RCC_LSI_ENABLE();
 c004fbe:	4b20      	ldr	r3, [pc, #128]	; (c005040 <HAL_RCC_OscConfig+0x4b8>)
 c004fc0:	f8d3 3094 	ldr.w	r3, [r3, #148]	; 0x94
 c004fc4:	4a1e      	ldr	r2, [pc, #120]	; (c005040 <HAL_RCC_OscConfig+0x4b8>)
 c004fc6:	f043 0301 	orr.w	r3, r3, #1
 c004fca:	f8c2 3094 	str.w	r3, [r2, #148]	; 0x94

      /* Get Start Tick*/
      tickstart = HAL_GetTick();
 c004fce:	f7fe fe85 	bl	c003cdc <HAL_GetTick>
 c004fd2:	6138      	str	r0, [r7, #16]

      /* Wait till LSI is ready */
      while (READ_BIT(RCC->CSR, RCC_CSR_LSIRDY) == 0U)
 c004fd4:	e00f      	b.n	c004ff6 <HAL_RCC_OscConfig+0x46e>
      {
        if ((HAL_GetTick() - tickstart) > LSI_TIMEOUT_VALUE)
 c004fd6:	f7fe fe81 	bl	c003cdc <HAL_GetTick>
 c004fda:	4602      	mov	r2, r0
 c004fdc:	693b      	ldr	r3, [r7, #16]
 c004fde:	1ad3      	subs	r3, r2, r3
 c004fe0:	2b07      	cmp	r3, #7
 c004fe2:	d908      	bls.n	c004ff6 <HAL_RCC_OscConfig+0x46e>
        {
          /* New check to avoid false timeout detection in case of preemption */
          if (READ_BIT(RCC->CSR, RCC_CSR_LSIRDY) == 0U)
 c004fe4:	4b16      	ldr	r3, [pc, #88]	; (c005040 <HAL_RCC_OscConfig+0x4b8>)
 c004fe6:	f8d3 3094 	ldr.w	r3, [r3, #148]	; 0x94
 c004fea:	f003 0302 	and.w	r3, r3, #2
 c004fee:	2b00      	cmp	r3, #0
 c004ff0:	d101      	bne.n	c004ff6 <HAL_RCC_OscConfig+0x46e>
          {
            return HAL_TIMEOUT;
 c004ff2:	2303      	movs	r3, #3
 c004ff4:	e2a2      	b.n	c00553c <HAL_RCC_OscConfig+0x9b4>
      while (READ_BIT(RCC->CSR, RCC_CSR_LSIRDY) == 0U)
 c004ff6:	4b12      	ldr	r3, [pc, #72]	; (c005040 <HAL_RCC_OscConfig+0x4b8>)
 c004ff8:	f8d3 3094 	ldr.w	r3, [r3, #148]	; 0x94
 c004ffc:	f003 0302 	and.w	r3, r3, #2
 c005000:	2b00      	cmp	r3, #0
 c005002:	d0e8      	beq.n	c004fd6 <HAL_RCC_OscConfig+0x44e>
 c005004:	e025      	b.n	c005052 <HAL_RCC_OscConfig+0x4ca>
      }
    }
    else
    {
      /* Disable the Internal Low Speed oscillator (LSI). */
      __HAL_RCC_LSI_DISABLE();
 c005006:	4b0e      	ldr	r3, [pc, #56]	; (c005040 <HAL_RCC_OscConfig+0x4b8>)
 c005008:	f8d3 3094 	ldr.w	r3, [r3, #148]	; 0x94
 c00500c:	4a0c      	ldr	r2, [pc, #48]	; (c005040 <HAL_RCC_OscConfig+0x4b8>)
 c00500e:	f023 0301 	bic.w	r3, r3, #1
 c005012:	f8c2 3094 	str.w	r3, [r2, #148]	; 0x94

      /* Get Start Tick*/
      tickstart = HAL_GetTick();
 c005016:	f7fe fe61 	bl	c003cdc <HAL_GetTick>
 c00501a:	6138      	str	r0, [r7, #16]

      /* Wait till LSI is disabled */
      while (READ_BIT(RCC->CSR, RCC_CSR_LSIRDY) != 0U)
 c00501c:	e012      	b.n	c005044 <HAL_RCC_OscConfig+0x4bc>
      {
        if ((HAL_GetTick() - tickstart) > LSI_TIMEOUT_VALUE)
 c00501e:	f7fe fe5d 	bl	c003cdc <HAL_GetTick>
 c005022:	4602      	mov	r2, r0
 c005024:	693b      	ldr	r3, [r7, #16]
 c005026:	1ad3      	subs	r3, r2, r3
 c005028:	2b07      	cmp	r3, #7
 c00502a:	d90b      	bls.n	c005044 <HAL_RCC_OscConfig+0x4bc>
        {
          /* New check to avoid false timeout detection in case of preemption */
          if (READ_BIT(RCC->CSR, RCC_CSR_LSIRDY) != 0U)
 c00502c:	4b04      	ldr	r3, [pc, #16]	; (c005040 <HAL_RCC_OscConfig+0x4b8>)
 c00502e:	f8d3 3094 	ldr.w	r3, [r3, #148]	; 0x94
 c005032:	f003 0302 	and.w	r3, r3, #2
 c005036:	2b00      	cmp	r3, #0
 c005038:	d004      	beq.n	c005044 <HAL_RCC_OscConfig+0x4bc>
          {
            return HAL_TIMEOUT;
 c00503a:	2303      	movs	r3, #3
 c00503c:	e27e      	b.n	c00553c <HAL_RCC_OscConfig+0x9b4>
 c00503e:	bf00      	nop
 c005040:	50021000 	.word	0x50021000
      while (READ_BIT(RCC->CSR, RCC_CSR_LSIRDY) != 0U)
 c005044:	4ba8      	ldr	r3, [pc, #672]	; (c0052e8 <HAL_RCC_OscConfig+0x760>)
 c005046:	f8d3 3094 	ldr.w	r3, [r3, #148]	; 0x94
 c00504a:	f003 0302 	and.w	r3, r3, #2
 c00504e:	2b00      	cmp	r3, #0
 c005050:	d1e5      	bne.n	c00501e <HAL_RCC_OscConfig+0x496>
        }
      }
    }
  }
  /*------------------------------ LSE Configuration -------------------------*/
  if (((RCC_OscInitStruct->OscillatorType) & RCC_OSCILLATORTYPE_LSE) == RCC_OSCILLATORTYPE_LSE)
 c005052:	687b      	ldr	r3, [r7, #4]
 c005054:	681b      	ldr	r3, [r3, #0]
 c005056:	f003 0304 	and.w	r3, r3, #4
 c00505a:	2b00      	cmp	r3, #0
 c00505c:	f000 812d 	beq.w	c0052ba <HAL_RCC_OscConfig+0x732>
  {
    FlagStatus       pwrclkchanged = RESET;
 c005060:	2300      	movs	r3, #0
 c005062:	77fb      	strb	r3, [r7, #31]
    /* Check the parameters */
    assert_param(IS_RCC_LSE(RCC_OscInitStruct->LSEState));

    /* Update LSE configuration in Backup Domain control register    */
    /* Requires to enable write access to Backup Domain of necessary */
    if (HAL_IS_BIT_CLR(RCC->APB1ENR1, RCC_APB1ENR1_PWREN))
 c005064:	4ba0      	ldr	r3, [pc, #640]	; (c0052e8 <HAL_RCC_OscConfig+0x760>)
 c005066:	6d9b      	ldr	r3, [r3, #88]	; 0x58
 c005068:	f003 5380 	and.w	r3, r3, #268435456	; 0x10000000
 c00506c:	2b00      	cmp	r3, #0
 c00506e:	d10d      	bne.n	c00508c <HAL_RCC_OscConfig+0x504>
    {
      __HAL_RCC_PWR_CLK_ENABLE();
 c005070:	4b9d      	ldr	r3, [pc, #628]	; (c0052e8 <HAL_RCC_OscConfig+0x760>)
 c005072:	6d9b      	ldr	r3, [r3, #88]	; 0x58
 c005074:	4a9c      	ldr	r2, [pc, #624]	; (c0052e8 <HAL_RCC_OscConfig+0x760>)
 c005076:	f043 5380 	orr.w	r3, r3, #268435456	; 0x10000000
 c00507a:	6593      	str	r3, [r2, #88]	; 0x58
 c00507c:	4b9a      	ldr	r3, [pc, #616]	; (c0052e8 <HAL_RCC_OscConfig+0x760>)
 c00507e:	6d9b      	ldr	r3, [r3, #88]	; 0x58
 c005080:	f003 5380 	and.w	r3, r3, #268435456	; 0x10000000
 c005084:	60bb      	str	r3, [r7, #8]
 c005086:	68bb      	ldr	r3, [r7, #8]
      pwrclkchanged = SET;
 c005088:	2301      	movs	r3, #1
 c00508a:	77fb      	strb	r3, [r7, #31]
    }

    if (HAL_IS_BIT_CLR(PWR->CR1, PWR_CR1_DBP))
 c00508c:	4b97      	ldr	r3, [pc, #604]	; (c0052ec <HAL_RCC_OscConfig+0x764>)
 c00508e:	681b      	ldr	r3, [r3, #0]
 c005090:	f403 7380 	and.w	r3, r3, #256	; 0x100
 c005094:	2b00      	cmp	r3, #0
 c005096:	d11e      	bne.n	c0050d6 <HAL_RCC_OscConfig+0x54e>
    {
      /* Enable write access to Backup domain */
      SET_BIT(PWR->CR1, PWR_CR1_DBP);
 c005098:	4b94      	ldr	r3, [pc, #592]	; (c0052ec <HAL_RCC_OscConfig+0x764>)
 c00509a:	681b      	ldr	r3, [r3, #0]
 c00509c:	4a93      	ldr	r2, [pc, #588]	; (c0052ec <HAL_RCC_OscConfig+0x764>)
 c00509e:	f443 7380 	orr.w	r3, r3, #256	; 0x100
 c0050a2:	6013      	str	r3, [r2, #0]

      /* Wait for Backup domain Write protection disable */
      tickstart = HAL_GetTick();
 c0050a4:	f7fe fe1a 	bl	c003cdc <HAL_GetTick>
 c0050a8:	6138      	str	r0, [r7, #16]

      while (HAL_IS_BIT_CLR(PWR->CR1, PWR_CR1_DBP))
 c0050aa:	e00e      	b.n	c0050ca <HAL_RCC_OscConfig+0x542>
      {
        if ((HAL_GetTick() - tickstart) > RCC_DBP_TIMEOUT_VALUE)
 c0050ac:	f7fe fe16 	bl	c003cdc <HAL_GetTick>
 c0050b0:	4602      	mov	r2, r0
 c0050b2:	693b      	ldr	r3, [r7, #16]
 c0050b4:	1ad3      	subs	r3, r2, r3
 c0050b6:	2b02      	cmp	r3, #2
 c0050b8:	d907      	bls.n	c0050ca <HAL_RCC_OscConfig+0x542>
        {
          /* New check to avoid false timeout detection in case of preemption */
          if (HAL_IS_BIT_CLR(PWR->CR1, PWR_CR1_DBP))
 c0050ba:	4b8c      	ldr	r3, [pc, #560]	; (c0052ec <HAL_RCC_OscConfig+0x764>)
 c0050bc:	681b      	ldr	r3, [r3, #0]
 c0050be:	f403 7380 	and.w	r3, r3, #256	; 0x100
 c0050c2:	2b00      	cmp	r3, #0
 c0050c4:	d101      	bne.n	c0050ca <HAL_RCC_OscConfig+0x542>
          {
            return HAL_TIMEOUT;
 c0050c6:	2303      	movs	r3, #3
 c0050c8:	e238      	b.n	c00553c <HAL_RCC_OscConfig+0x9b4>
      while (HAL_IS_BIT_CLR(PWR->CR1, PWR_CR1_DBP))
 c0050ca:	4b88      	ldr	r3, [pc, #544]	; (c0052ec <HAL_RCC_OscConfig+0x764>)
 c0050cc:	681b      	ldr	r3, [r3, #0]
 c0050ce:	f403 7380 	and.w	r3, r3, #256	; 0x100
 c0050d2:	2b00      	cmp	r3, #0
 c0050d4:	d0ea      	beq.n	c0050ac <HAL_RCC_OscConfig+0x524>
        }
      }
    }

    /* Set the new LSE configuration -----------------------------------------*/
    if ((RCC_OscInitStruct->LSEState & RCC_BDCR_LSEON) != 0U)
 c0050d6:	687b      	ldr	r3, [r7, #4]
 c0050d8:	689b      	ldr	r3, [r3, #8]
 c0050da:	f003 0301 	and.w	r3, r3, #1
 c0050de:	2b00      	cmp	r3, #0
 c0050e0:	d01f      	beq.n	c005122 <HAL_RCC_OscConfig+0x59a>
    {
      if ((RCC_OscInitStruct->LSEState & RCC_BDCR_LSEBYP) != 0U)
 c0050e2:	687b      	ldr	r3, [r7, #4]
 c0050e4:	689b      	ldr	r3, [r3, #8]
 c0050e6:	f003 0304 	and.w	r3, r3, #4
 c0050ea:	2b00      	cmp	r3, #0
 c0050ec:	d010      	beq.n	c005110 <HAL_RCC_OscConfig+0x588>
      {
        /* LSE oscillator bypass enable */
        SET_BIT(RCC->BDCR, RCC_BDCR_LSEBYP);
 c0050ee:	4b7e      	ldr	r3, [pc, #504]	; (c0052e8 <HAL_RCC_OscConfig+0x760>)
 c0050f0:	f8d3 3090 	ldr.w	r3, [r3, #144]	; 0x90
 c0050f4:	4a7c      	ldr	r2, [pc, #496]	; (c0052e8 <HAL_RCC_OscConfig+0x760>)
 c0050f6:	f043 0304 	orr.w	r3, r3, #4
 c0050fa:	f8c2 3090 	str.w	r3, [r2, #144]	; 0x90
        SET_BIT(RCC->BDCR, RCC_BDCR_LSEON);
 c0050fe:	4b7a      	ldr	r3, [pc, #488]	; (c0052e8 <HAL_RCC_OscConfig+0x760>)
 c005100:	f8d3 3090 	ldr.w	r3, [r3, #144]	; 0x90
 c005104:	4a78      	ldr	r2, [pc, #480]	; (c0052e8 <HAL_RCC_OscConfig+0x760>)
 c005106:	f043 0301 	orr.w	r3, r3, #1
 c00510a:	f8c2 3090 	str.w	r3, [r2, #144]	; 0x90
 c00510e:	e018      	b.n	c005142 <HAL_RCC_OscConfig+0x5ba>
      }
      else
      {
        /* LSE oscillator enable */
        SET_BIT(RCC->BDCR, RCC_BDCR_LSEON);
 c005110:	4b75      	ldr	r3, [pc, #468]	; (c0052e8 <HAL_RCC_OscConfig+0x760>)
 c005112:	f8d3 3090 	ldr.w	r3, [r3, #144]	; 0x90
 c005116:	4a74      	ldr	r2, [pc, #464]	; (c0052e8 <HAL_RCC_OscConfig+0x760>)
 c005118:	f043 0301 	orr.w	r3, r3, #1
 c00511c:	f8c2 3090 	str.w	r3, [r2, #144]	; 0x90
 c005120:	e00f      	b.n	c005142 <HAL_RCC_OscConfig+0x5ba>
      }
    }
    else
    {
      CLEAR_BIT(RCC->BDCR, RCC_BDCR_LSEON);
 c005122:	4b71      	ldr	r3, [pc, #452]	; (c0052e8 <HAL_RCC_OscConfig+0x760>)
 c005124:	f8d3 3090 	ldr.w	r3, [r3, #144]	; 0x90
 c005128:	4a6f      	ldr	r2, [pc, #444]	; (c0052e8 <HAL_RCC_OscConfig+0x760>)
 c00512a:	f023 0301 	bic.w	r3, r3, #1
 c00512e:	f8c2 3090 	str.w	r3, [r2, #144]	; 0x90
      CLEAR_BIT(RCC->BDCR, RCC_BDCR_LSEBYP);
 c005132:	4b6d      	ldr	r3, [pc, #436]	; (c0052e8 <HAL_RCC_OscConfig+0x760>)
 c005134:	f8d3 3090 	ldr.w	r3, [r3, #144]	; 0x90
 c005138:	4a6b      	ldr	r2, [pc, #428]	; (c0052e8 <HAL_RCC_OscConfig+0x760>)
 c00513a:	f023 0304 	bic.w	r3, r3, #4
 c00513e:	f8c2 3090 	str.w	r3, [r2, #144]	; 0x90
    }

    /* Check the LSE State */
    if (RCC_OscInitStruct->LSEState != RCC_LSE_OFF)
 c005142:	687b      	ldr	r3, [r7, #4]
 c005144:	689b      	ldr	r3, [r3, #8]
 c005146:	2b00      	cmp	r3, #0
 c005148:	d068      	beq.n	c00521c <HAL_RCC_OscConfig+0x694>
    {
      /* Get Start Tick*/
      tickstart = HAL_GetTick();
 c00514a:	f7fe fdc7 	bl	c003cdc <HAL_GetTick>
 c00514e:	6138      	str	r0, [r7, #16]

      /* Wait till LSE is ready */
      while (READ_BIT(RCC->BDCR, RCC_BDCR_LSERDY) == 0U)
 c005150:	e011      	b.n	c005176 <HAL_RCC_OscConfig+0x5ee>
      {
        if ((HAL_GetTick() - tickstart) > RCC_LSE_TIMEOUT_VALUE)
 c005152:	f7fe fdc3 	bl	c003cdc <HAL_GetTick>
 c005156:	4602      	mov	r2, r0
 c005158:	693b      	ldr	r3, [r7, #16]
 c00515a:	1ad3      	subs	r3, r2, r3
 c00515c:	f241 3288 	movw	r2, #5000	; 0x1388
 c005160:	4293      	cmp	r3, r2
 c005162:	d908      	bls.n	c005176 <HAL_RCC_OscConfig+0x5ee>
        {
          /* New check to avoid false timeout detection in case of preemption */
          if (READ_BIT(RCC->BDCR, RCC_BDCR_LSERDY) == 0U)
 c005164:	4b60      	ldr	r3, [pc, #384]	; (c0052e8 <HAL_RCC_OscConfig+0x760>)
 c005166:	f8d3 3090 	ldr.w	r3, [r3, #144]	; 0x90
 c00516a:	f003 0302 	and.w	r3, r3, #2
 c00516e:	2b00      	cmp	r3, #0
 c005170:	d101      	bne.n	c005176 <HAL_RCC_OscConfig+0x5ee>
          {
            return HAL_TIMEOUT;
 c005172:	2303      	movs	r3, #3
 c005174:	e1e2      	b.n	c00553c <HAL_RCC_OscConfig+0x9b4>
      while (READ_BIT(RCC->BDCR, RCC_BDCR_LSERDY) == 0U)
 c005176:	4b5c      	ldr	r3, [pc, #368]	; (c0052e8 <HAL_RCC_OscConfig+0x760>)
 c005178:	f8d3 3090 	ldr.w	r3, [r3, #144]	; 0x90
 c00517c:	f003 0302 	and.w	r3, r3, #2
 c005180:	2b00      	cmp	r3, #0
 c005182:	d0e6      	beq.n	c005152 <HAL_RCC_OscConfig+0x5ca>
          }
        }
      }

      /* Enable LSESYS additionally if requested */
      if ((RCC_OscInitStruct->LSEState & RCC_BDCR_LSESYSEN) != 0U)
 c005184:	687b      	ldr	r3, [r7, #4]
 c005186:	689b      	ldr	r3, [r3, #8]
 c005188:	f003 0380 	and.w	r3, r3, #128	; 0x80
 c00518c:	2b00      	cmp	r3, #0
 c00518e:	d022      	beq.n	c0051d6 <HAL_RCC_OscConfig+0x64e>
      {
        SET_BIT(RCC->BDCR, RCC_BDCR_LSESYSEN);
 c005190:	4b55      	ldr	r3, [pc, #340]	; (c0052e8 <HAL_RCC_OscConfig+0x760>)
 c005192:	f8d3 3090 	ldr.w	r3, [r3, #144]	; 0x90
 c005196:	4a54      	ldr	r2, [pc, #336]	; (c0052e8 <HAL_RCC_OscConfig+0x760>)
 c005198:	f043 0380 	orr.w	r3, r3, #128	; 0x80
 c00519c:	f8c2 3090 	str.w	r3, [r2, #144]	; 0x90

        /* Wait till LSESYS is ready */
        while (READ_BIT(RCC->BDCR, RCC_BDCR_LSESYSRDY) == 0U)
 c0051a0:	e011      	b.n	c0051c6 <HAL_RCC_OscConfig+0x63e>
        {
          if ((HAL_GetTick() - tickstart) > RCC_LSE_TIMEOUT_VALUE)
 c0051a2:	f7fe fd9b 	bl	c003cdc <HAL_GetTick>
 c0051a6:	4602      	mov	r2, r0
 c0051a8:	693b      	ldr	r3, [r7, #16]
 c0051aa:	1ad3      	subs	r3, r2, r3
 c0051ac:	f241 3288 	movw	r2, #5000	; 0x1388
 c0051b0:	4293      	cmp	r3, r2
 c0051b2:	d908      	bls.n	c0051c6 <HAL_RCC_OscConfig+0x63e>
          {
            /* New check to avoid false timeout detection in case of preemption */
            if (READ_BIT(RCC->BDCR, RCC_BDCR_LSESYSRDY) == 0U)
 c0051b4:	4b4c      	ldr	r3, [pc, #304]	; (c0052e8 <HAL_RCC_OscConfig+0x760>)
 c0051b6:	f8d3 3090 	ldr.w	r3, [r3, #144]	; 0x90
 c0051ba:	f403 6300 	and.w	r3, r3, #2048	; 0x800
 c0051be:	2b00      	cmp	r3, #0
 c0051c0:	d101      	bne.n	c0051c6 <HAL_RCC_OscConfig+0x63e>
            {
              return HAL_TIMEOUT;
 c0051c2:	2303      	movs	r3, #3
 c0051c4:	e1ba      	b.n	c00553c <HAL_RCC_OscConfig+0x9b4>
        while (READ_BIT(RCC->BDCR, RCC_BDCR_LSESYSRDY) == 0U)
 c0051c6:	4b48      	ldr	r3, [pc, #288]	; (c0052e8 <HAL_RCC_OscConfig+0x760>)
 c0051c8:	f8d3 3090 	ldr.w	r3, [r3, #144]	; 0x90
 c0051cc:	f403 6300 	and.w	r3, r3, #2048	; 0x800
 c0051d0:	2b00      	cmp	r3, #0
 c0051d2:	d0e6      	beq.n	c0051a2 <HAL_RCC_OscConfig+0x61a>
 c0051d4:	e068      	b.n	c0052a8 <HAL_RCC_OscConfig+0x720>
        }
      }
      else
      {
        /* Make sure LSESYSEN/LSESYSRDY are reset */
        CLEAR_BIT(RCC->BDCR, RCC_BDCR_LSESYSEN);
 c0051d6:	4b44      	ldr	r3, [pc, #272]	; (c0052e8 <HAL_RCC_OscConfig+0x760>)
 c0051d8:	f8d3 3090 	ldr.w	r3, [r3, #144]	; 0x90
 c0051dc:	4a42      	ldr	r2, [pc, #264]	; (c0052e8 <HAL_RCC_OscConfig+0x760>)
 c0051de:	f023 0380 	bic.w	r3, r3, #128	; 0x80
 c0051e2:	f8c2 3090 	str.w	r3, [r2, #144]	; 0x90

        /* Wait till LSESYSRDY is cleared */
        while (READ_BIT(RCC->BDCR, RCC_BDCR_LSESYSRDY) != 0U)
 c0051e6:	e011      	b.n	c00520c <HAL_RCC_OscConfig+0x684>
        {
          if ((HAL_GetTick() - tickstart) > RCC_LSE_TIMEOUT_VALUE)
 c0051e8:	f7fe fd78 	bl	c003cdc <HAL_GetTick>
 c0051ec:	4602      	mov	r2, r0
 c0051ee:	693b      	ldr	r3, [r7, #16]
 c0051f0:	1ad3      	subs	r3, r2, r3
 c0051f2:	f241 3288 	movw	r2, #5000	; 0x1388
 c0051f6:	4293      	cmp	r3, r2
 c0051f8:	d908      	bls.n	c00520c <HAL_RCC_OscConfig+0x684>
          {
            /* New check to avoid false timeout detection in case of preemption */
            if (READ_BIT(RCC->BDCR, RCC_BDCR_LSESYSRDY) != 0U)
 c0051fa:	4b3b      	ldr	r3, [pc, #236]	; (c0052e8 <HAL_RCC_OscConfig+0x760>)
 c0051fc:	f8d3 3090 	ldr.w	r3, [r3, #144]	; 0x90
 c005200:	f403 6300 	and.w	r3, r3, #2048	; 0x800
 c005204:	2b00      	cmp	r3, #0
 c005206:	d001      	beq.n	c00520c <HAL_RCC_OscConfig+0x684>
            {
              return HAL_TIMEOUT;
 c005208:	2303      	movs	r3, #3
 c00520a:	e197      	b.n	c00553c <HAL_RCC_OscConfig+0x9b4>
        while (READ_BIT(RCC->BDCR, RCC_BDCR_LSESYSRDY) != 0U)
 c00520c:	4b36      	ldr	r3, [pc, #216]	; (c0052e8 <HAL_RCC_OscConfig+0x760>)
 c00520e:	f8d3 3090 	ldr.w	r3, [r3, #144]	; 0x90
 c005212:	f403 6300 	and.w	r3, r3, #2048	; 0x800
 c005216:	2b00      	cmp	r3, #0
 c005218:	d1e6      	bne.n	c0051e8 <HAL_RCC_OscConfig+0x660>
 c00521a:	e045      	b.n	c0052a8 <HAL_RCC_OscConfig+0x720>
      }
    }
    else
    {
      /* Get Start Tick*/
      tickstart = HAL_GetTick();
 c00521c:	f7fe fd5e 	bl	c003cdc <HAL_GetTick>
 c005220:	6138      	str	r0, [r7, #16]

      /* Wait till LSE is disabled */
      while (READ_BIT(RCC->BDCR, RCC_BDCR_LSERDY) != 0U)
 c005222:	e011      	b.n	c005248 <HAL_RCC_OscConfig+0x6c0>
      {
        if ((HAL_GetTick() - tickstart) > RCC_LSE_TIMEOUT_VALUE)
 c005224:	f7fe fd5a 	bl	c003cdc <HAL_GetTick>
 c005228:	4602      	mov	r2, r0
 c00522a:	693b      	ldr	r3, [r7, #16]
 c00522c:	1ad3      	subs	r3, r2, r3
 c00522e:	f241 3288 	movw	r2, #5000	; 0x1388
 c005232:	4293      	cmp	r3, r2
 c005234:	d908      	bls.n	c005248 <HAL_RCC_OscConfig+0x6c0>
        {
          /* New check to avoid false timeout detection in case of preemption */
          if (READ_BIT(RCC->BDCR, RCC_BDCR_LSERDY) != 0U)
 c005236:	4b2c      	ldr	r3, [pc, #176]	; (c0052e8 <HAL_RCC_OscConfig+0x760>)
 c005238:	f8d3 3090 	ldr.w	r3, [r3, #144]	; 0x90
 c00523c:	f003 0302 	and.w	r3, r3, #2
 c005240:	2b00      	cmp	r3, #0
 c005242:	d001      	beq.n	c005248 <HAL_RCC_OscConfig+0x6c0>
          {
            return HAL_TIMEOUT;
 c005244:	2303      	movs	r3, #3
 c005246:	e179      	b.n	c00553c <HAL_RCC_OscConfig+0x9b4>
      while (READ_BIT(RCC->BDCR, RCC_BDCR_LSERDY) != 0U)
 c005248:	4b27      	ldr	r3, [pc, #156]	; (c0052e8 <HAL_RCC_OscConfig+0x760>)
 c00524a:	f8d3 3090 	ldr.w	r3, [r3, #144]	; 0x90
 c00524e:	f003 0302 	and.w	r3, r3, #2
 c005252:	2b00      	cmp	r3, #0
 c005254:	d1e6      	bne.n	c005224 <HAL_RCC_OscConfig+0x69c>
          }
        }
      }

      if (READ_BIT(RCC->BDCR, RCC_BDCR_LSESYSEN) != 0U)
 c005256:	4b24      	ldr	r3, [pc, #144]	; (c0052e8 <HAL_RCC_OscConfig+0x760>)
 c005258:	f8d3 3090 	ldr.w	r3, [r3, #144]	; 0x90
 c00525c:	f003 0380 	and.w	r3, r3, #128	; 0x80
 c005260:	2b00      	cmp	r3, #0
 c005262:	d021      	beq.n	c0052a8 <HAL_RCC_OscConfig+0x720>
      {
        /* Reset LSESYSEN once LSE is disabled */
        CLEAR_BIT(RCC->BDCR, RCC_BDCR_LSESYSEN);
 c005264:	4b20      	ldr	r3, [pc, #128]	; (c0052e8 <HAL_RCC_OscConfig+0x760>)
 c005266:	f8d3 3090 	ldr.w	r3, [r3, #144]	; 0x90
 c00526a:	4a1f      	ldr	r2, [pc, #124]	; (c0052e8 <HAL_RCC_OscConfig+0x760>)
 c00526c:	f023 0380 	bic.w	r3, r3, #128	; 0x80
 c005270:	f8c2 3090 	str.w	r3, [r2, #144]	; 0x90

        /* Wait till LSESYSRDY is cleared */
        while (READ_BIT(RCC->BDCR, RCC_BDCR_LSESYSRDY) != 0U)
 c005274:	e011      	b.n	c00529a <HAL_RCC_OscConfig+0x712>
        {
          if ((HAL_GetTick() - tickstart) > RCC_LSE_TIMEOUT_VALUE)
 c005276:	f7fe fd31 	bl	c003cdc <HAL_GetTick>
 c00527a:	4602      	mov	r2, r0
 c00527c:	693b      	ldr	r3, [r7, #16]
 c00527e:	1ad3      	subs	r3, r2, r3
 c005280:	f241 3288 	movw	r2, #5000	; 0x1388
 c005284:	4293      	cmp	r3, r2
 c005286:	d908      	bls.n	c00529a <HAL_RCC_OscConfig+0x712>
          {
            /* New check to avoid false timeout detection in case of preemption */
            if (READ_BIT(RCC->BDCR, RCC_BDCR_LSESYSRDY) != 0U)
 c005288:	4b17      	ldr	r3, [pc, #92]	; (c0052e8 <HAL_RCC_OscConfig+0x760>)
 c00528a:	f8d3 3090 	ldr.w	r3, [r3, #144]	; 0x90
 c00528e:	f403 6300 	and.w	r3, r3, #2048	; 0x800
 c005292:	2b00      	cmp	r3, #0
 c005294:	d001      	beq.n	c00529a <HAL_RCC_OscConfig+0x712>
            {
              return HAL_TIMEOUT;
 c005296:	2303      	movs	r3, #3
 c005298:	e150      	b.n	c00553c <HAL_RCC_OscConfig+0x9b4>
        while (READ_BIT(RCC->BDCR, RCC_BDCR_LSESYSRDY) != 0U)
 c00529a:	4b13      	ldr	r3, [pc, #76]	; (c0052e8 <HAL_RCC_OscConfig+0x760>)
 c00529c:	f8d3 3090 	ldr.w	r3, [r3, #144]	; 0x90
 c0052a0:	f403 6300 	and.w	r3, r3, #2048	; 0x800
 c0052a4:	2b00      	cmp	r3, #0
 c0052a6:	d1e6      	bne.n	c005276 <HAL_RCC_OscConfig+0x6ee>
        }
      }
    }

    /* Restore clock configuration if changed */
    if (pwrclkchanged == SET)
 c0052a8:	7ffb      	ldrb	r3, [r7, #31]
 c0052aa:	2b01      	cmp	r3, #1
 c0052ac:	d105      	bne.n	c0052ba <HAL_RCC_OscConfig+0x732>
    {
      __HAL_RCC_PWR_CLK_DISABLE();
 c0052ae:	4b0e      	ldr	r3, [pc, #56]	; (c0052e8 <HAL_RCC_OscConfig+0x760>)
 c0052b0:	6d9b      	ldr	r3, [r3, #88]	; 0x58
 c0052b2:	4a0d      	ldr	r2, [pc, #52]	; (c0052e8 <HAL_RCC_OscConfig+0x760>)
 c0052b4:	f023 5380 	bic.w	r3, r3, #268435456	; 0x10000000
 c0052b8:	6593      	str	r3, [r2, #88]	; 0x58
    }
  }
  /*------------------------------ HSI48 Configuration -----------------------*/
  if (((RCC_OscInitStruct->OscillatorType) & RCC_OSCILLATORTYPE_HSI48) == RCC_OSCILLATORTYPE_HSI48)
 c0052ba:	687b      	ldr	r3, [r7, #4]
 c0052bc:	681b      	ldr	r3, [r3, #0]
 c0052be:	f003 0320 	and.w	r3, r3, #32
 c0052c2:	2b00      	cmp	r3, #0
 c0052c4:	d04f      	beq.n	c005366 <HAL_RCC_OscConfig+0x7de>
  {
    /* Check the parameters */
    assert_param(IS_RCC_HSI48(RCC_OscInitStruct->HSI48State));

    /* Check the LSI State */
    if (RCC_OscInitStruct->HSI48State != RCC_HSI48_OFF)
 c0052c6:	687b      	ldr	r3, [r7, #4]
 c0052c8:	6a9b      	ldr	r3, [r3, #40]	; 0x28
 c0052ca:	2b00      	cmp	r3, #0
 c0052cc:	d028      	beq.n	c005320 <HAL_RCC_OscConfig+0x798>
    {
      /* Enable the Internal Low Speed oscillator (HSI48). */
      __HAL_RCC_HSI48_ENABLE();
 c0052ce:	4b06      	ldr	r3, [pc, #24]	; (c0052e8 <HAL_RCC_OscConfig+0x760>)
 c0052d0:	f8d3 3098 	ldr.w	r3, [r3, #152]	; 0x98
 c0052d4:	4a04      	ldr	r2, [pc, #16]	; (c0052e8 <HAL_RCC_OscConfig+0x760>)
 c0052d6:	f043 0301 	orr.w	r3, r3, #1
 c0052da:	f8c2 3098 	str.w	r3, [r2, #152]	; 0x98

      /* Get Start Tick*/
      tickstart = HAL_GetTick();
 c0052de:	f7fe fcfd 	bl	c003cdc <HAL_GetTick>
 c0052e2:	6138      	str	r0, [r7, #16]

      /* Wait till HSI48 is ready */
      while (READ_BIT(RCC->CRRCR, RCC_CRRCR_HSI48RDY) == 0U)
 c0052e4:	e014      	b.n	c005310 <HAL_RCC_OscConfig+0x788>
 c0052e6:	bf00      	nop
 c0052e8:	50021000 	.word	0x50021000
 c0052ec:	50007000 	.word	0x50007000
      {
        if ((HAL_GetTick() - tickstart) > HSI48_TIMEOUT_VALUE)
 c0052f0:	f7fe fcf4 	bl	c003cdc <HAL_GetTick>
 c0052f4:	4602      	mov	r2, r0
 c0052f6:	693b      	ldr	r3, [r7, #16]
 c0052f8:	1ad3      	subs	r3, r2, r3
 c0052fa:	2b02      	cmp	r3, #2
 c0052fc:	d908      	bls.n	c005310 <HAL_RCC_OscConfig+0x788>
        {
          /* New check to avoid false timeout detection in case of preemption */
          if (READ_BIT(RCC->CRRCR, RCC_CRRCR_HSI48RDY) == 0U)
 c0052fe:	4b91      	ldr	r3, [pc, #580]	; (c005544 <HAL_RCC_OscConfig+0x9bc>)
 c005300:	f8d3 3098 	ldr.w	r3, [r3, #152]	; 0x98
 c005304:	f003 0302 	and.w	r3, r3, #2
 c005308:	2b00      	cmp	r3, #0
 c00530a:	d101      	bne.n	c005310 <HAL_RCC_OscConfig+0x788>
          {
            return HAL_TIMEOUT;
 c00530c:	2303      	movs	r3, #3
 c00530e:	e115      	b.n	c00553c <HAL_RCC_OscConfig+0x9b4>
      while (READ_BIT(RCC->CRRCR, RCC_CRRCR_HSI48RDY) == 0U)
 c005310:	4b8c      	ldr	r3, [pc, #560]	; (c005544 <HAL_RCC_OscConfig+0x9bc>)
 c005312:	f8d3 3098 	ldr.w	r3, [r3, #152]	; 0x98
 c005316:	f003 0302 	and.w	r3, r3, #2
 c00531a:	2b00      	cmp	r3, #0
 c00531c:	d0e8      	beq.n	c0052f0 <HAL_RCC_OscConfig+0x768>
 c00531e:	e022      	b.n	c005366 <HAL_RCC_OscConfig+0x7de>
      }
    }
    else
    {
      /* Disable the Internal Low Speed oscillator (HSI48). */
      __HAL_RCC_HSI48_DISABLE();
 c005320:	4b88      	ldr	r3, [pc, #544]	; (c005544 <HAL_RCC_OscConfig+0x9bc>)
 c005322:	f8d3 3098 	ldr.w	r3, [r3, #152]	; 0x98
 c005326:	4a87      	ldr	r2, [pc, #540]	; (c005544 <HAL_RCC_OscConfig+0x9bc>)
 c005328:	f023 0301 	bic.w	r3, r3, #1
 c00532c:	f8c2 3098 	str.w	r3, [r2, #152]	; 0x98

      /* Get Start Tick*/
      tickstart = HAL_GetTick();
 c005330:	f7fe fcd4 	bl	c003cdc <HAL_GetTick>
 c005334:	6138      	str	r0, [r7, #16]

      /* Wait till HSI48 is disabled */
      while (READ_BIT(RCC->CRRCR, RCC_CRRCR_HSI48RDY) != 0U)
 c005336:	e00f      	b.n	c005358 <HAL_RCC_OscConfig+0x7d0>
      {
        if ((HAL_GetTick() - tickstart) > HSI48_TIMEOUT_VALUE)
 c005338:	f7fe fcd0 	bl	c003cdc <HAL_GetTick>
 c00533c:	4602      	mov	r2, r0
 c00533e:	693b      	ldr	r3, [r7, #16]
 c005340:	1ad3      	subs	r3, r2, r3
 c005342:	2b02      	cmp	r3, #2
 c005344:	d908      	bls.n	c005358 <HAL_RCC_OscConfig+0x7d0>
        {
          /* New check to avoid false timeout detection in case of preemption */
          if (READ_BIT(RCC->CRRCR, RCC_CRRCR_HSI48RDY) != 0U)
 c005346:	4b7f      	ldr	r3, [pc, #508]	; (c005544 <HAL_RCC_OscConfig+0x9bc>)
 c005348:	f8d3 3098 	ldr.w	r3, [r3, #152]	; 0x98
 c00534c:	f003 0302 	and.w	r3, r3, #2
 c005350:	2b00      	cmp	r3, #0
 c005352:	d001      	beq.n	c005358 <HAL_RCC_OscConfig+0x7d0>
          {
            return HAL_TIMEOUT;
 c005354:	2303      	movs	r3, #3
 c005356:	e0f1      	b.n	c00553c <HAL_RCC_OscConfig+0x9b4>
      while (READ_BIT(RCC->CRRCR, RCC_CRRCR_HSI48RDY) != 0U)
 c005358:	4b7a      	ldr	r3, [pc, #488]	; (c005544 <HAL_RCC_OscConfig+0x9bc>)
 c00535a:	f8d3 3098 	ldr.w	r3, [r3, #152]	; 0x98
 c00535e:	f003 0302 	and.w	r3, r3, #2
 c005362:	2b00      	cmp	r3, #0
 c005364:	d1e8      	bne.n	c005338 <HAL_RCC_OscConfig+0x7b0>
  }
  /*-------------------------------- PLL Configuration -----------------------*/
  /* Check the parameters */
  assert_param(IS_RCC_PLL(RCC_OscInitStruct->PLL.PLLState));

  if (RCC_OscInitStruct->PLL.PLLState != RCC_PLL_NONE)
 c005366:	687b      	ldr	r3, [r7, #4]
 c005368:	6adb      	ldr	r3, [r3, #44]	; 0x2c
 c00536a:	2b00      	cmp	r3, #0
 c00536c:	f000 80e5 	beq.w	c00553a <HAL_RCC_OscConfig+0x9b2>
  {
    /* Check if the PLL is used as system clock or not */
    if (__HAL_RCC_GET_SYSCLK_SOURCE() != RCC_SYSCLKSOURCE_STATUS_PLLCLK)
 c005370:	4b74      	ldr	r3, [pc, #464]	; (c005544 <HAL_RCC_OscConfig+0x9bc>)
 c005372:	689b      	ldr	r3, [r3, #8]
 c005374:	f003 030c 	and.w	r3, r3, #12
 c005378:	2b0c      	cmp	r3, #12
 c00537a:	f000 809f 	beq.w	c0054bc <HAL_RCC_OscConfig+0x934>
    {
      if (RCC_OscInitStruct->PLL.PLLState == RCC_PLL_ON)
 c00537e:	687b      	ldr	r3, [r7, #4]
 c005380:	6adb      	ldr	r3, [r3, #44]	; 0x2c
 c005382:	2b02      	cmp	r3, #2
 c005384:	d166      	bne.n	c005454 <HAL_RCC_OscConfig+0x8cc>
        assert_param(IS_RCC_PLLP_VALUE(RCC_OscInitStruct->PLL.PLLP));
        assert_param(IS_RCC_PLLQ_VALUE(RCC_OscInitStruct->PLL.PLLQ));
        assert_param(IS_RCC_PLLR_VALUE(RCC_OscInitStruct->PLL.PLLR));

        /* Disable the main PLL. */
        __HAL_RCC_PLL_DISABLE();
 c005386:	4b6f      	ldr	r3, [pc, #444]	; (c005544 <HAL_RCC_OscConfig+0x9bc>)
 c005388:	681b      	ldr	r3, [r3, #0]
 c00538a:	4a6e      	ldr	r2, [pc, #440]	; (c005544 <HAL_RCC_OscConfig+0x9bc>)
 c00538c:	f023 7380 	bic.w	r3, r3, #16777216	; 0x1000000
 c005390:	6013      	str	r3, [r2, #0]

        /* Get Start Tick*/
        tickstart = HAL_GetTick();
 c005392:	f7fe fca3 	bl	c003cdc <HAL_GetTick>
 c005396:	6138      	str	r0, [r7, #16]

        /* Wait till PLL is ready */
        while (READ_BIT(RCC->CR, RCC_CR_PLLRDY) != 0U)
 c005398:	e00e      	b.n	c0053b8 <HAL_RCC_OscConfig+0x830>
        {
          if ((HAL_GetTick() - tickstart) > PLL_TIMEOUT_VALUE)
 c00539a:	f7fe fc9f 	bl	c003cdc <HAL_GetTick>
 c00539e:	4602      	mov	r2, r0
 c0053a0:	693b      	ldr	r3, [r7, #16]
 c0053a2:	1ad3      	subs	r3, r2, r3
 c0053a4:	2b02      	cmp	r3, #2
 c0053a6:	d907      	bls.n	c0053b8 <HAL_RCC_OscConfig+0x830>
          {
            /* New check to avoid false timeout detection in case of preemption */
            if (READ_BIT(RCC->CR, RCC_CR_PLLRDY) != 0U)
 c0053a8:	4b66      	ldr	r3, [pc, #408]	; (c005544 <HAL_RCC_OscConfig+0x9bc>)
 c0053aa:	681b      	ldr	r3, [r3, #0]
 c0053ac:	f003 7300 	and.w	r3, r3, #33554432	; 0x2000000
 c0053b0:	2b00      	cmp	r3, #0
 c0053b2:	d001      	beq.n	c0053b8 <HAL_RCC_OscConfig+0x830>
            {
              return HAL_TIMEOUT;
 c0053b4:	2303      	movs	r3, #3
 c0053b6:	e0c1      	b.n	c00553c <HAL_RCC_OscConfig+0x9b4>
        while (READ_BIT(RCC->CR, RCC_CR_PLLRDY) != 0U)
 c0053b8:	4b62      	ldr	r3, [pc, #392]	; (c005544 <HAL_RCC_OscConfig+0x9bc>)
 c0053ba:	681b      	ldr	r3, [r3, #0]
 c0053bc:	f003 7300 	and.w	r3, r3, #33554432	; 0x2000000
 c0053c0:	2b00      	cmp	r3, #0
 c0053c2:	d1ea      	bne.n	c00539a <HAL_RCC_OscConfig+0x812>
            }
          }
        }

        /* Configure the main PLL clock source, multiplication and division factors. */
        __HAL_RCC_PLL_CONFIG(RCC_OscInitStruct->PLL.PLLSource,
 c0053c4:	4b5f      	ldr	r3, [pc, #380]	; (c005544 <HAL_RCC_OscConfig+0x9bc>)
 c0053c6:	68da      	ldr	r2, [r3, #12]
 c0053c8:	4b5f      	ldr	r3, [pc, #380]	; (c005548 <HAL_RCC_OscConfig+0x9c0>)
 c0053ca:	4013      	ands	r3, r2
 c0053cc:	687a      	ldr	r2, [r7, #4]
 c0053ce:	6b11      	ldr	r1, [r2, #48]	; 0x30
 c0053d0:	687a      	ldr	r2, [r7, #4]
 c0053d2:	6b52      	ldr	r2, [r2, #52]	; 0x34
 c0053d4:	3a01      	subs	r2, #1
 c0053d6:	0112      	lsls	r2, r2, #4
 c0053d8:	4311      	orrs	r1, r2
 c0053da:	687a      	ldr	r2, [r7, #4]
 c0053dc:	6b92      	ldr	r2, [r2, #56]	; 0x38
 c0053de:	0212      	lsls	r2, r2, #8
 c0053e0:	4311      	orrs	r1, r2
 c0053e2:	687a      	ldr	r2, [r7, #4]
 c0053e4:	6c12      	ldr	r2, [r2, #64]	; 0x40
 c0053e6:	0852      	lsrs	r2, r2, #1
 c0053e8:	3a01      	subs	r2, #1
 c0053ea:	0552      	lsls	r2, r2, #21
 c0053ec:	4311      	orrs	r1, r2
 c0053ee:	687a      	ldr	r2, [r7, #4]
 c0053f0:	6c52      	ldr	r2, [r2, #68]	; 0x44
 c0053f2:	0852      	lsrs	r2, r2, #1
 c0053f4:	3a01      	subs	r2, #1
 c0053f6:	0652      	lsls	r2, r2, #25
 c0053f8:	4311      	orrs	r1, r2
 c0053fa:	687a      	ldr	r2, [r7, #4]
 c0053fc:	6bd2      	ldr	r2, [r2, #60]	; 0x3c
 c0053fe:	06d2      	lsls	r2, r2, #27
 c005400:	430a      	orrs	r2, r1
 c005402:	4950      	ldr	r1, [pc, #320]	; (c005544 <HAL_RCC_OscConfig+0x9bc>)
 c005404:	4313      	orrs	r3, r2
 c005406:	60cb      	str	r3, [r1, #12]
                             RCC_OscInitStruct->PLL.PLLP,
                             RCC_OscInitStruct->PLL.PLLQ,
                             RCC_OscInitStruct->PLL.PLLR);

        /* Enable the main PLL. */
        __HAL_RCC_PLL_ENABLE();
 c005408:	4b4e      	ldr	r3, [pc, #312]	; (c005544 <HAL_RCC_OscConfig+0x9bc>)
 c00540a:	681b      	ldr	r3, [r3, #0]
 c00540c:	4a4d      	ldr	r2, [pc, #308]	; (c005544 <HAL_RCC_OscConfig+0x9bc>)
 c00540e:	f043 7380 	orr.w	r3, r3, #16777216	; 0x1000000
 c005412:	6013      	str	r3, [r2, #0]

        /* Enable PLL System Clock output. */
        __HAL_RCC_PLLCLKOUT_ENABLE(RCC_PLL_SYSCLK);
 c005414:	4b4b      	ldr	r3, [pc, #300]	; (c005544 <HAL_RCC_OscConfig+0x9bc>)
 c005416:	68db      	ldr	r3, [r3, #12]
 c005418:	4a4a      	ldr	r2, [pc, #296]	; (c005544 <HAL_RCC_OscConfig+0x9bc>)
 c00541a:	f043 7380 	orr.w	r3, r3, #16777216	; 0x1000000
 c00541e:	60d3      	str	r3, [r2, #12]

        /* Get Start Tick*/
        tickstart = HAL_GetTick();
 c005420:	f7fe fc5c 	bl	c003cdc <HAL_GetTick>
 c005424:	6138      	str	r0, [r7, #16]

        /* Wait till PLL is ready */
        while (READ_BIT(RCC->CR, RCC_CR_PLLRDY) == 0U)
 c005426:	e00e      	b.n	c005446 <HAL_RCC_OscConfig+0x8be>
        {
          if ((HAL_GetTick() - tickstart) > PLL_TIMEOUT_VALUE)
 c005428:	f7fe fc58 	bl	c003cdc <HAL_GetTick>
 c00542c:	4602      	mov	r2, r0
 c00542e:	693b      	ldr	r3, [r7, #16]
 c005430:	1ad3      	subs	r3, r2, r3
 c005432:	2b02      	cmp	r3, #2
 c005434:	d907      	bls.n	c005446 <HAL_RCC_OscConfig+0x8be>
          {
            /* New check to avoid false timeout detection in case of preemption */
            if (READ_BIT(RCC->CR, RCC_CR_PLLRDY) == 0U)
 c005436:	4b43      	ldr	r3, [pc, #268]	; (c005544 <HAL_RCC_OscConfig+0x9bc>)
 c005438:	681b      	ldr	r3, [r3, #0]
 c00543a:	f003 7300 	and.w	r3, r3, #33554432	; 0x2000000
 c00543e:	2b00      	cmp	r3, #0
 c005440:	d101      	bne.n	c005446 <HAL_RCC_OscConfig+0x8be>
            {
              return HAL_TIMEOUT;
 c005442:	2303      	movs	r3, #3
 c005444:	e07a      	b.n	c00553c <HAL_RCC_OscConfig+0x9b4>
        while (READ_BIT(RCC->CR, RCC_CR_PLLRDY) == 0U)
 c005446:	4b3f      	ldr	r3, [pc, #252]	; (c005544 <HAL_RCC_OscConfig+0x9bc>)
 c005448:	681b      	ldr	r3, [r3, #0]
 c00544a:	f003 7300 	and.w	r3, r3, #33554432	; 0x2000000
 c00544e:	2b00      	cmp	r3, #0
 c005450:	d0ea      	beq.n	c005428 <HAL_RCC_OscConfig+0x8a0>
 c005452:	e072      	b.n	c00553a <HAL_RCC_OscConfig+0x9b2>
        }
      }
      else
      {
        /* Disable the main PLL. */
        __HAL_RCC_PLL_DISABLE();
 c005454:	4b3b      	ldr	r3, [pc, #236]	; (c005544 <HAL_RCC_OscConfig+0x9bc>)
 c005456:	681b      	ldr	r3, [r3, #0]
 c005458:	4a3a      	ldr	r2, [pc, #232]	; (c005544 <HAL_RCC_OscConfig+0x9bc>)
 c00545a:	f023 7380 	bic.w	r3, r3, #16777216	; 0x1000000
 c00545e:	6013      	str	r3, [r2, #0]

        /* Disable all PLL outputs to save power if no PLLs on */
        if (READ_BIT(RCC->CR, (RCC_CR_PLLSAI1RDY | RCC_CR_PLLSAI2RDY)) == 0U)
 c005460:	4b38      	ldr	r3, [pc, #224]	; (c005544 <HAL_RCC_OscConfig+0x9bc>)
 c005462:	681b      	ldr	r3, [r3, #0]
 c005464:	f003 5320 	and.w	r3, r3, #671088640	; 0x28000000
 c005468:	2b00      	cmp	r3, #0
 c00546a:	d105      	bne.n	c005478 <HAL_RCC_OscConfig+0x8f0>
        {
          MODIFY_REG(RCC->PLLCFGR, RCC_PLLCFGR_PLLSRC, RCC_PLLSOURCE_NONE);
 c00546c:	4b35      	ldr	r3, [pc, #212]	; (c005544 <HAL_RCC_OscConfig+0x9bc>)
 c00546e:	68db      	ldr	r3, [r3, #12]
 c005470:	4a34      	ldr	r2, [pc, #208]	; (c005544 <HAL_RCC_OscConfig+0x9bc>)
 c005472:	f023 0303 	bic.w	r3, r3, #3
 c005476:	60d3      	str	r3, [r2, #12]
        }

        __HAL_RCC_PLLCLKOUT_DISABLE(RCC_PLL_SYSCLK | RCC_PLL_48M1CLK | RCC_PLL_SAI3CLK);
 c005478:	4b32      	ldr	r3, [pc, #200]	; (c005544 <HAL_RCC_OscConfig+0x9bc>)
 c00547a:	68db      	ldr	r3, [r3, #12]
 c00547c:	4a31      	ldr	r2, [pc, #196]	; (c005544 <HAL_RCC_OscConfig+0x9bc>)
 c00547e:	f023 7388 	bic.w	r3, r3, #17825792	; 0x1100000
 c005482:	f423 3380 	bic.w	r3, r3, #65536	; 0x10000
 c005486:	60d3      	str	r3, [r2, #12]

        /* Get Start Tick*/
        tickstart = HAL_GetTick();
 c005488:	f7fe fc28 	bl	c003cdc <HAL_GetTick>
 c00548c:	6138      	str	r0, [r7, #16]

        /* Wait till PLL is disabled */
        while (READ_BIT(RCC->CR, RCC_CR_PLLRDY) != 0U)
 c00548e:	e00e      	b.n	c0054ae <HAL_RCC_OscConfig+0x926>
        {
          if ((HAL_GetTick() - tickstart) > PLL_TIMEOUT_VALUE)
 c005490:	f7fe fc24 	bl	c003cdc <HAL_GetTick>
 c005494:	4602      	mov	r2, r0
 c005496:	693b      	ldr	r3, [r7, #16]
 c005498:	1ad3      	subs	r3, r2, r3
 c00549a:	2b02      	cmp	r3, #2
 c00549c:	d907      	bls.n	c0054ae <HAL_RCC_OscConfig+0x926>
          {
            /* New check to avoid false timeout detection in case of preemption */
            if (READ_BIT(RCC->CR, RCC_CR_PLLRDY) != 0U)
 c00549e:	4b29      	ldr	r3, [pc, #164]	; (c005544 <HAL_RCC_OscConfig+0x9bc>)
 c0054a0:	681b      	ldr	r3, [r3, #0]
 c0054a2:	f003 7300 	and.w	r3, r3, #33554432	; 0x2000000
 c0054a6:	2b00      	cmp	r3, #0
 c0054a8:	d001      	beq.n	c0054ae <HAL_RCC_OscConfig+0x926>
            {
              return HAL_TIMEOUT;
 c0054aa:	2303      	movs	r3, #3
 c0054ac:	e046      	b.n	c00553c <HAL_RCC_OscConfig+0x9b4>
        while (READ_BIT(RCC->CR, RCC_CR_PLLRDY) != 0U)
 c0054ae:	4b25      	ldr	r3, [pc, #148]	; (c005544 <HAL_RCC_OscConfig+0x9bc>)
 c0054b0:	681b      	ldr	r3, [r3, #0]
 c0054b2:	f003 7300 	and.w	r3, r3, #33554432	; 0x2000000
 c0054b6:	2b00      	cmp	r3, #0
 c0054b8:	d1ea      	bne.n	c005490 <HAL_RCC_OscConfig+0x908>
 c0054ba:	e03e      	b.n	c00553a <HAL_RCC_OscConfig+0x9b2>
      }
    }
    else
    {
      /* Check if there is a request to disable the PLL used as System clock source */
      if (RCC_OscInitStruct->PLL.PLLState == RCC_PLL_OFF)
 c0054bc:	687b      	ldr	r3, [r7, #4]
 c0054be:	6adb      	ldr	r3, [r3, #44]	; 0x2c
 c0054c0:	2b01      	cmp	r3, #1
 c0054c2:	d101      	bne.n	c0054c8 <HAL_RCC_OscConfig+0x940>
      {
        return HAL_ERROR;
 c0054c4:	2301      	movs	r3, #1
 c0054c6:	e039      	b.n	c00553c <HAL_RCC_OscConfig+0x9b4>
      }
      else
      {
        pll_config = RCC->PLLCFGR;
 c0054c8:	4b1e      	ldr	r3, [pc, #120]	; (c005544 <HAL_RCC_OscConfig+0x9bc>)
 c0054ca:	68db      	ldr	r3, [r3, #12]
 c0054cc:	617b      	str	r3, [r7, #20]
        /* Do not return HAL_ERROR if request repeats the current configuration */
        if ((READ_BIT(pll_config, RCC_PLLCFGR_PLLSRC)  != RCC_OscInitStruct->PLL.PLLSource) ||
 c0054ce:	697b      	ldr	r3, [r7, #20]
 c0054d0:	f003 0203 	and.w	r2, r3, #3
 c0054d4:	687b      	ldr	r3, [r7, #4]
 c0054d6:	6b1b      	ldr	r3, [r3, #48]	; 0x30
 c0054d8:	429a      	cmp	r2, r3
 c0054da:	d12c      	bne.n	c005536 <HAL_RCC_OscConfig+0x9ae>
            (READ_BIT(pll_config, RCC_PLLCFGR_PLLM)    != ((RCC_OscInitStruct->PLL.PLLM - 1U) << RCC_PLLCFGR_PLLM_Pos)) ||
 c0054dc:	697b      	ldr	r3, [r7, #20]
 c0054de:	f003 02f0 	and.w	r2, r3, #240	; 0xf0
 c0054e2:	687b      	ldr	r3, [r7, #4]
 c0054e4:	6b5b      	ldr	r3, [r3, #52]	; 0x34
 c0054e6:	3b01      	subs	r3, #1
 c0054e8:	011b      	lsls	r3, r3, #4
        if ((READ_BIT(pll_config, RCC_PLLCFGR_PLLSRC)  != RCC_OscInitStruct->PLL.PLLSource) ||
 c0054ea:	429a      	cmp	r2, r3
 c0054ec:	d123      	bne.n	c005536 <HAL_RCC_OscConfig+0x9ae>
            (READ_BIT(pll_config, RCC_PLLCFGR_PLLN)    != (RCC_OscInitStruct->PLL.PLLN << RCC_PLLCFGR_PLLN_Pos)) ||
 c0054ee:	697b      	ldr	r3, [r7, #20]
 c0054f0:	f403 42fe 	and.w	r2, r3, #32512	; 0x7f00
 c0054f4:	687b      	ldr	r3, [r7, #4]
 c0054f6:	6b9b      	ldr	r3, [r3, #56]	; 0x38
 c0054f8:	021b      	lsls	r3, r3, #8
            (READ_BIT(pll_config, RCC_PLLCFGR_PLLM)    != ((RCC_OscInitStruct->PLL.PLLM - 1U) << RCC_PLLCFGR_PLLM_Pos)) ||
 c0054fa:	429a      	cmp	r2, r3
 c0054fc:	d11b      	bne.n	c005536 <HAL_RCC_OscConfig+0x9ae>
            (READ_BIT(pll_config, RCC_PLLCFGR_PLLPDIV) != (RCC_OscInitStruct->PLL.PLLP << RCC_PLLCFGR_PLLPDIV_Pos)) ||
 c0054fe:	697b      	ldr	r3, [r7, #20]
 c005500:	f003 4278 	and.w	r2, r3, #4160749568	; 0xf8000000
 c005504:	687b      	ldr	r3, [r7, #4]
 c005506:	6bdb      	ldr	r3, [r3, #60]	; 0x3c
 c005508:	06db      	lsls	r3, r3, #27
            (READ_BIT(pll_config, RCC_PLLCFGR_PLLN)    != (RCC_OscInitStruct->PLL.PLLN << RCC_PLLCFGR_PLLN_Pos)) ||
 c00550a:	429a      	cmp	r2, r3
 c00550c:	d113      	bne.n	c005536 <HAL_RCC_OscConfig+0x9ae>
            (READ_BIT(pll_config, RCC_PLLCFGR_PLLQ)    != ((((RCC_OscInitStruct->PLL.PLLQ) >> 1U) - 1U) << RCC_PLLCFGR_PLLQ_Pos)) ||
 c00550e:	697b      	ldr	r3, [r7, #20]
 c005510:	f403 02c0 	and.w	r2, r3, #6291456	; 0x600000
 c005514:	687b      	ldr	r3, [r7, #4]
 c005516:	6c1b      	ldr	r3, [r3, #64]	; 0x40
 c005518:	085b      	lsrs	r3, r3, #1
 c00551a:	3b01      	subs	r3, #1
 c00551c:	055b      	lsls	r3, r3, #21
            (READ_BIT(pll_config, RCC_PLLCFGR_PLLPDIV) != (RCC_OscInitStruct->PLL.PLLP << RCC_PLLCFGR_PLLPDIV_Pos)) ||
 c00551e:	429a      	cmp	r2, r3
 c005520:	d109      	bne.n	c005536 <HAL_RCC_OscConfig+0x9ae>
            (READ_BIT(pll_config, RCC_PLLCFGR_PLLR)    != ((((RCC_OscInitStruct->PLL.PLLR) >> 1U) - 1U) << RCC_PLLCFGR_PLLR_Pos)))
 c005522:	697b      	ldr	r3, [r7, #20]
 c005524:	f003 62c0 	and.w	r2, r3, #100663296	; 0x6000000
 c005528:	687b      	ldr	r3, [r7, #4]
 c00552a:	6c5b      	ldr	r3, [r3, #68]	; 0x44
 c00552c:	085b      	lsrs	r3, r3, #1
 c00552e:	3b01      	subs	r3, #1
 c005530:	065b      	lsls	r3, r3, #25
            (READ_BIT(pll_config, RCC_PLLCFGR_PLLQ)    != ((((RCC_OscInitStruct->PLL.PLLQ) >> 1U) - 1U) << RCC_PLLCFGR_PLLQ_Pos)) ||
 c005532:	429a      	cmp	r2, r3
 c005534:	d001      	beq.n	c00553a <HAL_RCC_OscConfig+0x9b2>
        {
          return HAL_ERROR;
 c005536:	2301      	movs	r3, #1
 c005538:	e000      	b.n	c00553c <HAL_RCC_OscConfig+0x9b4>
        }
      }
    }
  }

  return HAL_OK;
 c00553a:	2300      	movs	r3, #0
}
 c00553c:	4618      	mov	r0, r3
 c00553e:	3720      	adds	r7, #32
 c005540:	46bd      	mov	sp, r7
 c005542:	bd80      	pop	{r7, pc}
 c005544:	50021000 	.word	0x50021000
 c005548:	019f800c 	.word	0x019f800c

0c00554c <HAL_RCC_ClockConfig>:
  *         HPRE[3:0] bits to ensure that HCLK not exceed the maximum allowed frequency
  *         (for more details refer to section above "Initialization/de-initialization functions")
  * @retval None
  */
HAL_StatusTypeDef HAL_RCC_ClockConfig(RCC_ClkInitTypeDef  *RCC_ClkInitStruct, uint32_t FLatency)
{
 c00554c:	b580      	push	{r7, lr}
 c00554e:	b086      	sub	sp, #24
 c005550:	af00      	add	r7, sp, #0
 c005552:	6078      	str	r0, [r7, #4]
 c005554:	6039      	str	r1, [r7, #0]
  uint32_t tickstart;
  uint32_t pllfreq;
  uint32_t hpre = RCC_SYSCLK_DIV1;
 c005556:	2300      	movs	r3, #0
 c005558:	617b      	str	r3, [r7, #20]

  /* Check Null pointer */
  if (RCC_ClkInitStruct == NULL)
 c00555a:	687b      	ldr	r3, [r7, #4]
 c00555c:	2b00      	cmp	r3, #0
 c00555e:	d101      	bne.n	c005564 <HAL_RCC_ClockConfig+0x18>
  {
    return HAL_ERROR;
 c005560:	2301      	movs	r3, #1
 c005562:	e10d      	b.n	c005780 <HAL_RCC_ClockConfig+0x234>
  /* To correctly read data from FLASH memory, the number of wait states (LATENCY)
    must be correctly programmed according to the frequency of the CPU clock
    (HCLK) and the supply voltage of the device. */

  /* Increasing the number of wait states because of higher CPU frequency */
  if (FLatency > __HAL_FLASH_GET_LATENCY())
 c005564:	4b88      	ldr	r3, [pc, #544]	; (c005788 <HAL_RCC_ClockConfig+0x23c>)
 c005566:	681b      	ldr	r3, [r3, #0]
 c005568:	f003 030f 	and.w	r3, r3, #15
 c00556c:	683a      	ldr	r2, [r7, #0]
 c00556e:	429a      	cmp	r2, r3
 c005570:	d910      	bls.n	c005594 <HAL_RCC_ClockConfig+0x48>
  {
    /* Program the new number of wait states to the LATENCY bits in the FLASH_ACR register */
    __HAL_FLASH_SET_LATENCY(FLatency);
 c005572:	4b85      	ldr	r3, [pc, #532]	; (c005788 <HAL_RCC_ClockConfig+0x23c>)
 c005574:	681b      	ldr	r3, [r3, #0]
 c005576:	f023 020f 	bic.w	r2, r3, #15
 c00557a:	4983      	ldr	r1, [pc, #524]	; (c005788 <HAL_RCC_ClockConfig+0x23c>)
 c00557c:	683b      	ldr	r3, [r7, #0]
 c00557e:	4313      	orrs	r3, r2
 c005580:	600b      	str	r3, [r1, #0]

    /* Check that the new number of wait states is taken into account to access the Flash
    memory by reading the FLASH_ACR register */
    if (__HAL_FLASH_GET_LATENCY() != FLatency)
 c005582:	4b81      	ldr	r3, [pc, #516]	; (c005788 <HAL_RCC_ClockConfig+0x23c>)
 c005584:	681b      	ldr	r3, [r3, #0]
 c005586:	f003 030f 	and.w	r3, r3, #15
 c00558a:	683a      	ldr	r2, [r7, #0]
 c00558c:	429a      	cmp	r2, r3
 c00558e:	d001      	beq.n	c005594 <HAL_RCC_ClockConfig+0x48>
    {
      return HAL_ERROR;
 c005590:	2301      	movs	r3, #1
 c005592:	e0f5      	b.n	c005780 <HAL_RCC_ClockConfig+0x234>
    }
  }

  /*------------------------- SYSCLK Configuration ---------------------------*/
  if (((RCC_ClkInitStruct->ClockType) & RCC_CLOCKTYPE_SYSCLK) == RCC_CLOCKTYPE_SYSCLK)
 c005594:	687b      	ldr	r3, [r7, #4]
 c005596:	681b      	ldr	r3, [r3, #0]
 c005598:	f003 0301 	and.w	r3, r3, #1
 c00559c:	2b00      	cmp	r3, #0
 c00559e:	f000 8094 	beq.w	c0056ca <HAL_RCC_ClockConfig+0x17e>
  {
    assert_param(IS_RCC_SYSCLKSOURCE(RCC_ClkInitStruct->SYSCLKSource));

    /* PLL is selected as System Clock Source */
    if (RCC_ClkInitStruct->SYSCLKSource == RCC_SYSCLKSOURCE_PLLCLK)
 c0055a2:	687b      	ldr	r3, [r7, #4]
 c0055a4:	685b      	ldr	r3, [r3, #4]
 c0055a6:	2b03      	cmp	r3, #3
 c0055a8:	d134      	bne.n	c005614 <HAL_RCC_ClockConfig+0xc8>
    {
      /* Check the PLL ready flag */
      if (READ_BIT(RCC->CR, RCC_CR_PLLRDY) == 0U)
 c0055aa:	4b78      	ldr	r3, [pc, #480]	; (c00578c <HAL_RCC_ClockConfig+0x240>)
 c0055ac:	681b      	ldr	r3, [r3, #0]
 c0055ae:	f003 7300 	and.w	r3, r3, #33554432	; 0x2000000
 c0055b2:	2b00      	cmp	r3, #0
 c0055b4:	d101      	bne.n	c0055ba <HAL_RCC_ClockConfig+0x6e>
      {
        return HAL_ERROR;
 c0055b6:	2301      	movs	r3, #1
 c0055b8:	e0e2      	b.n	c005780 <HAL_RCC_ClockConfig+0x234>
      }

      /* Transition state management when selecting PLL as SYSCLK source and */
      /* target frequency above 80Mhz */
      /* Compute target PLL output frequency */
      pllfreq = RCC_GetSysClockFreqFromPLLSource();
 c0055ba:	f000 fa2b 	bl	c005a14 <RCC_GetSysClockFreqFromPLLSource>
 c0055be:	6138      	str	r0, [r7, #16]

      /* Intermediate step with HCLK prescaler 2 necessary before to go over 80Mhz */
      if (pllfreq > 80000000U)
 c0055c0:	693b      	ldr	r3, [r7, #16]
 c0055c2:	4a73      	ldr	r2, [pc, #460]	; (c005790 <HAL_RCC_ClockConfig+0x244>)
 c0055c4:	4293      	cmp	r3, r2
 c0055c6:	d956      	bls.n	c005676 <HAL_RCC_ClockConfig+0x12a>
      {
        if (READ_BIT(RCC->CFGR, RCC_CFGR_HPRE) == RCC_SYSCLK_DIV1)
 c0055c8:	4b70      	ldr	r3, [pc, #448]	; (c00578c <HAL_RCC_ClockConfig+0x240>)
 c0055ca:	689b      	ldr	r3, [r3, #8]
 c0055cc:	f003 03f0 	and.w	r3, r3, #240	; 0xf0
 c0055d0:	2b00      	cmp	r3, #0
 c0055d2:	d10a      	bne.n	c0055ea <HAL_RCC_ClockConfig+0x9e>
        {
          MODIFY_REG(RCC->CFGR, RCC_CFGR_HPRE, RCC_SYSCLK_DIV2);
 c0055d4:	4b6d      	ldr	r3, [pc, #436]	; (c00578c <HAL_RCC_ClockConfig+0x240>)
 c0055d6:	689b      	ldr	r3, [r3, #8]
 c0055d8:	f023 03f0 	bic.w	r3, r3, #240	; 0xf0
 c0055dc:	4a6b      	ldr	r2, [pc, #428]	; (c00578c <HAL_RCC_ClockConfig+0x240>)
 c0055de:	f043 0380 	orr.w	r3, r3, #128	; 0x80
 c0055e2:	6093      	str	r3, [r2, #8]
          hpre = RCC_SYSCLK_DIV2;
 c0055e4:	2380      	movs	r3, #128	; 0x80
 c0055e6:	617b      	str	r3, [r7, #20]
 c0055e8:	e045      	b.n	c005676 <HAL_RCC_ClockConfig+0x12a>
        }
        else if ((((RCC_ClkInitStruct->ClockType) & RCC_CLOCKTYPE_HCLK) == RCC_CLOCKTYPE_HCLK) &&
 c0055ea:	687b      	ldr	r3, [r7, #4]
 c0055ec:	681b      	ldr	r3, [r3, #0]
 c0055ee:	f003 0302 	and.w	r3, r3, #2
 c0055f2:	2b00      	cmp	r3, #0
 c0055f4:	d03f      	beq.n	c005676 <HAL_RCC_ClockConfig+0x12a>
                 (RCC_ClkInitStruct->AHBCLKDivider == RCC_SYSCLK_DIV1))
 c0055f6:	687b      	ldr	r3, [r7, #4]
 c0055f8:	689b      	ldr	r3, [r3, #8]
        else if ((((RCC_ClkInitStruct->ClockType) & RCC_CLOCKTYPE_HCLK) == RCC_CLOCKTYPE_HCLK) &&
 c0055fa:	2b00      	cmp	r3, #0
 c0055fc:	d13b      	bne.n	c005676 <HAL_RCC_ClockConfig+0x12a>
        {
          MODIFY_REG(RCC->CFGR, RCC_CFGR_HPRE, RCC_SYSCLK_DIV2);
 c0055fe:	4b63      	ldr	r3, [pc, #396]	; (c00578c <HAL_RCC_ClockConfig+0x240>)
 c005600:	689b      	ldr	r3, [r3, #8]
 c005602:	f023 03f0 	bic.w	r3, r3, #240	; 0xf0
 c005606:	4a61      	ldr	r2, [pc, #388]	; (c00578c <HAL_RCC_ClockConfig+0x240>)
 c005608:	f043 0380 	orr.w	r3, r3, #128	; 0x80
 c00560c:	6093      	str	r3, [r2, #8]
          hpre = RCC_SYSCLK_DIV2;
 c00560e:	2380      	movs	r3, #128	; 0x80
 c005610:	617b      	str	r3, [r7, #20]
 c005612:	e030      	b.n	c005676 <HAL_RCC_ClockConfig+0x12a>
      }
    }
    else
    {
      /* HSE is selected as System Clock Source */
      if (RCC_ClkInitStruct->SYSCLKSource == RCC_SYSCLKSOURCE_HSE)
 c005614:	687b      	ldr	r3, [r7, #4]
 c005616:	685b      	ldr	r3, [r3, #4]
 c005618:	2b02      	cmp	r3, #2
 c00561a:	d107      	bne.n	c00562c <HAL_RCC_ClockConfig+0xe0>
      {
        /* Check the HSE ready flag */
        if (READ_BIT(RCC->CR, RCC_CR_HSERDY) == 0U)
 c00561c:	4b5b      	ldr	r3, [pc, #364]	; (c00578c <HAL_RCC_ClockConfig+0x240>)
 c00561e:	681b      	ldr	r3, [r3, #0]
 c005620:	f403 3300 	and.w	r3, r3, #131072	; 0x20000
 c005624:	2b00      	cmp	r3, #0
 c005626:	d115      	bne.n	c005654 <HAL_RCC_ClockConfig+0x108>
        {
          return HAL_ERROR;
 c005628:	2301      	movs	r3, #1
 c00562a:	e0a9      	b.n	c005780 <HAL_RCC_ClockConfig+0x234>
        }
      }
      /* MSI is selected as System Clock Source */
      else if (RCC_ClkInitStruct->SYSCLKSource == RCC_SYSCLKSOURCE_MSI)
 c00562c:	687b      	ldr	r3, [r7, #4]
 c00562e:	685b      	ldr	r3, [r3, #4]
 c005630:	2b00      	cmp	r3, #0
 c005632:	d107      	bne.n	c005644 <HAL_RCC_ClockConfig+0xf8>
      {
        /* Check the MSI ready flag */
        if (READ_BIT(RCC->CR, RCC_CR_MSIRDY) == 0U)
 c005634:	4b55      	ldr	r3, [pc, #340]	; (c00578c <HAL_RCC_ClockConfig+0x240>)
 c005636:	681b      	ldr	r3, [r3, #0]
 c005638:	f003 0302 	and.w	r3, r3, #2
 c00563c:	2b00      	cmp	r3, #0
 c00563e:	d109      	bne.n	c005654 <HAL_RCC_ClockConfig+0x108>
        {
          return HAL_ERROR;
 c005640:	2301      	movs	r3, #1
 c005642:	e09d      	b.n	c005780 <HAL_RCC_ClockConfig+0x234>
      }
      /* HSI is selected as System Clock Source */
      else
      {
        /* Check the HSI ready flag */
        if (READ_BIT(RCC->CR, RCC_CR_HSIRDY) == 0U)
 c005644:	4b51      	ldr	r3, [pc, #324]	; (c00578c <HAL_RCC_ClockConfig+0x240>)
 c005646:	681b      	ldr	r3, [r3, #0]
 c005648:	f403 6380 	and.w	r3, r3, #1024	; 0x400
 c00564c:	2b00      	cmp	r3, #0
 c00564e:	d101      	bne.n	c005654 <HAL_RCC_ClockConfig+0x108>
        {
          return HAL_ERROR;
 c005650:	2301      	movs	r3, #1
 c005652:	e095      	b.n	c005780 <HAL_RCC_ClockConfig+0x234>
        }
      }

      /* Transition state management when when going down from PLL used as */
      /* SYSCLK source and frequency above 80Mhz */
      pllfreq = HAL_RCC_GetSysClockFreq();
 c005654:	f000 f8a2 	bl	c00579c <HAL_RCC_GetSysClockFreq>
 c005658:	6138      	str	r0, [r7, #16]

      /* Intermediate step with HCLK prescaler 2 necessary before to go under 80Mhz */
      if (pllfreq > 80000000U)
 c00565a:	693b      	ldr	r3, [r7, #16]
 c00565c:	4a4c      	ldr	r2, [pc, #304]	; (c005790 <HAL_RCC_ClockConfig+0x244>)
 c00565e:	4293      	cmp	r3, r2
 c005660:	d909      	bls.n	c005676 <HAL_RCC_ClockConfig+0x12a>
      {
        MODIFY_REG(RCC->CFGR, RCC_CFGR_HPRE, RCC_SYSCLK_DIV2);
 c005662:	4b4a      	ldr	r3, [pc, #296]	; (c00578c <HAL_RCC_ClockConfig+0x240>)
 c005664:	689b      	ldr	r3, [r3, #8]
 c005666:	f023 03f0 	bic.w	r3, r3, #240	; 0xf0
 c00566a:	4a48      	ldr	r2, [pc, #288]	; (c00578c <HAL_RCC_ClockConfig+0x240>)
 c00566c:	f043 0380 	orr.w	r3, r3, #128	; 0x80
 c005670:	6093      	str	r3, [r2, #8]
        hpre = RCC_SYSCLK_DIV2;
 c005672:	2380      	movs	r3, #128	; 0x80
 c005674:	617b      	str	r3, [r7, #20]
      }
    }

    MODIFY_REG(RCC->CFGR, RCC_CFGR_SW, RCC_ClkInitStruct->SYSCLKSource);
 c005676:	4b45      	ldr	r3, [pc, #276]	; (c00578c <HAL_RCC_ClockConfig+0x240>)
 c005678:	689b      	ldr	r3, [r3, #8]
 c00567a:	f023 0203 	bic.w	r2, r3, #3
 c00567e:	687b      	ldr	r3, [r7, #4]
 c005680:	685b      	ldr	r3, [r3, #4]
 c005682:	4942      	ldr	r1, [pc, #264]	; (c00578c <HAL_RCC_ClockConfig+0x240>)
 c005684:	4313      	orrs	r3, r2
 c005686:	608b      	str	r3, [r1, #8]

    /* Get Start Tick*/
    tickstart = HAL_GetTick();
 c005688:	f7fe fb28 	bl	c003cdc <HAL_GetTick>
 c00568c:	60f8      	str	r0, [r7, #12]

    while (__HAL_RCC_GET_SYSCLK_SOURCE() != (RCC_ClkInitStruct->SYSCLKSource << RCC_CFGR_SWS_Pos))
 c00568e:	e013      	b.n	c0056b8 <HAL_RCC_ClockConfig+0x16c>
    {
      if ((HAL_GetTick() - tickstart) > CLOCKSWITCH_TIMEOUT_VALUE)
 c005690:	f7fe fb24 	bl	c003cdc <HAL_GetTick>
 c005694:	4602      	mov	r2, r0
 c005696:	68fb      	ldr	r3, [r7, #12]
 c005698:	1ad3      	subs	r3, r2, r3
 c00569a:	f241 3288 	movw	r2, #5000	; 0x1388
 c00569e:	4293      	cmp	r3, r2
 c0056a0:	d90a      	bls.n	c0056b8 <HAL_RCC_ClockConfig+0x16c>
      {
        /* New check to avoid false timeout detection in case of preemption */
        if (__HAL_RCC_GET_SYSCLK_SOURCE() != (RCC_ClkInitStruct->SYSCLKSource << RCC_CFGR_SWS_Pos))
 c0056a2:	4b3a      	ldr	r3, [pc, #232]	; (c00578c <HAL_RCC_ClockConfig+0x240>)
 c0056a4:	689b      	ldr	r3, [r3, #8]
 c0056a6:	f003 020c 	and.w	r2, r3, #12
 c0056aa:	687b      	ldr	r3, [r7, #4]
 c0056ac:	685b      	ldr	r3, [r3, #4]
 c0056ae:	009b      	lsls	r3, r3, #2
 c0056b0:	429a      	cmp	r2, r3
 c0056b2:	d001      	beq.n	c0056b8 <HAL_RCC_ClockConfig+0x16c>
        {
          return HAL_TIMEOUT;
 c0056b4:	2303      	movs	r3, #3
 c0056b6:	e063      	b.n	c005780 <HAL_RCC_ClockConfig+0x234>
    while (__HAL_RCC_GET_SYSCLK_SOURCE() != (RCC_ClkInitStruct->SYSCLKSource << RCC_CFGR_SWS_Pos))
 c0056b8:	4b34      	ldr	r3, [pc, #208]	; (c00578c <HAL_RCC_ClockConfig+0x240>)
 c0056ba:	689b      	ldr	r3, [r3, #8]
 c0056bc:	f003 020c 	and.w	r2, r3, #12
 c0056c0:	687b      	ldr	r3, [r7, #4]
 c0056c2:	685b      	ldr	r3, [r3, #4]
 c0056c4:	009b      	lsls	r3, r3, #2
 c0056c6:	429a      	cmp	r2, r3
 c0056c8:	d1e2      	bne.n	c005690 <HAL_RCC_ClockConfig+0x144>
      }
    }
  }

  /*-------------------------- HCLK Configuration --------------------------*/
  if (((RCC_ClkInitStruct->ClockType) & RCC_CLOCKTYPE_HCLK) == RCC_CLOCKTYPE_HCLK)
 c0056ca:	687b      	ldr	r3, [r7, #4]
 c0056cc:	681b      	ldr	r3, [r3, #0]
 c0056ce:	f003 0302 	and.w	r3, r3, #2
 c0056d2:	2b00      	cmp	r3, #0
 c0056d4:	d009      	beq.n	c0056ea <HAL_RCC_ClockConfig+0x19e>
  {
    assert_param(IS_RCC_HCLK(RCC_ClkInitStruct->AHBCLKDivider));
    MODIFY_REG(RCC->CFGR, RCC_CFGR_HPRE, RCC_ClkInitStruct->AHBCLKDivider);
 c0056d6:	4b2d      	ldr	r3, [pc, #180]	; (c00578c <HAL_RCC_ClockConfig+0x240>)
 c0056d8:	689b      	ldr	r3, [r3, #8]
 c0056da:	f023 02f0 	bic.w	r2, r3, #240	; 0xf0
 c0056de:	687b      	ldr	r3, [r7, #4]
 c0056e0:	689b      	ldr	r3, [r3, #8]
 c0056e2:	492a      	ldr	r1, [pc, #168]	; (c00578c <HAL_RCC_ClockConfig+0x240>)
 c0056e4:	4313      	orrs	r3, r2
 c0056e6:	608b      	str	r3, [r1, #8]
 c0056e8:	e008      	b.n	c0056fc <HAL_RCC_ClockConfig+0x1b0>
  }
  else
  {
    /* Is intermediate HCLK prescaler 2 applied internally, complete with HCLK prescaler 1 */
    if (hpre == RCC_SYSCLK_DIV2)
 c0056ea:	697b      	ldr	r3, [r7, #20]
 c0056ec:	2b80      	cmp	r3, #128	; 0x80
 c0056ee:	d105      	bne.n	c0056fc <HAL_RCC_ClockConfig+0x1b0>
    {
      MODIFY_REG(RCC->CFGR, RCC_CFGR_HPRE, RCC_SYSCLK_DIV1);
 c0056f0:	4b26      	ldr	r3, [pc, #152]	; (c00578c <HAL_RCC_ClockConfig+0x240>)
 c0056f2:	689b      	ldr	r3, [r3, #8]
 c0056f4:	4a25      	ldr	r2, [pc, #148]	; (c00578c <HAL_RCC_ClockConfig+0x240>)
 c0056f6:	f023 03f0 	bic.w	r3, r3, #240	; 0xf0
 c0056fa:	6093      	str	r3, [r2, #8]
    }
  }

  /* Decreasing the number of wait states because of lower CPU frequency */
  if (FLatency < __HAL_FLASH_GET_LATENCY())
 c0056fc:	4b22      	ldr	r3, [pc, #136]	; (c005788 <HAL_RCC_ClockConfig+0x23c>)
 c0056fe:	681b      	ldr	r3, [r3, #0]
 c005700:	f003 030f 	and.w	r3, r3, #15
 c005704:	683a      	ldr	r2, [r7, #0]
 c005706:	429a      	cmp	r2, r3
 c005708:	d210      	bcs.n	c00572c <HAL_RCC_ClockConfig+0x1e0>
  {
    /* Program the new number of wait states to the LATENCY bits in the FLASH_ACR register */
    __HAL_FLASH_SET_LATENCY(FLatency);
 c00570a:	4b1f      	ldr	r3, [pc, #124]	; (c005788 <HAL_RCC_ClockConfig+0x23c>)
 c00570c:	681b      	ldr	r3, [r3, #0]
 c00570e:	f023 020f 	bic.w	r2, r3, #15
 c005712:	491d      	ldr	r1, [pc, #116]	; (c005788 <HAL_RCC_ClockConfig+0x23c>)
 c005714:	683b      	ldr	r3, [r7, #0]
 c005716:	4313      	orrs	r3, r2
 c005718:	600b      	str	r3, [r1, #0]

    /* Check that the new number of wait states is taken into account to access the Flash
    memory by reading the FLASH_ACR register */
    if (__HAL_FLASH_GET_LATENCY() != FLatency)
 c00571a:	4b1b      	ldr	r3, [pc, #108]	; (c005788 <HAL_RCC_ClockConfig+0x23c>)
 c00571c:	681b      	ldr	r3, [r3, #0]
 c00571e:	f003 030f 	and.w	r3, r3, #15
 c005722:	683a      	ldr	r2, [r7, #0]
 c005724:	429a      	cmp	r2, r3
 c005726:	d001      	beq.n	c00572c <HAL_RCC_ClockConfig+0x1e0>
    {
      return HAL_ERROR;
 c005728:	2301      	movs	r3, #1
 c00572a:	e029      	b.n	c005780 <HAL_RCC_ClockConfig+0x234>
    }
  }

  /*-------------------------- PCLK1 Configuration ---------------------------*/
  if (((RCC_ClkInitStruct->ClockType) & RCC_CLOCKTYPE_PCLK1) == RCC_CLOCKTYPE_PCLK1)
 c00572c:	687b      	ldr	r3, [r7, #4]
 c00572e:	681b      	ldr	r3, [r3, #0]
 c005730:	f003 0304 	and.w	r3, r3, #4
 c005734:	2b00      	cmp	r3, #0
 c005736:	d008      	beq.n	c00574a <HAL_RCC_ClockConfig+0x1fe>
  {
    assert_param(IS_RCC_PCLK(RCC_ClkInitStruct->APB1CLKDivider));
    MODIFY_REG(RCC->CFGR, RCC_CFGR_PPRE1, RCC_ClkInitStruct->APB1CLKDivider);
 c005738:	4b14      	ldr	r3, [pc, #80]	; (c00578c <HAL_RCC_ClockConfig+0x240>)
 c00573a:	689b      	ldr	r3, [r3, #8]
 c00573c:	f423 62e0 	bic.w	r2, r3, #1792	; 0x700
 c005740:	687b      	ldr	r3, [r7, #4]
 c005742:	68db      	ldr	r3, [r3, #12]
 c005744:	4911      	ldr	r1, [pc, #68]	; (c00578c <HAL_RCC_ClockConfig+0x240>)
 c005746:	4313      	orrs	r3, r2
 c005748:	608b      	str	r3, [r1, #8]
  }

  /*-------------------------- PCLK2 Configuration ---------------------------*/
  if (((RCC_ClkInitStruct->ClockType) & RCC_CLOCKTYPE_PCLK2) == RCC_CLOCKTYPE_PCLK2)
 c00574a:	687b      	ldr	r3, [r7, #4]
 c00574c:	681b      	ldr	r3, [r3, #0]
 c00574e:	f003 0308 	and.w	r3, r3, #8
 c005752:	2b00      	cmp	r3, #0
 c005754:	d009      	beq.n	c00576a <HAL_RCC_ClockConfig+0x21e>
  {
    assert_param(IS_RCC_PCLK(RCC_ClkInitStruct->APB2CLKDivider));
    MODIFY_REG(RCC->CFGR, RCC_CFGR_PPRE2, ((RCC_ClkInitStruct->APB2CLKDivider) << 3U));
 c005756:	4b0d      	ldr	r3, [pc, #52]	; (c00578c <HAL_RCC_ClockConfig+0x240>)
 c005758:	689b      	ldr	r3, [r3, #8]
 c00575a:	f423 5260 	bic.w	r2, r3, #14336	; 0x3800
 c00575e:	687b      	ldr	r3, [r7, #4]
 c005760:	691b      	ldr	r3, [r3, #16]
 c005762:	00db      	lsls	r3, r3, #3
 c005764:	4909      	ldr	r1, [pc, #36]	; (c00578c <HAL_RCC_ClockConfig+0x240>)
 c005766:	4313      	orrs	r3, r2
 c005768:	608b      	str	r3, [r1, #8]
  }

  /* Update the SystemCoreClock global variable */
  SystemCoreClock = HAL_RCC_GetHCLKFreq();
 c00576a:	f000 f8b3 	bl	c0058d4 <HAL_RCC_GetHCLKFreq>
 c00576e:	4603      	mov	r3, r0
 c005770:	4a08      	ldr	r2, [pc, #32]	; (c005794 <HAL_RCC_ClockConfig+0x248>)
 c005772:	6013      	str	r3, [r2, #0]

  /* Configure the source of time base considering new system clocks settings*/
  return HAL_InitTick(uwTickPrio);
 c005774:	4b08      	ldr	r3, [pc, #32]	; (c005798 <HAL_RCC_ClockConfig+0x24c>)
 c005776:	681b      	ldr	r3, [r3, #0]
 c005778:	4618      	mov	r0, r3
 c00577a:	f7fe fa5f 	bl	c003c3c <HAL_InitTick>
 c00577e:	4603      	mov	r3, r0
}
 c005780:	4618      	mov	r0, r3
 c005782:	3718      	adds	r7, #24
 c005784:	46bd      	mov	sp, r7
 c005786:	bd80      	pop	{r7, pc}
 c005788:	50022000 	.word	0x50022000
 c00578c:	50021000 	.word	0x50021000
 c005790:	04c4b400 	.word	0x04c4b400
 c005794:	30000028 	.word	0x30000028
 c005798:	3000002c 	.word	0x3000002c

0c00579c <HAL_RCC_GetSysClockFreq>:
  *
  *
  * @retval SYSCLK frequency
  */
uint32_t HAL_RCC_GetSysClockFreq(void)
{
 c00579c:	b480      	push	{r7}
 c00579e:	b089      	sub	sp, #36	; 0x24
 c0057a0:	af00      	add	r7, sp, #0
  uint32_t msirange = 0U, sysclockfreq = 0U;
 c0057a2:	2300      	movs	r3, #0
 c0057a4:	61fb      	str	r3, [r7, #28]
 c0057a6:	2300      	movs	r3, #0
 c0057a8:	61bb      	str	r3, [r7, #24]
  uint32_t pllvco, pllsource, pllr, pllm;    /* no init needed */
  uint32_t sysclk_source, pll_oscsource;

  sysclk_source = __HAL_RCC_GET_SYSCLK_SOURCE();
 c0057aa:	4b47      	ldr	r3, [pc, #284]	; (c0058c8 <HAL_RCC_GetSysClockFreq+0x12c>)
 c0057ac:	689b      	ldr	r3, [r3, #8]
 c0057ae:	f003 030c 	and.w	r3, r3, #12
 c0057b2:	613b      	str	r3, [r7, #16]
  pll_oscsource = __HAL_RCC_GET_PLL_OSCSOURCE();
 c0057b4:	4b44      	ldr	r3, [pc, #272]	; (c0058c8 <HAL_RCC_GetSysClockFreq+0x12c>)
 c0057b6:	68db      	ldr	r3, [r3, #12]
 c0057b8:	f003 0303 	and.w	r3, r3, #3
 c0057bc:	60fb      	str	r3, [r7, #12]

  if ((sysclk_source == RCC_SYSCLKSOURCE_STATUS_MSI) ||
 c0057be:	693b      	ldr	r3, [r7, #16]
 c0057c0:	2b00      	cmp	r3, #0
 c0057c2:	d005      	beq.n	c0057d0 <HAL_RCC_GetSysClockFreq+0x34>
 c0057c4:	693b      	ldr	r3, [r7, #16]
 c0057c6:	2b0c      	cmp	r3, #12
 c0057c8:	d121      	bne.n	c00580e <HAL_RCC_GetSysClockFreq+0x72>
      ((sysclk_source == RCC_SYSCLKSOURCE_STATUS_PLLCLK) && (pll_oscsource == RCC_PLLSOURCE_MSI)))
 c0057ca:	68fb      	ldr	r3, [r7, #12]
 c0057cc:	2b01      	cmp	r3, #1
 c0057ce:	d11e      	bne.n	c00580e <HAL_RCC_GetSysClockFreq+0x72>
  {
    /* MSI or PLL with MSI source used as system clock source */

    /* Get SYSCLK source */
    if (READ_BIT(RCC->CR, RCC_CR_MSIRGSEL) == 0U)
 c0057d0:	4b3d      	ldr	r3, [pc, #244]	; (c0058c8 <HAL_RCC_GetSysClockFreq+0x12c>)
 c0057d2:	681b      	ldr	r3, [r3, #0]
 c0057d4:	f003 0308 	and.w	r3, r3, #8
 c0057d8:	2b00      	cmp	r3, #0
 c0057da:	d107      	bne.n	c0057ec <HAL_RCC_GetSysClockFreq+0x50>
    {
      /* MSISRANGE from RCC_CSR applies */
      msirange = READ_BIT(RCC->CSR, RCC_CSR_MSISRANGE) >> RCC_CSR_MSISRANGE_Pos;
 c0057dc:	4b3a      	ldr	r3, [pc, #232]	; (c0058c8 <HAL_RCC_GetSysClockFreq+0x12c>)
 c0057de:	f8d3 3094 	ldr.w	r3, [r3, #148]	; 0x94
 c0057e2:	0a1b      	lsrs	r3, r3, #8
 c0057e4:	f003 030f 	and.w	r3, r3, #15
 c0057e8:	61fb      	str	r3, [r7, #28]
 c0057ea:	e005      	b.n	c0057f8 <HAL_RCC_GetSysClockFreq+0x5c>
    }
    else
    {
      /* MSIRANGE from RCC_CR applies */
      msirange = READ_BIT(RCC->CR, RCC_CR_MSIRANGE) >> RCC_CR_MSIRANGE_Pos;
 c0057ec:	4b36      	ldr	r3, [pc, #216]	; (c0058c8 <HAL_RCC_GetSysClockFreq+0x12c>)
 c0057ee:	681b      	ldr	r3, [r3, #0]
 c0057f0:	091b      	lsrs	r3, r3, #4
 c0057f2:	f003 030f 	and.w	r3, r3, #15
 c0057f6:	61fb      	str	r3, [r7, #28]
    }
    /*MSI frequency range in Hz*/
    msirange = MSIRangeTable[msirange];
 c0057f8:	4a34      	ldr	r2, [pc, #208]	; (c0058cc <HAL_RCC_GetSysClockFreq+0x130>)
 c0057fa:	69fb      	ldr	r3, [r7, #28]
 c0057fc:	f852 3023 	ldr.w	r3, [r2, r3, lsl #2]
 c005800:	61fb      	str	r3, [r7, #28]

    if (sysclk_source == RCC_SYSCLKSOURCE_STATUS_MSI)
 c005802:	693b      	ldr	r3, [r7, #16]
 c005804:	2b00      	cmp	r3, #0
 c005806:	d10d      	bne.n	c005824 <HAL_RCC_GetSysClockFreq+0x88>
    {
      /* MSI used as system clock source */
      sysclockfreq = msirange;
 c005808:	69fb      	ldr	r3, [r7, #28]
 c00580a:	61bb      	str	r3, [r7, #24]
    if (sysclk_source == RCC_SYSCLKSOURCE_STATUS_MSI)
 c00580c:	e00a      	b.n	c005824 <HAL_RCC_GetSysClockFreq+0x88>
    }
  }
  else if (sysclk_source == RCC_SYSCLKSOURCE_STATUS_HSI)
 c00580e:	693b      	ldr	r3, [r7, #16]
 c005810:	2b04      	cmp	r3, #4
 c005812:	d102      	bne.n	c00581a <HAL_RCC_GetSysClockFreq+0x7e>
  {
    /* HSI used as system clock source */
    sysclockfreq = HSI_VALUE;
 c005814:	4b2e      	ldr	r3, [pc, #184]	; (c0058d0 <HAL_RCC_GetSysClockFreq+0x134>)
 c005816:	61bb      	str	r3, [r7, #24]
 c005818:	e004      	b.n	c005824 <HAL_RCC_GetSysClockFreq+0x88>
  }
  else if (sysclk_source == RCC_SYSCLKSOURCE_STATUS_HSE)
 c00581a:	693b      	ldr	r3, [r7, #16]
 c00581c:	2b08      	cmp	r3, #8
 c00581e:	d101      	bne.n	c005824 <HAL_RCC_GetSysClockFreq+0x88>
  {
    /* HSE used as system clock source */
    sysclockfreq = HSE_VALUE;
 c005820:	4b2b      	ldr	r3, [pc, #172]	; (c0058d0 <HAL_RCC_GetSysClockFreq+0x134>)
 c005822:	61bb      	str	r3, [r7, #24]
  else
  {
    /* unexpected case: sysclockfreq at 0 */
  }

  if (sysclk_source == RCC_SYSCLKSOURCE_STATUS_PLLCLK)
 c005824:	693b      	ldr	r3, [r7, #16]
 c005826:	2b0c      	cmp	r3, #12
 c005828:	d146      	bne.n	c0058b8 <HAL_RCC_GetSysClockFreq+0x11c>
    /* PLL used as system clock  source */

    /* PLL_VCO = (HSE_VALUE or HSI_VALUE or MSI_VALUE/ PLLM) * PLLN
    SYSCLK = PLL_VCO / PLLR
    */
    pllsource = (RCC->PLLCFGR & RCC_PLLCFGR_PLLSRC);
 c00582a:	4b27      	ldr	r3, [pc, #156]	; (c0058c8 <HAL_RCC_GetSysClockFreq+0x12c>)
 c00582c:	68db      	ldr	r3, [r3, #12]
 c00582e:	f003 0303 	and.w	r3, r3, #3
 c005832:	60bb      	str	r3, [r7, #8]
    pllm = ((RCC->PLLCFGR & RCC_PLLCFGR_PLLM) >> RCC_PLLCFGR_PLLM_Pos) + 1U ;
 c005834:	4b24      	ldr	r3, [pc, #144]	; (c0058c8 <HAL_RCC_GetSysClockFreq+0x12c>)
 c005836:	68db      	ldr	r3, [r3, #12]
 c005838:	091b      	lsrs	r3, r3, #4
 c00583a:	f003 030f 	and.w	r3, r3, #15
 c00583e:	3301      	adds	r3, #1
 c005840:	607b      	str	r3, [r7, #4]

    switch (pllsource)
 c005842:	68bb      	ldr	r3, [r7, #8]
 c005844:	2b02      	cmp	r3, #2
 c005846:	d003      	beq.n	c005850 <HAL_RCC_GetSysClockFreq+0xb4>
 c005848:	68bb      	ldr	r3, [r7, #8]
 c00584a:	2b03      	cmp	r3, #3
 c00584c:	d00d      	beq.n	c00586a <HAL_RCC_GetSysClockFreq+0xce>
 c00584e:	e019      	b.n	c005884 <HAL_RCC_GetSysClockFreq+0xe8>
    {
      case RCC_PLLSOURCE_HSI:  /* HSI used as PLL clock source */
        pllvco = (HSI_VALUE / pllm) * ((RCC->PLLCFGR & RCC_PLLCFGR_PLLN) >> RCC_PLLCFGR_PLLN_Pos);
 c005850:	4a1f      	ldr	r2, [pc, #124]	; (c0058d0 <HAL_RCC_GetSysClockFreq+0x134>)
 c005852:	687b      	ldr	r3, [r7, #4]
 c005854:	fbb2 f3f3 	udiv	r3, r2, r3
 c005858:	4a1b      	ldr	r2, [pc, #108]	; (c0058c8 <HAL_RCC_GetSysClockFreq+0x12c>)
 c00585a:	68d2      	ldr	r2, [r2, #12]
 c00585c:	0a12      	lsrs	r2, r2, #8
 c00585e:	f002 027f 	and.w	r2, r2, #127	; 0x7f
 c005862:	fb02 f303 	mul.w	r3, r2, r3
 c005866:	617b      	str	r3, [r7, #20]
        break;
 c005868:	e019      	b.n	c00589e <HAL_RCC_GetSysClockFreq+0x102>

      case RCC_PLLSOURCE_HSE:  /* HSE used as PLL clock source */
        pllvco = (HSE_VALUE / pllm) * ((RCC->PLLCFGR & RCC_PLLCFGR_PLLN) >> RCC_PLLCFGR_PLLN_Pos);
 c00586a:	4a19      	ldr	r2, [pc, #100]	; (c0058d0 <HAL_RCC_GetSysClockFreq+0x134>)
 c00586c:	687b      	ldr	r3, [r7, #4]
 c00586e:	fbb2 f3f3 	udiv	r3, r2, r3
 c005872:	4a15      	ldr	r2, [pc, #84]	; (c0058c8 <HAL_RCC_GetSysClockFreq+0x12c>)
 c005874:	68d2      	ldr	r2, [r2, #12]
 c005876:	0a12      	lsrs	r2, r2, #8
 c005878:	f002 027f 	and.w	r2, r2, #127	; 0x7f
 c00587c:	fb02 f303 	mul.w	r3, r2, r3
 c005880:	617b      	str	r3, [r7, #20]
        break;
 c005882:	e00c      	b.n	c00589e <HAL_RCC_GetSysClockFreq+0x102>

      case RCC_PLLSOURCE_MSI:  /* MSI used as PLL clock source */
      default:
        pllvco = (msirange / pllm) * ((RCC->PLLCFGR & RCC_PLLCFGR_PLLN) >> RCC_PLLCFGR_PLLN_Pos);
 c005884:	69fa      	ldr	r2, [r7, #28]
 c005886:	687b      	ldr	r3, [r7, #4]
 c005888:	fbb2 f3f3 	udiv	r3, r2, r3
 c00588c:	4a0e      	ldr	r2, [pc, #56]	; (c0058c8 <HAL_RCC_GetSysClockFreq+0x12c>)
 c00588e:	68d2      	ldr	r2, [r2, #12]
 c005890:	0a12      	lsrs	r2, r2, #8
 c005892:	f002 027f 	and.w	r2, r2, #127	; 0x7f
 c005896:	fb02 f303 	mul.w	r3, r2, r3
 c00589a:	617b      	str	r3, [r7, #20]
        break;
 c00589c:	bf00      	nop
    }
    pllr = (((RCC->PLLCFGR & RCC_PLLCFGR_PLLR) >> RCC_PLLCFGR_PLLR_Pos) + 1U) * 2U;
 c00589e:	4b0a      	ldr	r3, [pc, #40]	; (c0058c8 <HAL_RCC_GetSysClockFreq+0x12c>)
 c0058a0:	68db      	ldr	r3, [r3, #12]
 c0058a2:	0e5b      	lsrs	r3, r3, #25
 c0058a4:	f003 0303 	and.w	r3, r3, #3
 c0058a8:	3301      	adds	r3, #1
 c0058aa:	005b      	lsls	r3, r3, #1
 c0058ac:	603b      	str	r3, [r7, #0]
    sysclockfreq = pllvco / pllr;
 c0058ae:	697a      	ldr	r2, [r7, #20]
 c0058b0:	683b      	ldr	r3, [r7, #0]
 c0058b2:	fbb2 f3f3 	udiv	r3, r2, r3
 c0058b6:	61bb      	str	r3, [r7, #24]
  }

  return sysclockfreq;
 c0058b8:	69bb      	ldr	r3, [r7, #24]
}
 c0058ba:	4618      	mov	r0, r3
 c0058bc:	3724      	adds	r7, #36	; 0x24
 c0058be:	46bd      	mov	sp, r7
 c0058c0:	f85d 7b04 	ldr.w	r7, [sp], #4
 c0058c4:	4770      	bx	lr
 c0058c6:	bf00      	nop
 c0058c8:	50021000 	.word	0x50021000
 c0058cc:	0c007d38 	.word	0x0c007d38
 c0058d0:	00f42400 	.word	0x00f42400

0c0058d4 <HAL_RCC_GetHCLKFreq>:
  * @note   Each time HCLK changes, this function must be called to update the
  *         right HCLK value. Otherwise, any configuration based on this function will be incorrect.
  * @retval HCLK frequency in Hz
  */
uint32_t HAL_RCC_GetHCLKFreq(void)
{
 c0058d4:	b580      	push	{r7, lr}
 c0058d6:	af00      	add	r7, sp, #0
  return (HAL_RCC_GetSysClockFreq() >> AHBPrescTable[(RCC->CFGR & RCC_CFGR_HPRE) >> RCC_CFGR_HPRE_Pos]);
 c0058d8:	f7ff ff60 	bl	c00579c <HAL_RCC_GetSysClockFreq>
 c0058dc:	4602      	mov	r2, r0
 c0058de:	4b05      	ldr	r3, [pc, #20]	; (c0058f4 <HAL_RCC_GetHCLKFreq+0x20>)
 c0058e0:	689b      	ldr	r3, [r3, #8]
 c0058e2:	091b      	lsrs	r3, r3, #4
 c0058e4:	f003 030f 	and.w	r3, r3, #15
 c0058e8:	4903      	ldr	r1, [pc, #12]	; (c0058f8 <HAL_RCC_GetHCLKFreq+0x24>)
 c0058ea:	5ccb      	ldrb	r3, [r1, r3]
 c0058ec:	fa22 f303 	lsr.w	r3, r2, r3
}
 c0058f0:	4618      	mov	r0, r3
 c0058f2:	bd80      	pop	{r7, pc}
 c0058f4:	50021000 	.word	0x50021000
 c0058f8:	0c007d20 	.word	0x0c007d20

0c0058fc <HAL_RCC_GetPCLK1Freq>:
  * @note   Each time PCLK1 changes, this function must be called to update the
  *         right PCLK1 value. Otherwise, any configuration based on this function will be incorrect.
  * @retval PCLK1 frequency in Hz
  */
uint32_t HAL_RCC_GetPCLK1Freq(void)
{
 c0058fc:	b580      	push	{r7, lr}
 c0058fe:	af00      	add	r7, sp, #0
  /* Get HCLK source and Compute PCLK1 frequency ---------------------------*/
  return (HAL_RCC_GetHCLKFreq() >> APBPrescTable[(RCC->CFGR & RCC_CFGR_PPRE1) >> RCC_CFGR_PPRE1_Pos]);
 c005900:	f7ff ffe8 	bl	c0058d4 <HAL_RCC_GetHCLKFreq>
 c005904:	4602      	mov	r2, r0
 c005906:	4b05      	ldr	r3, [pc, #20]	; (c00591c <HAL_RCC_GetPCLK1Freq+0x20>)
 c005908:	689b      	ldr	r3, [r3, #8]
 c00590a:	0a1b      	lsrs	r3, r3, #8
 c00590c:	f003 0307 	and.w	r3, r3, #7
 c005910:	4903      	ldr	r1, [pc, #12]	; (c005920 <HAL_RCC_GetPCLK1Freq+0x24>)
 c005912:	5ccb      	ldrb	r3, [r1, r3]
 c005914:	fa22 f303 	lsr.w	r3, r2, r3
}
 c005918:	4618      	mov	r0, r3
 c00591a:	bd80      	pop	{r7, pc}
 c00591c:	50021000 	.word	0x50021000
 c005920:	0c007d30 	.word	0x0c007d30

0c005924 <HAL_RCC_GetPCLK2Freq>:
  * @note   Each time PCLK2 changes, this function must be called to update the
  *         right PCLK2 value. Otherwise, any configuration based on this function will be incorrect.
  * @retval PCLK2 frequency in Hz
  */
uint32_t HAL_RCC_GetPCLK2Freq(void)
{
 c005924:	b580      	push	{r7, lr}
 c005926:	af00      	add	r7, sp, #0
  /* Get HCLK source and Compute PCLK2 frequency ---------------------------*/
  return (HAL_RCC_GetHCLKFreq() >> APBPrescTable[(RCC->CFGR & RCC_CFGR_PPRE2) >> RCC_CFGR_PPRE2_Pos]);
 c005928:	f7ff ffd4 	bl	c0058d4 <HAL_RCC_GetHCLKFreq>
 c00592c:	4602      	mov	r2, r0
 c00592e:	4b05      	ldr	r3, [pc, #20]	; (c005944 <HAL_RCC_GetPCLK2Freq+0x20>)
 c005930:	689b      	ldr	r3, [r3, #8]
 c005932:	0adb      	lsrs	r3, r3, #11
 c005934:	f003 0307 	and.w	r3, r3, #7
 c005938:	4903      	ldr	r1, [pc, #12]	; (c005948 <HAL_RCC_GetPCLK2Freq+0x24>)
 c00593a:	5ccb      	ldrb	r3, [r1, r3]
 c00593c:	fa22 f303 	lsr.w	r3, r2, r3
}
 c005940:	4618      	mov	r0, r3
 c005942:	bd80      	pop	{r7, pc}
 c005944:	50021000 	.word	0x50021000
 c005948:	0c007d30 	.word	0x0c007d30

0c00594c <RCC_SetFlashLatencyFromMSIRange>:
            voltage range.
  * @param  msirange  MSI range value from RCC_MSIRANGE_0 to RCC_MSIRANGE_11
  * @retval HAL status
  */
static HAL_StatusTypeDef RCC_SetFlashLatencyFromMSIRange(uint32_t msirange)
{
 c00594c:	b580      	push	{r7, lr}
 c00594e:	b086      	sub	sp, #24
 c005950:	af00      	add	r7, sp, #0
 c005952:	6078      	str	r0, [r7, #4]
  uint32_t latency = FLASH_LATENCY_0;  /* default value 0WS */
 c005954:	2300      	movs	r3, #0
 c005956:	617b      	str	r3, [r7, #20]
  uint32_t vos;

  if (__HAL_RCC_PWR_IS_CLK_ENABLED())
 c005958:	4b2c      	ldr	r3, [pc, #176]	; (c005a0c <RCC_SetFlashLatencyFromMSIRange+0xc0>)
 c00595a:	6d9b      	ldr	r3, [r3, #88]	; 0x58
 c00595c:	f003 5380 	and.w	r3, r3, #268435456	; 0x10000000
 c005960:	2b00      	cmp	r3, #0
 c005962:	d003      	beq.n	c00596c <RCC_SetFlashLatencyFromMSIRange+0x20>
  {
    vos = HAL_PWREx_GetVoltageRange();
 c005964:	f7ff f862 	bl	c004a2c <HAL_PWREx_GetVoltageRange>
 c005968:	6138      	str	r0, [r7, #16]
 c00596a:	e014      	b.n	c005996 <RCC_SetFlashLatencyFromMSIRange+0x4a>
  }
  else
  {
    __HAL_RCC_PWR_CLK_ENABLE();
 c00596c:	4b27      	ldr	r3, [pc, #156]	; (c005a0c <RCC_SetFlashLatencyFromMSIRange+0xc0>)
 c00596e:	6d9b      	ldr	r3, [r3, #88]	; 0x58
 c005970:	4a26      	ldr	r2, [pc, #152]	; (c005a0c <RCC_SetFlashLatencyFromMSIRange+0xc0>)
 c005972:	f043 5380 	orr.w	r3, r3, #268435456	; 0x10000000
 c005976:	6593      	str	r3, [r2, #88]	; 0x58
 c005978:	4b24      	ldr	r3, [pc, #144]	; (c005a0c <RCC_SetFlashLatencyFromMSIRange+0xc0>)
 c00597a:	6d9b      	ldr	r3, [r3, #88]	; 0x58
 c00597c:	f003 5380 	and.w	r3, r3, #268435456	; 0x10000000
 c005980:	60fb      	str	r3, [r7, #12]
 c005982:	68fb      	ldr	r3, [r7, #12]
    vos = HAL_PWREx_GetVoltageRange();
 c005984:	f7ff f852 	bl	c004a2c <HAL_PWREx_GetVoltageRange>
 c005988:	6138      	str	r0, [r7, #16]
    __HAL_RCC_PWR_CLK_DISABLE();
 c00598a:	4b20      	ldr	r3, [pc, #128]	; (c005a0c <RCC_SetFlashLatencyFromMSIRange+0xc0>)
 c00598c:	6d9b      	ldr	r3, [r3, #88]	; 0x58
 c00598e:	4a1f      	ldr	r2, [pc, #124]	; (c005a0c <RCC_SetFlashLatencyFromMSIRange+0xc0>)
 c005990:	f023 5380 	bic.w	r3, r3, #268435456	; 0x10000000
 c005994:	6593      	str	r3, [r2, #88]	; 0x58
  }

  if ((vos == PWR_REGULATOR_VOLTAGE_SCALE0) || (vos == PWR_REGULATOR_VOLTAGE_SCALE1))
 c005996:	693b      	ldr	r3, [r7, #16]
 c005998:	2b00      	cmp	r3, #0
 c00599a:	d003      	beq.n	c0059a4 <RCC_SetFlashLatencyFromMSIRange+0x58>
 c00599c:	693b      	ldr	r3, [r7, #16]
 c00599e:	f5b3 7f00 	cmp.w	r3, #512	; 0x200
 c0059a2:	d10b      	bne.n	c0059bc <RCC_SetFlashLatencyFromMSIRange+0x70>
  {
    if (msirange > RCC_MSIRANGE_8)
 c0059a4:	687b      	ldr	r3, [r7, #4]
 c0059a6:	2b80      	cmp	r3, #128	; 0x80
 c0059a8:	d919      	bls.n	c0059de <RCC_SetFlashLatencyFromMSIRange+0x92>
    {
      /* MSI > 16Mhz */
      if (msirange > RCC_MSIRANGE_10)
 c0059aa:	687b      	ldr	r3, [r7, #4]
 c0059ac:	2ba0      	cmp	r3, #160	; 0xa0
 c0059ae:	d902      	bls.n	c0059b6 <RCC_SetFlashLatencyFromMSIRange+0x6a>
      {
        /* MSI 48Mhz */
        latency = FLASH_LATENCY_2; /* 2WS */
 c0059b0:	2302      	movs	r3, #2
 c0059b2:	617b      	str	r3, [r7, #20]
    if (msirange > RCC_MSIRANGE_8)
 c0059b4:	e013      	b.n	c0059de <RCC_SetFlashLatencyFromMSIRange+0x92>
      }
      else
      {
        /* MSI 24Mhz or 32Mhz */
        latency = FLASH_LATENCY_1; /* 1WS */
 c0059b6:	2301      	movs	r3, #1
 c0059b8:	617b      	str	r3, [r7, #20]
    if (msirange > RCC_MSIRANGE_8)
 c0059ba:	e010      	b.n	c0059de <RCC_SetFlashLatencyFromMSIRange+0x92>
    }
    /* else MSI <= 16Mhz default FLASH_LATENCY_0 0WS */
  }
  else
  {
    if (msirange > RCC_MSIRANGE_8)
 c0059bc:	687b      	ldr	r3, [r7, #4]
 c0059be:	2b80      	cmp	r3, #128	; 0x80
 c0059c0:	d902      	bls.n	c0059c8 <RCC_SetFlashLatencyFromMSIRange+0x7c>
    {
      /* MSI > 16Mhz */
      latency = FLASH_LATENCY_3; /* 3WS */
 c0059c2:	2303      	movs	r3, #3
 c0059c4:	617b      	str	r3, [r7, #20]
 c0059c6:	e00a      	b.n	c0059de <RCC_SetFlashLatencyFromMSIRange+0x92>
    }
    else
    {
      if (msirange == RCC_MSIRANGE_8)
 c0059c8:	687b      	ldr	r3, [r7, #4]
 c0059ca:	2b80      	cmp	r3, #128	; 0x80
 c0059cc:	d102      	bne.n	c0059d4 <RCC_SetFlashLatencyFromMSIRange+0x88>
      {
        /* MSI 16Mhz */
        latency = FLASH_LATENCY_2; /* 2WS */
 c0059ce:	2302      	movs	r3, #2
 c0059d0:	617b      	str	r3, [r7, #20]
 c0059d2:	e004      	b.n	c0059de <RCC_SetFlashLatencyFromMSIRange+0x92>
      }
      else if (msirange == RCC_MSIRANGE_7)
 c0059d4:	687b      	ldr	r3, [r7, #4]
 c0059d6:	2b70      	cmp	r3, #112	; 0x70
 c0059d8:	d101      	bne.n	c0059de <RCC_SetFlashLatencyFromMSIRange+0x92>
      {
        /* MSI 8Mhz */
        latency = FLASH_LATENCY_1; /* 1WS */
 c0059da:	2301      	movs	r3, #1
 c0059dc:	617b      	str	r3, [r7, #20]
        /* MSI < 8Mhz default FLASH_LATENCY_0 0WS */
      }
    }
  }

  __HAL_FLASH_SET_LATENCY(latency);
 c0059de:	4b0c      	ldr	r3, [pc, #48]	; (c005a10 <RCC_SetFlashLatencyFromMSIRange+0xc4>)
 c0059e0:	681b      	ldr	r3, [r3, #0]
 c0059e2:	f023 020f 	bic.w	r2, r3, #15
 c0059e6:	490a      	ldr	r1, [pc, #40]	; (c005a10 <RCC_SetFlashLatencyFromMSIRange+0xc4>)
 c0059e8:	697b      	ldr	r3, [r7, #20]
 c0059ea:	4313      	orrs	r3, r2
 c0059ec:	600b      	str	r3, [r1, #0]

  /* Check that the new number of wait states is taken into account to access the Flash
     memory by reading the FLASH_ACR register */
  if ((FLASH->ACR & FLASH_ACR_LATENCY) != latency)
 c0059ee:	4b08      	ldr	r3, [pc, #32]	; (c005a10 <RCC_SetFlashLatencyFromMSIRange+0xc4>)
 c0059f0:	681b      	ldr	r3, [r3, #0]
 c0059f2:	f003 030f 	and.w	r3, r3, #15
 c0059f6:	697a      	ldr	r2, [r7, #20]
 c0059f8:	429a      	cmp	r2, r3
 c0059fa:	d001      	beq.n	c005a00 <RCC_SetFlashLatencyFromMSIRange+0xb4>
  {
    return HAL_ERROR;
 c0059fc:	2301      	movs	r3, #1
 c0059fe:	e000      	b.n	c005a02 <RCC_SetFlashLatencyFromMSIRange+0xb6>
  }

  return HAL_OK;
 c005a00:	2300      	movs	r3, #0
}
 c005a02:	4618      	mov	r0, r3
 c005a04:	3718      	adds	r7, #24
 c005a06:	46bd      	mov	sp, r7
 c005a08:	bd80      	pop	{r7, pc}
 c005a0a:	bf00      	nop
 c005a0c:	50021000 	.word	0x50021000
 c005a10:	50022000 	.word	0x50022000

0c005a14 <RCC_GetSysClockFreqFromPLLSource>:
/**
  * @brief  Compute SYSCLK frequency based on PLL SYSCLK source.
  * @retval SYSCLK frequency
  */
static uint32_t RCC_GetSysClockFreqFromPLLSource(void)
{
 c005a14:	b480      	push	{r7}
 c005a16:	b087      	sub	sp, #28
 c005a18:	af00      	add	r7, sp, #0
  uint32_t msirange = 0U;
 c005a1a:	2300      	movs	r3, #0
 c005a1c:	617b      	str	r3, [r7, #20]
  uint32_t pllvco, pllsource, pllr, pllm, sysclockfreq;    /* no init needed */

  if (__HAL_RCC_GET_PLL_OSCSOURCE() == RCC_PLLSOURCE_MSI)
 c005a1e:	4b36      	ldr	r3, [pc, #216]	; (c005af8 <RCC_GetSysClockFreqFromPLLSource+0xe4>)
 c005a20:	68db      	ldr	r3, [r3, #12]
 c005a22:	f003 0303 	and.w	r3, r3, #3
 c005a26:	2b01      	cmp	r3, #1
 c005a28:	d118      	bne.n	c005a5c <RCC_GetSysClockFreqFromPLLSource+0x48>
  {
    /* Get MSI range source */
    if (READ_BIT(RCC->CR, RCC_CR_MSIRGSEL) == 0U)
 c005a2a:	4b33      	ldr	r3, [pc, #204]	; (c005af8 <RCC_GetSysClockFreqFromPLLSource+0xe4>)
 c005a2c:	681b      	ldr	r3, [r3, #0]
 c005a2e:	f003 0308 	and.w	r3, r3, #8
 c005a32:	2b00      	cmp	r3, #0
 c005a34:	d107      	bne.n	c005a46 <RCC_GetSysClockFreqFromPLLSource+0x32>
    {
      /* MSISRANGE from RCC_CSR applies */
      msirange = READ_BIT(RCC->CSR, RCC_CSR_MSISRANGE) >> RCC_CSR_MSISRANGE_Pos;
 c005a36:	4b30      	ldr	r3, [pc, #192]	; (c005af8 <RCC_GetSysClockFreqFromPLLSource+0xe4>)
 c005a38:	f8d3 3094 	ldr.w	r3, [r3, #148]	; 0x94
 c005a3c:	0a1b      	lsrs	r3, r3, #8
 c005a3e:	f003 030f 	and.w	r3, r3, #15
 c005a42:	617b      	str	r3, [r7, #20]
 c005a44:	e005      	b.n	c005a52 <RCC_GetSysClockFreqFromPLLSource+0x3e>
    }
    else
    {
      /* MSIRANGE from RCC_CR applies */
      msirange = READ_BIT(RCC->CR, RCC_CR_MSIRANGE) >> RCC_CR_MSIRANGE_Pos;
 c005a46:	4b2c      	ldr	r3, [pc, #176]	; (c005af8 <RCC_GetSysClockFreqFromPLLSource+0xe4>)
 c005a48:	681b      	ldr	r3, [r3, #0]
 c005a4a:	091b      	lsrs	r3, r3, #4
 c005a4c:	f003 030f 	and.w	r3, r3, #15
 c005a50:	617b      	str	r3, [r7, #20]
    }
    /*MSI frequency range in Hz*/
    msirange = MSIRangeTable[msirange];
 c005a52:	4a2a      	ldr	r2, [pc, #168]	; (c005afc <RCC_GetSysClockFreqFromPLLSource+0xe8>)
 c005a54:	697b      	ldr	r3, [r7, #20]
 c005a56:	f852 3023 	ldr.w	r3, [r2, r3, lsl #2]
 c005a5a:	617b      	str	r3, [r7, #20]
  }

  /* PLL_VCO = (HSE_VALUE or HSI_VALUE or MSI_VALUE/ PLLM) * PLLN
     SYSCLK = PLL_VCO / PLLR
   */
  pllsource = READ_BIT(RCC->PLLCFGR, RCC_PLLCFGR_PLLSRC);
 c005a5c:	4b26      	ldr	r3, [pc, #152]	; (c005af8 <RCC_GetSysClockFreqFromPLLSource+0xe4>)
 c005a5e:	68db      	ldr	r3, [r3, #12]
 c005a60:	f003 0303 	and.w	r3, r3, #3
 c005a64:	60fb      	str	r3, [r7, #12]
  pllm = (READ_BIT(RCC->PLLCFGR, RCC_PLLCFGR_PLLM) >> RCC_PLLCFGR_PLLM_Pos) + 1U ;
 c005a66:	4b24      	ldr	r3, [pc, #144]	; (c005af8 <RCC_GetSysClockFreqFromPLLSource+0xe4>)
 c005a68:	68db      	ldr	r3, [r3, #12]
 c005a6a:	091b      	lsrs	r3, r3, #4
 c005a6c:	f003 030f 	and.w	r3, r3, #15
 c005a70:	3301      	adds	r3, #1
 c005a72:	60bb      	str	r3, [r7, #8]

  switch (pllsource)
 c005a74:	68fb      	ldr	r3, [r7, #12]
 c005a76:	2b02      	cmp	r3, #2
 c005a78:	d003      	beq.n	c005a82 <RCC_GetSysClockFreqFromPLLSource+0x6e>
 c005a7a:	68fb      	ldr	r3, [r7, #12]
 c005a7c:	2b03      	cmp	r3, #3
 c005a7e:	d00d      	beq.n	c005a9c <RCC_GetSysClockFreqFromPLLSource+0x88>
 c005a80:	e019      	b.n	c005ab6 <RCC_GetSysClockFreqFromPLLSource+0xa2>
  {
    case RCC_PLLSOURCE_HSI:  /* HSI used as PLL clock source */
      pllvco = (HSI_VALUE / pllm) * (READ_BIT(RCC->PLLCFGR, RCC_PLLCFGR_PLLN) >> RCC_PLLCFGR_PLLN_Pos);
 c005a82:	4a1f      	ldr	r2, [pc, #124]	; (c005b00 <RCC_GetSysClockFreqFromPLLSource+0xec>)
 c005a84:	68bb      	ldr	r3, [r7, #8]
 c005a86:	fbb2 f3f3 	udiv	r3, r2, r3
 c005a8a:	4a1b      	ldr	r2, [pc, #108]	; (c005af8 <RCC_GetSysClockFreqFromPLLSource+0xe4>)
 c005a8c:	68d2      	ldr	r2, [r2, #12]
 c005a8e:	0a12      	lsrs	r2, r2, #8
 c005a90:	f002 027f 	and.w	r2, r2, #127	; 0x7f
 c005a94:	fb02 f303 	mul.w	r3, r2, r3
 c005a98:	613b      	str	r3, [r7, #16]
      break;
 c005a9a:	e019      	b.n	c005ad0 <RCC_GetSysClockFreqFromPLLSource+0xbc>

    case RCC_PLLSOURCE_HSE:  /* HSE used as PLL clock source */
      pllvco = (HSE_VALUE / pllm) * (READ_BIT(RCC->PLLCFGR, RCC_PLLCFGR_PLLN) >> RCC_PLLCFGR_PLLN_Pos);
 c005a9c:	4a18      	ldr	r2, [pc, #96]	; (c005b00 <RCC_GetSysClockFreqFromPLLSource+0xec>)
 c005a9e:	68bb      	ldr	r3, [r7, #8]
 c005aa0:	fbb2 f3f3 	udiv	r3, r2, r3
 c005aa4:	4a14      	ldr	r2, [pc, #80]	; (c005af8 <RCC_GetSysClockFreqFromPLLSource+0xe4>)
 c005aa6:	68d2      	ldr	r2, [r2, #12]
 c005aa8:	0a12      	lsrs	r2, r2, #8
 c005aaa:	f002 027f 	and.w	r2, r2, #127	; 0x7f
 c005aae:	fb02 f303 	mul.w	r3, r2, r3
 c005ab2:	613b      	str	r3, [r7, #16]
      break;
 c005ab4:	e00c      	b.n	c005ad0 <RCC_GetSysClockFreqFromPLLSource+0xbc>

    case RCC_PLLSOURCE_MSI:  /* MSI used as PLL clock source */
    default:
      pllvco = (msirange / pllm) * (READ_BIT(RCC->PLLCFGR, RCC_PLLCFGR_PLLN) >> RCC_PLLCFGR_PLLN_Pos);
 c005ab6:	697a      	ldr	r2, [r7, #20]
 c005ab8:	68bb      	ldr	r3, [r7, #8]
 c005aba:	fbb2 f3f3 	udiv	r3, r2, r3
 c005abe:	4a0e      	ldr	r2, [pc, #56]	; (c005af8 <RCC_GetSysClockFreqFromPLLSource+0xe4>)
 c005ac0:	68d2      	ldr	r2, [r2, #12]
 c005ac2:	0a12      	lsrs	r2, r2, #8
 c005ac4:	f002 027f 	and.w	r2, r2, #127	; 0x7f
 c005ac8:	fb02 f303 	mul.w	r3, r2, r3
 c005acc:	613b      	str	r3, [r7, #16]
      break;
 c005ace:	bf00      	nop
  }

  pllr = ((READ_BIT(RCC->PLLCFGR, RCC_PLLCFGR_PLLR) >> RCC_PLLCFGR_PLLR_Pos) + 1U) * 2U;
 c005ad0:	4b09      	ldr	r3, [pc, #36]	; (c005af8 <RCC_GetSysClockFreqFromPLLSource+0xe4>)
 c005ad2:	68db      	ldr	r3, [r3, #12]
 c005ad4:	0e5b      	lsrs	r3, r3, #25
 c005ad6:	f003 0303 	and.w	r3, r3, #3
 c005ada:	3301      	adds	r3, #1
 c005adc:	005b      	lsls	r3, r3, #1
 c005ade:	607b      	str	r3, [r7, #4]
  sysclockfreq = pllvco / pllr;
 c005ae0:	693a      	ldr	r2, [r7, #16]
 c005ae2:	687b      	ldr	r3, [r7, #4]
 c005ae4:	fbb2 f3f3 	udiv	r3, r2, r3
 c005ae8:	603b      	str	r3, [r7, #0]

  return sysclockfreq;
 c005aea:	683b      	ldr	r3, [r7, #0]
}
 c005aec:	4618      	mov	r0, r3
 c005aee:	371c      	adds	r7, #28
 c005af0:	46bd      	mov	sp, r7
 c005af2:	f85d 7b04 	ldr.w	r7, [sp], #4
 c005af6:	4770      	bx	lr
 c005af8:	50021000 	.word	0x50021000
 c005afc:	0c007d38 	.word	0x0c007d38
 c005b00:	00f42400 	.word	0x00f42400

0c005b04 <HAL_RCCEx_PeriphCLKConfig>:
  *         the RTC clock source: in this case the access to Backup domain is enabled.
  *
  * @retval HAL status
  */
HAL_StatusTypeDef HAL_RCCEx_PeriphCLKConfig(RCC_PeriphCLKInitTypeDef  *PeriphClkInit)
{
 c005b04:	b580      	push	{r7, lr}
 c005b06:	b088      	sub	sp, #32
 c005b08:	af00      	add	r7, sp, #0
 c005b0a:	6078      	str	r0, [r7, #4]
  HAL_StatusTypeDef ret = HAL_OK;      /* Intermediate status */
 c005b0c:	2300      	movs	r3, #0
 c005b0e:	77fb      	strb	r3, [r7, #31]
  HAL_StatusTypeDef status = HAL_OK;   /* Final status */
 c005b10:	2300      	movs	r3, #0
 c005b12:	77bb      	strb	r3, [r7, #30]

  /* Check the parameters */
  assert_param(IS_RCC_PERIPHCLOCK(PeriphClkInit->PeriphClockSelection));

  /*-------------------------- SAI1 clock source configuration ---------------------*/
  if ((((PeriphClkInit->PeriphClockSelection) & RCC_PERIPHCLK_SAI1) == RCC_PERIPHCLK_SAI1))
 c005b14:	687b      	ldr	r3, [r7, #4]
 c005b16:	681b      	ldr	r3, [r3, #0]
 c005b18:	f403 6300 	and.w	r3, r3, #2048	; 0x800
 c005b1c:	2b00      	cmp	r3, #0
 c005b1e:	d040      	beq.n	c005ba2 <HAL_RCCEx_PeriphCLKConfig+0x9e>
  {
    /* Check the parameters */
    assert_param(IS_RCC_SAI1CLK(PeriphClkInit->Sai1ClockSelection));

    switch (PeriphClkInit->Sai1ClockSelection)
 c005b20:	687b      	ldr	r3, [r7, #4]
 c005b22:	6edb      	ldr	r3, [r3, #108]	; 0x6c
 c005b24:	2b80      	cmp	r3, #128	; 0x80
 c005b26:	d02a      	beq.n	c005b7e <HAL_RCCEx_PeriphCLKConfig+0x7a>
 c005b28:	2b80      	cmp	r3, #128	; 0x80
 c005b2a:	d825      	bhi.n	c005b78 <HAL_RCCEx_PeriphCLKConfig+0x74>
 c005b2c:	2b60      	cmp	r3, #96	; 0x60
 c005b2e:	d026      	beq.n	c005b7e <HAL_RCCEx_PeriphCLKConfig+0x7a>
 c005b30:	2b60      	cmp	r3, #96	; 0x60
 c005b32:	d821      	bhi.n	c005b78 <HAL_RCCEx_PeriphCLKConfig+0x74>
 c005b34:	2b40      	cmp	r3, #64	; 0x40
 c005b36:	d006      	beq.n	c005b46 <HAL_RCCEx_PeriphCLKConfig+0x42>
 c005b38:	2b40      	cmp	r3, #64	; 0x40
 c005b3a:	d81d      	bhi.n	c005b78 <HAL_RCCEx_PeriphCLKConfig+0x74>
 c005b3c:	2b00      	cmp	r3, #0
 c005b3e:	d009      	beq.n	c005b54 <HAL_RCCEx_PeriphCLKConfig+0x50>
 c005b40:	2b20      	cmp	r3, #32
 c005b42:	d010      	beq.n	c005b66 <HAL_RCCEx_PeriphCLKConfig+0x62>
 c005b44:	e018      	b.n	c005b78 <HAL_RCCEx_PeriphCLKConfig+0x74>
    {
      case RCC_SAI1CLKSOURCE_PLL:      /* PLL is used as clock source for SAI1*/
        /* Enable SAI Clock output generated from System PLL . */
        __HAL_RCC_PLLCLKOUT_ENABLE(RCC_PLL_SAI3CLK);
 c005b46:	4b8f      	ldr	r3, [pc, #572]	; (c005d84 <HAL_RCCEx_PeriphCLKConfig+0x280>)
 c005b48:	68db      	ldr	r3, [r3, #12]
 c005b4a:	4a8e      	ldr	r2, [pc, #568]	; (c005d84 <HAL_RCCEx_PeriphCLKConfig+0x280>)
 c005b4c:	f443 3380 	orr.w	r3, r3, #65536	; 0x10000
 c005b50:	60d3      	str	r3, [r2, #12]
        /* SAI1 clock source config set later after clock selection check */
        break;
 c005b52:	e015      	b.n	c005b80 <HAL_RCCEx_PeriphCLKConfig+0x7c>

      case RCC_SAI1CLKSOURCE_PLLSAI1:  /* PLLSAI1 is used as clock source for SAI1*/
        /* PLLSAI1 input clock, parameters M, N & P configuration and clock output (PLLSAI1ClockOut) */
        ret = RCCEx_PLLSAI1_Config(&(PeriphClkInit->PLLSAI1), DIVIDER_P_UPDATE);
 c005b54:	687b      	ldr	r3, [r7, #4]
 c005b56:	3304      	adds	r3, #4
 c005b58:	2100      	movs	r1, #0
 c005b5a:	4618      	mov	r0, r3
 c005b5c:	f000 fb56 	bl	c00620c <RCCEx_PLLSAI1_Config>
 c005b60:	4603      	mov	r3, r0
 c005b62:	77fb      	strb	r3, [r7, #31]
        /* SAI1 clock source config set later after clock selection check */
        break;
 c005b64:	e00c      	b.n	c005b80 <HAL_RCCEx_PeriphCLKConfig+0x7c>

      case RCC_SAI1CLKSOURCE_PLLSAI2:  /* PLLSAI2 is used as clock source for SAI1*/
        /* PLLSAI2 input clock, parameters M, N & P configuration clock output (PLLSAI2ClockOut) */
        ret = RCCEx_PLLSAI2_Config(&(PeriphClkInit->PLLSAI2), DIVIDER_P_UPDATE);
 c005b66:	687b      	ldr	r3, [r7, #4]
 c005b68:	3320      	adds	r3, #32
 c005b6a:	2100      	movs	r1, #0
 c005b6c:	4618      	mov	r0, r3
 c005b6e:	f000 fc33 	bl	c0063d8 <RCCEx_PLLSAI2_Config>
 c005b72:	4603      	mov	r3, r0
 c005b74:	77fb      	strb	r3, [r7, #31]
        /* SAI1 clock source config set later after clock selection check */
        break;
 c005b76:	e003      	b.n	c005b80 <HAL_RCCEx_PeriphCLKConfig+0x7c>
      case RCC_SAI1CLKSOURCE_HSI:      /* HSI is used as source of SAI1 clock*/
        /* SAI1 clock source config set later after clock selection check */
        break;

      default:
        ret = HAL_ERROR;
 c005b78:	2301      	movs	r3, #1
 c005b7a:	77fb      	strb	r3, [r7, #31]
        break;
 c005b7c:	e000      	b.n	c005b80 <HAL_RCCEx_PeriphCLKConfig+0x7c>
        break;
 c005b7e:	bf00      	nop
    }

    if (ret == HAL_OK)
 c005b80:	7ffb      	ldrb	r3, [r7, #31]
 c005b82:	2b00      	cmp	r3, #0
 c005b84:	d10b      	bne.n	c005b9e <HAL_RCCEx_PeriphCLKConfig+0x9a>
    {
      /* Set the source of SAI1 clock*/
      __HAL_RCC_SAI1_CONFIG(PeriphClkInit->Sai1ClockSelection);
 c005b86:	4b7f      	ldr	r3, [pc, #508]	; (c005d84 <HAL_RCCEx_PeriphCLKConfig+0x280>)
 c005b88:	f8d3 309c 	ldr.w	r3, [r3, #156]	; 0x9c
 c005b8c:	f023 02e0 	bic.w	r2, r3, #224	; 0xe0
 c005b90:	687b      	ldr	r3, [r7, #4]
 c005b92:	6edb      	ldr	r3, [r3, #108]	; 0x6c
 c005b94:	497b      	ldr	r1, [pc, #492]	; (c005d84 <HAL_RCCEx_PeriphCLKConfig+0x280>)
 c005b96:	4313      	orrs	r3, r2
 c005b98:	f8c1 309c 	str.w	r3, [r1, #156]	; 0x9c
 c005b9c:	e001      	b.n	c005ba2 <HAL_RCCEx_PeriphCLKConfig+0x9e>
    }
    else
    {
      /* set overall return value */
      status = ret;
 c005b9e:	7ffb      	ldrb	r3, [r7, #31]
 c005ba0:	77bb      	strb	r3, [r7, #30]
    }
  }

  /*-------------------------- SAI2 clock source configuration ---------------------*/
  if ((((PeriphClkInit->PeriphClockSelection) & RCC_PERIPHCLK_SAI2) == RCC_PERIPHCLK_SAI2))
 c005ba2:	687b      	ldr	r3, [r7, #4]
 c005ba4:	681b      	ldr	r3, [r3, #0]
 c005ba6:	f403 5380 	and.w	r3, r3, #4096	; 0x1000
 c005baa:	2b00      	cmp	r3, #0
 c005bac:	d047      	beq.n	c005c3e <HAL_RCCEx_PeriphCLKConfig+0x13a>
  {
    /* Check the parameters */
    assert_param(IS_RCC_SAI2CLK(PeriphClkInit->Sai2ClockSelection));

    switch (PeriphClkInit->Sai2ClockSelection)
 c005bae:	687b      	ldr	r3, [r7, #4]
 c005bb0:	6f1b      	ldr	r3, [r3, #112]	; 0x70
 c005bb2:	f5b3 6f80 	cmp.w	r3, #1024	; 0x400
 c005bb6:	d030      	beq.n	c005c1a <HAL_RCCEx_PeriphCLKConfig+0x116>
 c005bb8:	f5b3 6f80 	cmp.w	r3, #1024	; 0x400
 c005bbc:	d82a      	bhi.n	c005c14 <HAL_RCCEx_PeriphCLKConfig+0x110>
 c005bbe:	f5b3 7f40 	cmp.w	r3, #768	; 0x300
 c005bc2:	d02a      	beq.n	c005c1a <HAL_RCCEx_PeriphCLKConfig+0x116>
 c005bc4:	f5b3 7f40 	cmp.w	r3, #768	; 0x300
 c005bc8:	d824      	bhi.n	c005c14 <HAL_RCCEx_PeriphCLKConfig+0x110>
 c005bca:	f5b3 7f00 	cmp.w	r3, #512	; 0x200
 c005bce:	d008      	beq.n	c005be2 <HAL_RCCEx_PeriphCLKConfig+0xde>
 c005bd0:	f5b3 7f00 	cmp.w	r3, #512	; 0x200
 c005bd4:	d81e      	bhi.n	c005c14 <HAL_RCCEx_PeriphCLKConfig+0x110>
 c005bd6:	2b00      	cmp	r3, #0
 c005bd8:	d00a      	beq.n	c005bf0 <HAL_RCCEx_PeriphCLKConfig+0xec>
 c005bda:	f5b3 7f80 	cmp.w	r3, #256	; 0x100
 c005bde:	d010      	beq.n	c005c02 <HAL_RCCEx_PeriphCLKConfig+0xfe>
 c005be0:	e018      	b.n	c005c14 <HAL_RCCEx_PeriphCLKConfig+0x110>
    {
      case RCC_SAI2CLKSOURCE_PLL:      /* PLL is used as clock source for SAI2*/
        /* Enable SAI Clock output generated from System PLL . */
        __HAL_RCC_PLLCLKOUT_ENABLE(RCC_PLL_SAI3CLK);
 c005be2:	4b68      	ldr	r3, [pc, #416]	; (c005d84 <HAL_RCCEx_PeriphCLKConfig+0x280>)
 c005be4:	68db      	ldr	r3, [r3, #12]
 c005be6:	4a67      	ldr	r2, [pc, #412]	; (c005d84 <HAL_RCCEx_PeriphCLKConfig+0x280>)
 c005be8:	f443 3380 	orr.w	r3, r3, #65536	; 0x10000
 c005bec:	60d3      	str	r3, [r2, #12]
        /* SAI2 clock source config set later after clock selection check */
        break;
 c005bee:	e015      	b.n	c005c1c <HAL_RCCEx_PeriphCLKConfig+0x118>

      case RCC_SAI2CLKSOURCE_PLLSAI1: /* PLLSAI1 is used as clock source for SAI2*/
        /* PLLSAI1 input clock, parameters M, N & P configuration and clock output (PLLSAI1ClockOut) */
        ret = RCCEx_PLLSAI1_Config(&(PeriphClkInit->PLLSAI1), DIVIDER_P_UPDATE);
 c005bf0:	687b      	ldr	r3, [r7, #4]
 c005bf2:	3304      	adds	r3, #4
 c005bf4:	2100      	movs	r1, #0
 c005bf6:	4618      	mov	r0, r3
 c005bf8:	f000 fb08 	bl	c00620c <RCCEx_PLLSAI1_Config>
 c005bfc:	4603      	mov	r3, r0
 c005bfe:	77fb      	strb	r3, [r7, #31]
        /* SAI2 clock source config set later after clock selection check */
        break;
 c005c00:	e00c      	b.n	c005c1c <HAL_RCCEx_PeriphCLKConfig+0x118>

      case RCC_SAI2CLKSOURCE_PLLSAI2:  /* PLLSAI2 is used as clock source for SAI2*/
        /* PLLSAI2 input clock, parameters M, N & P configuration and clock output (PLLSAI2ClockOut) */
        ret = RCCEx_PLLSAI2_Config(&(PeriphClkInit->PLLSAI2), DIVIDER_P_UPDATE);
 c005c02:	687b      	ldr	r3, [r7, #4]
 c005c04:	3320      	adds	r3, #32
 c005c06:	2100      	movs	r1, #0
 c005c08:	4618      	mov	r0, r3
 c005c0a:	f000 fbe5 	bl	c0063d8 <RCCEx_PLLSAI2_Config>
 c005c0e:	4603      	mov	r3, r0
 c005c10:	77fb      	strb	r3, [r7, #31]
        /* SAI2 clock source config set later after clock selection check */
        break;
 c005c12:	e003      	b.n	c005c1c <HAL_RCCEx_PeriphCLKConfig+0x118>
      case RCC_SAI2CLKSOURCE_HSI:      /* HSI is used as source of SAI2 clock*/
        /* SAI2 clock source config set later after clock selection check */
        break;

      default:
        ret = HAL_ERROR;
 c005c14:	2301      	movs	r3, #1
 c005c16:	77fb      	strb	r3, [r7, #31]
        break;
 c005c18:	e000      	b.n	c005c1c <HAL_RCCEx_PeriphCLKConfig+0x118>
        break;
 c005c1a:	bf00      	nop
    }

    if (ret == HAL_OK)
 c005c1c:	7ffb      	ldrb	r3, [r7, #31]
 c005c1e:	2b00      	cmp	r3, #0
 c005c20:	d10b      	bne.n	c005c3a <HAL_RCCEx_PeriphCLKConfig+0x136>
    {
      /* Set the source of SAI2 clock*/
      __HAL_RCC_SAI2_CONFIG(PeriphClkInit->Sai2ClockSelection);
 c005c22:	4b58      	ldr	r3, [pc, #352]	; (c005d84 <HAL_RCCEx_PeriphCLKConfig+0x280>)
 c005c24:	f8d3 309c 	ldr.w	r3, [r3, #156]	; 0x9c
 c005c28:	f423 62e0 	bic.w	r2, r3, #1792	; 0x700
 c005c2c:	687b      	ldr	r3, [r7, #4]
 c005c2e:	6f1b      	ldr	r3, [r3, #112]	; 0x70
 c005c30:	4954      	ldr	r1, [pc, #336]	; (c005d84 <HAL_RCCEx_PeriphCLKConfig+0x280>)
 c005c32:	4313      	orrs	r3, r2
 c005c34:	f8c1 309c 	str.w	r3, [r1, #156]	; 0x9c
 c005c38:	e001      	b.n	c005c3e <HAL_RCCEx_PeriphCLKConfig+0x13a>
    }
    else
    {
      /* set overall return value */
      status = ret;
 c005c3a:	7ffb      	ldrb	r3, [r7, #31]
 c005c3c:	77bb      	strb	r3, [r7, #30]
    }
  }

  /*-------------------------- RTC clock source configuration ----------------------*/
  if ((PeriphClkInit->PeriphClockSelection & RCC_PERIPHCLK_RTC) == RCC_PERIPHCLK_RTC)
 c005c3e:	687b      	ldr	r3, [r7, #4]
 c005c40:	681b      	ldr	r3, [r3, #0]
 c005c42:	f403 3300 	and.w	r3, r3, #131072	; 0x20000
 c005c46:	2b00      	cmp	r3, #0
 c005c48:	f000 80ab 	beq.w	c005da2 <HAL_RCCEx_PeriphCLKConfig+0x29e>
  {
    FlagStatus       pwrclkchanged = RESET;
 c005c4c:	2300      	movs	r3, #0
 c005c4e:	75fb      	strb	r3, [r7, #23]

    /* Check for RTC Parameters used to output RTCCLK */
    assert_param(IS_RCC_RTCCLKSOURCE(PeriphClkInit->RTCClockSelection));

    /* Enable Power Clock */
    if (__HAL_RCC_PWR_IS_CLK_DISABLED())
 c005c50:	4b4c      	ldr	r3, [pc, #304]	; (c005d84 <HAL_RCCEx_PeriphCLKConfig+0x280>)
 c005c52:	6d9b      	ldr	r3, [r3, #88]	; 0x58
 c005c54:	f003 5380 	and.w	r3, r3, #268435456	; 0x10000000
 c005c58:	2b00      	cmp	r3, #0
 c005c5a:	d10d      	bne.n	c005c78 <HAL_RCCEx_PeriphCLKConfig+0x174>
    {
      __HAL_RCC_PWR_CLK_ENABLE();
 c005c5c:	4b49      	ldr	r3, [pc, #292]	; (c005d84 <HAL_RCCEx_PeriphCLKConfig+0x280>)
 c005c5e:	6d9b      	ldr	r3, [r3, #88]	; 0x58
 c005c60:	4a48      	ldr	r2, [pc, #288]	; (c005d84 <HAL_RCCEx_PeriphCLKConfig+0x280>)
 c005c62:	f043 5380 	orr.w	r3, r3, #268435456	; 0x10000000
 c005c66:	6593      	str	r3, [r2, #88]	; 0x58
 c005c68:	4b46      	ldr	r3, [pc, #280]	; (c005d84 <HAL_RCCEx_PeriphCLKConfig+0x280>)
 c005c6a:	6d9b      	ldr	r3, [r3, #88]	; 0x58
 c005c6c:	f003 5380 	and.w	r3, r3, #268435456	; 0x10000000
 c005c70:	60fb      	str	r3, [r7, #12]
 c005c72:	68fb      	ldr	r3, [r7, #12]
      pwrclkchanged = SET;
 c005c74:	2301      	movs	r3, #1
 c005c76:	75fb      	strb	r3, [r7, #23]
    }

    /* Enable write access to Backup domain */
    SET_BIT(PWR->CR1, PWR_CR1_DBP);
 c005c78:	4b43      	ldr	r3, [pc, #268]	; (c005d88 <HAL_RCCEx_PeriphCLKConfig+0x284>)
 c005c7a:	681b      	ldr	r3, [r3, #0]
 c005c7c:	4a42      	ldr	r2, [pc, #264]	; (c005d88 <HAL_RCCEx_PeriphCLKConfig+0x284>)
 c005c7e:	f443 7380 	orr.w	r3, r3, #256	; 0x100
 c005c82:	6013      	str	r3, [r2, #0]

    /* Wait for Backup domain Write protection disable */
    tickstart = HAL_GetTick();
 c005c84:	f7fe f82a 	bl	c003cdc <HAL_GetTick>
 c005c88:	6138      	str	r0, [r7, #16]

    while ((PWR->CR1 & PWR_CR1_DBP) == 0U)
 c005c8a:	e00f      	b.n	c005cac <HAL_RCCEx_PeriphCLKConfig+0x1a8>
    {
      if ((HAL_GetTick() - tickstart) > RCC_DBP_TIMEOUT_VALUE)
 c005c8c:	f7fe f826 	bl	c003cdc <HAL_GetTick>
 c005c90:	4602      	mov	r2, r0
 c005c92:	693b      	ldr	r3, [r7, #16]
 c005c94:	1ad3      	subs	r3, r2, r3
 c005c96:	2b02      	cmp	r3, #2
 c005c98:	d908      	bls.n	c005cac <HAL_RCCEx_PeriphCLKConfig+0x1a8>
      {
        /* New check to avoid false timeout detection in case of preemption */
        if ((PWR->CR1 & PWR_CR1_DBP) == 0U)
 c005c9a:	4b3b      	ldr	r3, [pc, #236]	; (c005d88 <HAL_RCCEx_PeriphCLKConfig+0x284>)
 c005c9c:	681b      	ldr	r3, [r3, #0]
 c005c9e:	f403 7380 	and.w	r3, r3, #256	; 0x100
 c005ca2:	2b00      	cmp	r3, #0
 c005ca4:	d109      	bne.n	c005cba <HAL_RCCEx_PeriphCLKConfig+0x1b6>
        {
          ret = HAL_TIMEOUT;
 c005ca6:	2303      	movs	r3, #3
 c005ca8:	77fb      	strb	r3, [r7, #31]
        }
        break;
 c005caa:	e006      	b.n	c005cba <HAL_RCCEx_PeriphCLKConfig+0x1b6>
    while ((PWR->CR1 & PWR_CR1_DBP) == 0U)
 c005cac:	4b36      	ldr	r3, [pc, #216]	; (c005d88 <HAL_RCCEx_PeriphCLKConfig+0x284>)
 c005cae:	681b      	ldr	r3, [r3, #0]
 c005cb0:	f403 7380 	and.w	r3, r3, #256	; 0x100
 c005cb4:	2b00      	cmp	r3, #0
 c005cb6:	d0e9      	beq.n	c005c8c <HAL_RCCEx_PeriphCLKConfig+0x188>
 c005cb8:	e000      	b.n	c005cbc <HAL_RCCEx_PeriphCLKConfig+0x1b8>
        break;
 c005cba:	bf00      	nop
      }
    }

    if (ret == HAL_OK)
 c005cbc:	7ffb      	ldrb	r3, [r7, #31]
 c005cbe:	2b00      	cmp	r3, #0
 c005cc0:	d164      	bne.n	c005d8c <HAL_RCCEx_PeriphCLKConfig+0x288>
    {
      /* Reset the Backup domain only if the RTC Clock source selection is modified from default */
      tmpregister = READ_BIT(RCC->BDCR, RCC_BDCR_RTCSEL);
 c005cc2:	4b30      	ldr	r3, [pc, #192]	; (c005d84 <HAL_RCCEx_PeriphCLKConfig+0x280>)
 c005cc4:	f8d3 3090 	ldr.w	r3, [r3, #144]	; 0x90
 c005cc8:	f403 7340 	and.w	r3, r3, #768	; 0x300
 c005ccc:	61bb      	str	r3, [r7, #24]

      if ((tmpregister != RCC_RTCCLKSOURCE_NONE) && (tmpregister != PeriphClkInit->RTCClockSelection))
 c005cce:	69bb      	ldr	r3, [r7, #24]
 c005cd0:	2b00      	cmp	r3, #0
 c005cd2:	d01f      	beq.n	c005d14 <HAL_RCCEx_PeriphCLKConfig+0x210>
 c005cd4:	687b      	ldr	r3, [r7, #4]
 c005cd6:	f8d3 3090 	ldr.w	r3, [r3, #144]	; 0x90
 c005cda:	69ba      	ldr	r2, [r7, #24]
 c005cdc:	429a      	cmp	r2, r3
 c005cde:	d019      	beq.n	c005d14 <HAL_RCCEx_PeriphCLKConfig+0x210>
      {
        /* Store the content of BDCR register before the reset of Backup Domain */
        tmpregister = READ_BIT(RCC->BDCR, ~(RCC_BDCR_RTCSEL));
 c005ce0:	4b28      	ldr	r3, [pc, #160]	; (c005d84 <HAL_RCCEx_PeriphCLKConfig+0x280>)
 c005ce2:	f8d3 3090 	ldr.w	r3, [r3, #144]	; 0x90
 c005ce6:	f423 7340 	bic.w	r3, r3, #768	; 0x300
 c005cea:	61bb      	str	r3, [r7, #24]
        /* RTC Clock selection can be changed only if the Backup Domain is reset */
        __HAL_RCC_BACKUPRESET_FORCE();
 c005cec:	4b25      	ldr	r3, [pc, #148]	; (c005d84 <HAL_RCCEx_PeriphCLKConfig+0x280>)
 c005cee:	f8d3 3090 	ldr.w	r3, [r3, #144]	; 0x90
 c005cf2:	4a24      	ldr	r2, [pc, #144]	; (c005d84 <HAL_RCCEx_PeriphCLKConfig+0x280>)
 c005cf4:	f443 3380 	orr.w	r3, r3, #65536	; 0x10000
 c005cf8:	f8c2 3090 	str.w	r3, [r2, #144]	; 0x90
        __HAL_RCC_BACKUPRESET_RELEASE();
 c005cfc:	4b21      	ldr	r3, [pc, #132]	; (c005d84 <HAL_RCCEx_PeriphCLKConfig+0x280>)
 c005cfe:	f8d3 3090 	ldr.w	r3, [r3, #144]	; 0x90
 c005d02:	4a20      	ldr	r2, [pc, #128]	; (c005d84 <HAL_RCCEx_PeriphCLKConfig+0x280>)
 c005d04:	f423 3380 	bic.w	r3, r3, #65536	; 0x10000
 c005d08:	f8c2 3090 	str.w	r3, [r2, #144]	; 0x90
        /* Restore the Content of BDCR register */
        RCC->BDCR = tmpregister;
 c005d0c:	4a1d      	ldr	r2, [pc, #116]	; (c005d84 <HAL_RCCEx_PeriphCLKConfig+0x280>)
 c005d0e:	69bb      	ldr	r3, [r7, #24]
 c005d10:	f8c2 3090 	str.w	r3, [r2, #144]	; 0x90
      }

      /* Wait for LSE reactivation if LSE was enable prior to Backup Domain reset */
      if (HAL_IS_BIT_SET(tmpregister, RCC_BDCR_LSEON))
 c005d14:	69bb      	ldr	r3, [r7, #24]
 c005d16:	f003 0301 	and.w	r3, r3, #1
 c005d1a:	2b00      	cmp	r3, #0
 c005d1c:	d01f      	beq.n	c005d5e <HAL_RCCEx_PeriphCLKConfig+0x25a>
      {
        /* Get Start Tick*/
        tickstart = HAL_GetTick();
 c005d1e:	f7fd ffdd 	bl	c003cdc <HAL_GetTick>
 c005d22:	6138      	str	r0, [r7, #16]

        /* Wait till LSE is ready */
        while (READ_BIT(RCC->BDCR, RCC_BDCR_LSERDY) == 0U)
 c005d24:	e012      	b.n	c005d4c <HAL_RCCEx_PeriphCLKConfig+0x248>
        {
          if ((HAL_GetTick() - tickstart) > RCC_LSE_TIMEOUT_VALUE)
 c005d26:	f7fd ffd9 	bl	c003cdc <HAL_GetTick>
 c005d2a:	4602      	mov	r2, r0
 c005d2c:	693b      	ldr	r3, [r7, #16]
 c005d2e:	1ad3      	subs	r3, r2, r3
 c005d30:	f241 3288 	movw	r2, #5000	; 0x1388
 c005d34:	4293      	cmp	r3, r2
 c005d36:	d909      	bls.n	c005d4c <HAL_RCCEx_PeriphCLKConfig+0x248>
          {
            /* New check to avoid false timeout detection in case of preemption */
            if (READ_BIT(RCC->BDCR, RCC_BDCR_LSERDY) == 0U)
 c005d38:	4b12      	ldr	r3, [pc, #72]	; (c005d84 <HAL_RCCEx_PeriphCLKConfig+0x280>)
 c005d3a:	f8d3 3090 	ldr.w	r3, [r3, #144]	; 0x90
 c005d3e:	f003 0302 	and.w	r3, r3, #2
 c005d42:	2b00      	cmp	r3, #0
 c005d44:	d10a      	bne.n	c005d5c <HAL_RCCEx_PeriphCLKConfig+0x258>
            {
              ret = HAL_TIMEOUT;
 c005d46:	2303      	movs	r3, #3
 c005d48:	77fb      	strb	r3, [r7, #31]
            }
            break;
 c005d4a:	e007      	b.n	c005d5c <HAL_RCCEx_PeriphCLKConfig+0x258>
        while (READ_BIT(RCC->BDCR, RCC_BDCR_LSERDY) == 0U)
 c005d4c:	4b0d      	ldr	r3, [pc, #52]	; (c005d84 <HAL_RCCEx_PeriphCLKConfig+0x280>)
 c005d4e:	f8d3 3090 	ldr.w	r3, [r3, #144]	; 0x90
 c005d52:	f003 0302 	and.w	r3, r3, #2
 c005d56:	2b00      	cmp	r3, #0
 c005d58:	d0e5      	beq.n	c005d26 <HAL_RCCEx_PeriphCLKConfig+0x222>
 c005d5a:	e000      	b.n	c005d5e <HAL_RCCEx_PeriphCLKConfig+0x25a>
            break;
 c005d5c:	bf00      	nop
          }
        }
      }

      if (ret == HAL_OK)
 c005d5e:	7ffb      	ldrb	r3, [r7, #31]
 c005d60:	2b00      	cmp	r3, #0
 c005d62:	d10c      	bne.n	c005d7e <HAL_RCCEx_PeriphCLKConfig+0x27a>
      {
        /* Apply new RTC clock source selection */
        __HAL_RCC_RTC_CONFIG(PeriphClkInit->RTCClockSelection);
 c005d64:	4b07      	ldr	r3, [pc, #28]	; (c005d84 <HAL_RCCEx_PeriphCLKConfig+0x280>)
 c005d66:	f8d3 3090 	ldr.w	r3, [r3, #144]	; 0x90
 c005d6a:	f423 7240 	bic.w	r2, r3, #768	; 0x300
 c005d6e:	687b      	ldr	r3, [r7, #4]
 c005d70:	f8d3 3090 	ldr.w	r3, [r3, #144]	; 0x90
 c005d74:	4903      	ldr	r1, [pc, #12]	; (c005d84 <HAL_RCCEx_PeriphCLKConfig+0x280>)
 c005d76:	4313      	orrs	r3, r2
 c005d78:	f8c1 3090 	str.w	r3, [r1, #144]	; 0x90
 c005d7c:	e008      	b.n	c005d90 <HAL_RCCEx_PeriphCLKConfig+0x28c>
      }
      else
      {
        /* set overall return value */
        status = ret;
 c005d7e:	7ffb      	ldrb	r3, [r7, #31]
 c005d80:	77bb      	strb	r3, [r7, #30]
 c005d82:	e005      	b.n	c005d90 <HAL_RCCEx_PeriphCLKConfig+0x28c>
 c005d84:	50021000 	.word	0x50021000
 c005d88:	50007000 	.word	0x50007000
      }
    }
    else
    {
      /* set overall return value */
      status = ret;
 c005d8c:	7ffb      	ldrb	r3, [r7, #31]
 c005d8e:	77bb      	strb	r3, [r7, #30]
    }

    /* Restore clock configuration if changed */
    if (pwrclkchanged == SET)
 c005d90:	7dfb      	ldrb	r3, [r7, #23]
 c005d92:	2b01      	cmp	r3, #1
 c005d94:	d105      	bne.n	c005da2 <HAL_RCCEx_PeriphCLKConfig+0x29e>
    {
      __HAL_RCC_PWR_CLK_DISABLE();
 c005d96:	4b9c      	ldr	r3, [pc, #624]	; (c006008 <HAL_RCCEx_PeriphCLKConfig+0x504>)
 c005d98:	6d9b      	ldr	r3, [r3, #88]	; 0x58
 c005d9a:	4a9b      	ldr	r2, [pc, #620]	; (c006008 <HAL_RCCEx_PeriphCLKConfig+0x504>)
 c005d9c:	f023 5380 	bic.w	r3, r3, #268435456	; 0x10000000
 c005da0:	6593      	str	r3, [r2, #88]	; 0x58
    }
  }

  /*-------------------------- USART1 clock source configuration -------------------*/
  if (((PeriphClkInit->PeriphClockSelection) & RCC_PERIPHCLK_USART1) == RCC_PERIPHCLK_USART1)
 c005da2:	687b      	ldr	r3, [r7, #4]
 c005da4:	681b      	ldr	r3, [r3, #0]
 c005da6:	f003 0301 	and.w	r3, r3, #1
 c005daa:	2b00      	cmp	r3, #0
 c005dac:	d00a      	beq.n	c005dc4 <HAL_RCCEx_PeriphCLKConfig+0x2c0>
  {
    /* Check the parameters */
    assert_param(IS_RCC_USART1CLKSOURCE(PeriphClkInit->Usart1ClockSelection));

    /* Configure the USART1 clock source */
    __HAL_RCC_USART1_CONFIG(PeriphClkInit->Usart1ClockSelection);
 c005dae:	4b96      	ldr	r3, [pc, #600]	; (c006008 <HAL_RCCEx_PeriphCLKConfig+0x504>)
 c005db0:	f8d3 3088 	ldr.w	r3, [r3, #136]	; 0x88
 c005db4:	f023 0203 	bic.w	r2, r3, #3
 c005db8:	687b      	ldr	r3, [r7, #4]
 c005dba:	6b5b      	ldr	r3, [r3, #52]	; 0x34
 c005dbc:	4992      	ldr	r1, [pc, #584]	; (c006008 <HAL_RCCEx_PeriphCLKConfig+0x504>)
 c005dbe:	4313      	orrs	r3, r2
 c005dc0:	f8c1 3088 	str.w	r3, [r1, #136]	; 0x88
  }

  /*-------------------------- USART2 clock source configuration -------------------*/
  if (((PeriphClkInit->PeriphClockSelection) & RCC_PERIPHCLK_USART2) == RCC_PERIPHCLK_USART2)
 c005dc4:	687b      	ldr	r3, [r7, #4]
 c005dc6:	681b      	ldr	r3, [r3, #0]
 c005dc8:	f003 0302 	and.w	r3, r3, #2
 c005dcc:	2b00      	cmp	r3, #0
 c005dce:	d00a      	beq.n	c005de6 <HAL_RCCEx_PeriphCLKConfig+0x2e2>
  {
    /* Check the parameters */
    assert_param(IS_RCC_USART2CLKSOURCE(PeriphClkInit->Usart2ClockSelection));

    /* Configure the USART2 clock source */
    __HAL_RCC_USART2_CONFIG(PeriphClkInit->Usart2ClockSelection);
 c005dd0:	4b8d      	ldr	r3, [pc, #564]	; (c006008 <HAL_RCCEx_PeriphCLKConfig+0x504>)
 c005dd2:	f8d3 3088 	ldr.w	r3, [r3, #136]	; 0x88
 c005dd6:	f023 020c 	bic.w	r2, r3, #12
 c005dda:	687b      	ldr	r3, [r7, #4]
 c005ddc:	6b9b      	ldr	r3, [r3, #56]	; 0x38
 c005dde:	498a      	ldr	r1, [pc, #552]	; (c006008 <HAL_RCCEx_PeriphCLKConfig+0x504>)
 c005de0:	4313      	orrs	r3, r2
 c005de2:	f8c1 3088 	str.w	r3, [r1, #136]	; 0x88
  }

  /*-------------------------- USART3 clock source configuration -------------------*/
  if (((PeriphClkInit->PeriphClockSelection) & RCC_PERIPHCLK_USART3) == RCC_PERIPHCLK_USART3)
 c005de6:	687b      	ldr	r3, [r7, #4]
 c005de8:	681b      	ldr	r3, [r3, #0]
 c005dea:	f003 0304 	and.w	r3, r3, #4
 c005dee:	2b00      	cmp	r3, #0
 c005df0:	d00a      	beq.n	c005e08 <HAL_RCCEx_PeriphCLKConfig+0x304>
  {
    /* Check the parameters */
    assert_param(IS_RCC_USART3CLKSOURCE(PeriphClkInit->Usart3ClockSelection));

    /* Configure the USART3 clock source */
    __HAL_RCC_USART3_CONFIG(PeriphClkInit->Usart3ClockSelection);
 c005df2:	4b85      	ldr	r3, [pc, #532]	; (c006008 <HAL_RCCEx_PeriphCLKConfig+0x504>)
 c005df4:	f8d3 3088 	ldr.w	r3, [r3, #136]	; 0x88
 c005df8:	f023 0230 	bic.w	r2, r3, #48	; 0x30
 c005dfc:	687b      	ldr	r3, [r7, #4]
 c005dfe:	6bdb      	ldr	r3, [r3, #60]	; 0x3c
 c005e00:	4981      	ldr	r1, [pc, #516]	; (c006008 <HAL_RCCEx_PeriphCLKConfig+0x504>)
 c005e02:	4313      	orrs	r3, r2
 c005e04:	f8c1 3088 	str.w	r3, [r1, #136]	; 0x88
  }

  /*-------------------------- UART4 clock source configuration --------------------*/
  if (((PeriphClkInit->PeriphClockSelection) & RCC_PERIPHCLK_UART4) == RCC_PERIPHCLK_UART4)
 c005e08:	687b      	ldr	r3, [r7, #4]
 c005e0a:	681b      	ldr	r3, [r3, #0]
 c005e0c:	f003 0308 	and.w	r3, r3, #8
 c005e10:	2b00      	cmp	r3, #0
 c005e12:	d00a      	beq.n	c005e2a <HAL_RCCEx_PeriphCLKConfig+0x326>
  {
    /* Check the parameters */
    assert_param(IS_RCC_UART4CLKSOURCE(PeriphClkInit->Uart4ClockSelection));

    /* Configure the UART4 clock source */
    __HAL_RCC_UART4_CONFIG(PeriphClkInit->Uart4ClockSelection);
 c005e14:	4b7c      	ldr	r3, [pc, #496]	; (c006008 <HAL_RCCEx_PeriphCLKConfig+0x504>)
 c005e16:	f8d3 3088 	ldr.w	r3, [r3, #136]	; 0x88
 c005e1a:	f023 02c0 	bic.w	r2, r3, #192	; 0xc0
 c005e1e:	687b      	ldr	r3, [r7, #4]
 c005e20:	6c1b      	ldr	r3, [r3, #64]	; 0x40
 c005e22:	4979      	ldr	r1, [pc, #484]	; (c006008 <HAL_RCCEx_PeriphCLKConfig+0x504>)
 c005e24:	4313      	orrs	r3, r2
 c005e26:	f8c1 3088 	str.w	r3, [r1, #136]	; 0x88
  }

  /*-------------------------- UART5 clock source configuration --------------------*/
  if (((PeriphClkInit->PeriphClockSelection) & RCC_PERIPHCLK_UART5) == RCC_PERIPHCLK_UART5)
 c005e2a:	687b      	ldr	r3, [r7, #4]
 c005e2c:	681b      	ldr	r3, [r3, #0]
 c005e2e:	f003 0310 	and.w	r3, r3, #16
 c005e32:	2b00      	cmp	r3, #0
 c005e34:	d00a      	beq.n	c005e4c <HAL_RCCEx_PeriphCLKConfig+0x348>
  {
    /* Check the parameters */
    assert_param(IS_RCC_UART5CLKSOURCE(PeriphClkInit->Uart5ClockSelection));

    /* Configure the UART5 clock source */
    __HAL_RCC_UART5_CONFIG(PeriphClkInit->Uart5ClockSelection);
 c005e36:	4b74      	ldr	r3, [pc, #464]	; (c006008 <HAL_RCCEx_PeriphCLKConfig+0x504>)
 c005e38:	f8d3 3088 	ldr.w	r3, [r3, #136]	; 0x88
 c005e3c:	f423 7240 	bic.w	r2, r3, #768	; 0x300
 c005e40:	687b      	ldr	r3, [r7, #4]
 c005e42:	6c5b      	ldr	r3, [r3, #68]	; 0x44
 c005e44:	4970      	ldr	r1, [pc, #448]	; (c006008 <HAL_RCCEx_PeriphCLKConfig+0x504>)
 c005e46:	4313      	orrs	r3, r2
 c005e48:	f8c1 3088 	str.w	r3, [r1, #136]	; 0x88
  }

  /*-------------------------- LPUART1 clock source configuration ------------------*/
  if (((PeriphClkInit->PeriphClockSelection) & RCC_PERIPHCLK_LPUART1) == RCC_PERIPHCLK_LPUART1)
 c005e4c:	687b      	ldr	r3, [r7, #4]
 c005e4e:	681b      	ldr	r3, [r3, #0]
 c005e50:	f003 0320 	and.w	r3, r3, #32
 c005e54:	2b00      	cmp	r3, #0
 c005e56:	d00a      	beq.n	c005e6e <HAL_RCCEx_PeriphCLKConfig+0x36a>
  {
    /* Check the parameters */
    assert_param(IS_RCC_LPUART1CLKSOURCE(PeriphClkInit->Lpuart1ClockSelection));

    /* Configure the LPUART1 clock source */
    __HAL_RCC_LPUART1_CONFIG(PeriphClkInit->Lpuart1ClockSelection);
 c005e58:	4b6b      	ldr	r3, [pc, #428]	; (c006008 <HAL_RCCEx_PeriphCLKConfig+0x504>)
 c005e5a:	f8d3 3088 	ldr.w	r3, [r3, #136]	; 0x88
 c005e5e:	f423 6240 	bic.w	r2, r3, #3072	; 0xc00
 c005e62:	687b      	ldr	r3, [r7, #4]
 c005e64:	6c9b      	ldr	r3, [r3, #72]	; 0x48
 c005e66:	4968      	ldr	r1, [pc, #416]	; (c006008 <HAL_RCCEx_PeriphCLKConfig+0x504>)
 c005e68:	4313      	orrs	r3, r2
 c005e6a:	f8c1 3088 	str.w	r3, [r1, #136]	; 0x88
  }

  /*-------------------------- LPTIM1 clock source configuration -------------------*/
  if (((PeriphClkInit->PeriphClockSelection) & RCC_PERIPHCLK_LPTIM1) == (RCC_PERIPHCLK_LPTIM1))
 c005e6e:	687b      	ldr	r3, [r7, #4]
 c005e70:	681b      	ldr	r3, [r3, #0]
 c005e72:	f403 7300 	and.w	r3, r3, #512	; 0x200
 c005e76:	2b00      	cmp	r3, #0
 c005e78:	d00a      	beq.n	c005e90 <HAL_RCCEx_PeriphCLKConfig+0x38c>
  {
    /* Check the parameters */
    assert_param(IS_RCC_LPTIM1CLK(PeriphClkInit->Lptim1ClockSelection));

    /* Configure the LPTIM1 clock source */
    __HAL_RCC_LPTIM1_CONFIG(PeriphClkInit->Lptim1ClockSelection);
 c005e7a:	4b63      	ldr	r3, [pc, #396]	; (c006008 <HAL_RCCEx_PeriphCLKConfig+0x504>)
 c005e7c:	f8d3 3088 	ldr.w	r3, [r3, #136]	; 0x88
 c005e80:	f423 2240 	bic.w	r2, r3, #786432	; 0xc0000
 c005e84:	687b      	ldr	r3, [r7, #4]
 c005e86:	6ddb      	ldr	r3, [r3, #92]	; 0x5c
 c005e88:	495f      	ldr	r1, [pc, #380]	; (c006008 <HAL_RCCEx_PeriphCLKConfig+0x504>)
 c005e8a:	4313      	orrs	r3, r2
 c005e8c:	f8c1 3088 	str.w	r3, [r1, #136]	; 0x88
  }

  /*-------------------------- LPTIM2 clock source configuration -------------------*/
  if (((PeriphClkInit->PeriphClockSelection) & RCC_PERIPHCLK_LPTIM2) == (RCC_PERIPHCLK_LPTIM2))
 c005e90:	687b      	ldr	r3, [r7, #4]
 c005e92:	681b      	ldr	r3, [r3, #0]
 c005e94:	f403 6380 	and.w	r3, r3, #1024	; 0x400
 c005e98:	2b00      	cmp	r3, #0
 c005e9a:	d00a      	beq.n	c005eb2 <HAL_RCCEx_PeriphCLKConfig+0x3ae>
  {
    /* Check the parameters */
    assert_param(IS_RCC_LPTIM2CLK(PeriphClkInit->Lptim2ClockSelection));

    /* Configure the LPTIM2 clock source */
    __HAL_RCC_LPTIM2_CONFIG(PeriphClkInit->Lptim2ClockSelection);
 c005e9c:	4b5a      	ldr	r3, [pc, #360]	; (c006008 <HAL_RCCEx_PeriphCLKConfig+0x504>)
 c005e9e:	f8d3 3088 	ldr.w	r3, [r3, #136]	; 0x88
 c005ea2:	f423 1240 	bic.w	r2, r3, #3145728	; 0x300000
 c005ea6:	687b      	ldr	r3, [r7, #4]
 c005ea8:	6e1b      	ldr	r3, [r3, #96]	; 0x60
 c005eaa:	4957      	ldr	r1, [pc, #348]	; (c006008 <HAL_RCCEx_PeriphCLKConfig+0x504>)
 c005eac:	4313      	orrs	r3, r2
 c005eae:	f8c1 3088 	str.w	r3, [r1, #136]	; 0x88
  }

  /*-------------------------- LPTIM3 clock source configuration -------------------*/
  if (((PeriphClkInit->PeriphClockSelection) & RCC_PERIPHCLK_LPTIM3) == (RCC_PERIPHCLK_LPTIM3))
 c005eb2:	687b      	ldr	r3, [r7, #4]
 c005eb4:	681b      	ldr	r3, [r3, #0]
 c005eb6:	f403 0380 	and.w	r3, r3, #4194304	; 0x400000
 c005eba:	2b00      	cmp	r3, #0
 c005ebc:	d00a      	beq.n	c005ed4 <HAL_RCCEx_PeriphCLKConfig+0x3d0>
  {
    /* Check the parameters */
    assert_param(IS_RCC_LPTIM3CLK(PeriphClkInit->Lptim3ClockSelection));

    /* Configure the LPTIM3 clock source */
    __HAL_RCC_LPTIM3_CONFIG(PeriphClkInit->Lptim3ClockSelection);
 c005ebe:	4b52      	ldr	r3, [pc, #328]	; (c006008 <HAL_RCCEx_PeriphCLKConfig+0x504>)
 c005ec0:	f8d3 3088 	ldr.w	r3, [r3, #136]	; 0x88
 c005ec4:	f423 0240 	bic.w	r2, r3, #12582912	; 0xc00000
 c005ec8:	687b      	ldr	r3, [r7, #4]
 c005eca:	6e5b      	ldr	r3, [r3, #100]	; 0x64
 c005ecc:	494e      	ldr	r1, [pc, #312]	; (c006008 <HAL_RCCEx_PeriphCLKConfig+0x504>)
 c005ece:	4313      	orrs	r3, r2
 c005ed0:	f8c1 3088 	str.w	r3, [r1, #136]	; 0x88
  }

  /*-------------------------- FDCAN kernel clock source configuration -------------*/
  if (((PeriphClkInit->PeriphClockSelection) & RCC_PERIPHCLK_FDCAN) == (RCC_PERIPHCLK_FDCAN))
 c005ed4:	687b      	ldr	r3, [r7, #4]
 c005ed6:	681b      	ldr	r3, [r3, #0]
 c005ed8:	f003 7300 	and.w	r3, r3, #33554432	; 0x2000000
 c005edc:	2b00      	cmp	r3, #0
 c005ede:	d031      	beq.n	c005f44 <HAL_RCCEx_PeriphCLKConfig+0x440>
  {
    /* Check the parameters */
    assert_param(IS_RCC_FDCANCLK(PeriphClkInit->FdcanClockSelection));

    /* Configure the FDCAN kernel clock source */
    switch (PeriphClkInit->FdcanClockSelection)
 c005ee0:	687b      	ldr	r3, [r7, #4]
 c005ee2:	6e9b      	ldr	r3, [r3, #104]	; 0x68
 c005ee4:	f1b3 7f00 	cmp.w	r3, #33554432	; 0x2000000
 c005ee8:	d00e      	beq.n	c005f08 <HAL_RCCEx_PeriphCLKConfig+0x404>
 c005eea:	f1b3 7f00 	cmp.w	r3, #33554432	; 0x2000000
 c005eee:	d814      	bhi.n	c005f1a <HAL_RCCEx_PeriphCLKConfig+0x416>
 c005ef0:	2b00      	cmp	r3, #0
 c005ef2:	d015      	beq.n	c005f20 <HAL_RCCEx_PeriphCLKConfig+0x41c>
 c005ef4:	f1b3 7f80 	cmp.w	r3, #16777216	; 0x1000000
 c005ef8:	d10f      	bne.n	c005f1a <HAL_RCCEx_PeriphCLKConfig+0x416>
        /* FDCAN kernel clock source config set later after clock selection check */
        break;

      case RCC_FDCANCLKSOURCE_PLL:      /* PLL is used as clock source for FDCAN kernel clock*/
        /* Enable PLL48M1CLK output clock generated from System PLL . */
        __HAL_RCC_PLLCLKOUT_ENABLE(RCC_PLL_48M1CLK);
 c005efa:	4b43      	ldr	r3, [pc, #268]	; (c006008 <HAL_RCCEx_PeriphCLKConfig+0x504>)
 c005efc:	68db      	ldr	r3, [r3, #12]
 c005efe:	4a42      	ldr	r2, [pc, #264]	; (c006008 <HAL_RCCEx_PeriphCLKConfig+0x504>)
 c005f00:	f443 1380 	orr.w	r3, r3, #1048576	; 0x100000
 c005f04:	60d3      	str	r3, [r2, #12]
        /* FDCAN kernel clock source config set later after clock selection check */
        break;
 c005f06:	e00c      	b.n	c005f22 <HAL_RCCEx_PeriphCLKConfig+0x41e>

      case RCC_FDCANCLKSOURCE_PLLSAI1:  /* PLLSAI1 is used as clock source for FDCAN kernel clock*/
        /* PLLSAI1 input clock, parameters M, N & P configuration and clock output (PLLSAI1ClockOut) */
        ret = RCCEx_PLLSAI1_Config(&(PeriphClkInit->PLLSAI1), DIVIDER_P_UPDATE);
 c005f08:	687b      	ldr	r3, [r7, #4]
 c005f0a:	3304      	adds	r3, #4
 c005f0c:	2100      	movs	r1, #0
 c005f0e:	4618      	mov	r0, r3
 c005f10:	f000 f97c 	bl	c00620c <RCCEx_PLLSAI1_Config>
 c005f14:	4603      	mov	r3, r0
 c005f16:	77fb      	strb	r3, [r7, #31]
        /* FDCAN kernel clock source config set later after clock selection check */
        break;
 c005f18:	e003      	b.n	c005f22 <HAL_RCCEx_PeriphCLKConfig+0x41e>

      default:
        ret = HAL_ERROR;
 c005f1a:	2301      	movs	r3, #1
 c005f1c:	77fb      	strb	r3, [r7, #31]
        break;
 c005f1e:	e000      	b.n	c005f22 <HAL_RCCEx_PeriphCLKConfig+0x41e>
        break;
 c005f20:	bf00      	nop
    }

    if (ret == HAL_OK)
 c005f22:	7ffb      	ldrb	r3, [r7, #31]
 c005f24:	2b00      	cmp	r3, #0
 c005f26:	d10b      	bne.n	c005f40 <HAL_RCCEx_PeriphCLKConfig+0x43c>
    {
      /* Set the source of FDCAN kernel clock*/
      __HAL_RCC_FDCAN_CONFIG(PeriphClkInit->FdcanClockSelection);
 c005f28:	4b37      	ldr	r3, [pc, #220]	; (c006008 <HAL_RCCEx_PeriphCLKConfig+0x504>)
 c005f2a:	f8d3 3088 	ldr.w	r3, [r3, #136]	; 0x88
 c005f2e:	f023 7240 	bic.w	r2, r3, #50331648	; 0x3000000
 c005f32:	687b      	ldr	r3, [r7, #4]
 c005f34:	6e9b      	ldr	r3, [r3, #104]	; 0x68
 c005f36:	4934      	ldr	r1, [pc, #208]	; (c006008 <HAL_RCCEx_PeriphCLKConfig+0x504>)
 c005f38:	4313      	orrs	r3, r2
 c005f3a:	f8c1 3088 	str.w	r3, [r1, #136]	; 0x88
 c005f3e:	e001      	b.n	c005f44 <HAL_RCCEx_PeriphCLKConfig+0x440>
    }
    else
    {
      /* set overall return value */
      status = ret;
 c005f40:	7ffb      	ldrb	r3, [r7, #31]
 c005f42:	77bb      	strb	r3, [r7, #30]
    }
  }

  /*-------------------------- I2C1 clock source configuration ---------------------*/
  if (((PeriphClkInit->PeriphClockSelection) & RCC_PERIPHCLK_I2C1) == RCC_PERIPHCLK_I2C1)
 c005f44:	687b      	ldr	r3, [r7, #4]
 c005f46:	681b      	ldr	r3, [r3, #0]
 c005f48:	f003 0340 	and.w	r3, r3, #64	; 0x40
 c005f4c:	2b00      	cmp	r3, #0
 c005f4e:	d00a      	beq.n	c005f66 <HAL_RCCEx_PeriphCLKConfig+0x462>
  {
    /* Check the parameters */
    assert_param(IS_RCC_I2C1CLKSOURCE(PeriphClkInit->I2c1ClockSelection));

    /* Configure the I2C1 clock source */
    __HAL_RCC_I2C1_CONFIG(PeriphClkInit->I2c1ClockSelection);
 c005f50:	4b2d      	ldr	r3, [pc, #180]	; (c006008 <HAL_RCCEx_PeriphCLKConfig+0x504>)
 c005f52:	f8d3 3088 	ldr.w	r3, [r3, #136]	; 0x88
 c005f56:	f423 5240 	bic.w	r2, r3, #12288	; 0x3000
 c005f5a:	687b      	ldr	r3, [r7, #4]
 c005f5c:	6cdb      	ldr	r3, [r3, #76]	; 0x4c
 c005f5e:	492a      	ldr	r1, [pc, #168]	; (c006008 <HAL_RCCEx_PeriphCLKConfig+0x504>)
 c005f60:	4313      	orrs	r3, r2
 c005f62:	f8c1 3088 	str.w	r3, [r1, #136]	; 0x88
  }

  /*-------------------------- I2C2 clock source configuration ---------------------*/
  if (((PeriphClkInit->PeriphClockSelection) & RCC_PERIPHCLK_I2C2) == RCC_PERIPHCLK_I2C2)
 c005f66:	687b      	ldr	r3, [r7, #4]
 c005f68:	681b      	ldr	r3, [r3, #0]
 c005f6a:	f003 0380 	and.w	r3, r3, #128	; 0x80
 c005f6e:	2b00      	cmp	r3, #0
 c005f70:	d00a      	beq.n	c005f88 <HAL_RCCEx_PeriphCLKConfig+0x484>
  {
    /* Check the parameters */
    assert_param(IS_RCC_I2C2CLKSOURCE(PeriphClkInit->I2c2ClockSelection));

    /* Configure the I2C2 clock source */
    __HAL_RCC_I2C2_CONFIG(PeriphClkInit->I2c2ClockSelection);
 c005f72:	4b25      	ldr	r3, [pc, #148]	; (c006008 <HAL_RCCEx_PeriphCLKConfig+0x504>)
 c005f74:	f8d3 3088 	ldr.w	r3, [r3, #136]	; 0x88
 c005f78:	f423 4240 	bic.w	r2, r3, #49152	; 0xc000
 c005f7c:	687b      	ldr	r3, [r7, #4]
 c005f7e:	6d1b      	ldr	r3, [r3, #80]	; 0x50
 c005f80:	4921      	ldr	r1, [pc, #132]	; (c006008 <HAL_RCCEx_PeriphCLKConfig+0x504>)
 c005f82:	4313      	orrs	r3, r2
 c005f84:	f8c1 3088 	str.w	r3, [r1, #136]	; 0x88
  }

  /*-------------------------- I2C3 clock source configuration ---------------------*/
  if (((PeriphClkInit->PeriphClockSelection) & RCC_PERIPHCLK_I2C3) == RCC_PERIPHCLK_I2C3)
 c005f88:	687b      	ldr	r3, [r7, #4]
 c005f8a:	681b      	ldr	r3, [r3, #0]
 c005f8c:	f403 7380 	and.w	r3, r3, #256	; 0x100
 c005f90:	2b00      	cmp	r3, #0
 c005f92:	d00a      	beq.n	c005faa <HAL_RCCEx_PeriphCLKConfig+0x4a6>
  {
    /* Check the parameters */
    assert_param(IS_RCC_I2C3CLKSOURCE(PeriphClkInit->I2c3ClockSelection));

    /* Configure the I2C3 clock source */
    __HAL_RCC_I2C3_CONFIG(PeriphClkInit->I2c3ClockSelection);
 c005f94:	4b1c      	ldr	r3, [pc, #112]	; (c006008 <HAL_RCCEx_PeriphCLKConfig+0x504>)
 c005f96:	f8d3 3088 	ldr.w	r3, [r3, #136]	; 0x88
 c005f9a:	f423 3240 	bic.w	r2, r3, #196608	; 0x30000
 c005f9e:	687b      	ldr	r3, [r7, #4]
 c005fa0:	6d5b      	ldr	r3, [r3, #84]	; 0x54
 c005fa2:	4919      	ldr	r1, [pc, #100]	; (c006008 <HAL_RCCEx_PeriphCLKConfig+0x504>)
 c005fa4:	4313      	orrs	r3, r2
 c005fa6:	f8c1 3088 	str.w	r3, [r1, #136]	; 0x88
  }

  /*-------------------------- I2C4 clock source configuration ---------------------*/
  if (((PeriphClkInit->PeriphClockSelection) & RCC_PERIPHCLK_I2C4) == RCC_PERIPHCLK_I2C4)
 c005faa:	687b      	ldr	r3, [r7, #4]
 c005fac:	681b      	ldr	r3, [r3, #0]
 c005fae:	f403 1380 	and.w	r3, r3, #1048576	; 0x100000
 c005fb2:	2b00      	cmp	r3, #0
 c005fb4:	d00a      	beq.n	c005fcc <HAL_RCCEx_PeriphCLKConfig+0x4c8>
  {
    /* Check the parameters */
    assert_param(IS_RCC_I2C4CLKSOURCE(PeriphClkInit->I2c4ClockSelection));

    /* Configure the I2C4 clock source */
    __HAL_RCC_I2C4_CONFIG(PeriphClkInit->I2c4ClockSelection);
 c005fb6:	4b14      	ldr	r3, [pc, #80]	; (c006008 <HAL_RCCEx_PeriphCLKConfig+0x504>)
 c005fb8:	f8d3 309c 	ldr.w	r3, [r3, #156]	; 0x9c
 c005fbc:	f023 0203 	bic.w	r2, r3, #3
 c005fc0:	687b      	ldr	r3, [r7, #4]
 c005fc2:	6d9b      	ldr	r3, [r3, #88]	; 0x58
 c005fc4:	4910      	ldr	r1, [pc, #64]	; (c006008 <HAL_RCCEx_PeriphCLKConfig+0x504>)
 c005fc6:	4313      	orrs	r3, r2
 c005fc8:	f8c1 309c 	str.w	r3, [r1, #156]	; 0x9c
  }

#if defined(USB)

  /*-------------------------- USB clock source configuration ----------------------*/
  if (((PeriphClkInit->PeriphClockSelection) & RCC_PERIPHCLK_USB) == (RCC_PERIPHCLK_USB))
 c005fcc:	687b      	ldr	r3, [r7, #4]
 c005fce:	681b      	ldr	r3, [r3, #0]
 c005fd0:	f403 5300 	and.w	r3, r3, #8192	; 0x2000
 c005fd4:	2b00      	cmp	r3, #0
 c005fd6:	d02b      	beq.n	c006030 <HAL_RCCEx_PeriphCLKConfig+0x52c>
  {
    /* Check the parameters */
    assert_param(IS_RCC_USBCLKSOURCE(PeriphClkInit->UsbClockSelection));

    /* Configure the USB clock source */
    __HAL_RCC_USB_CONFIG(PeriphClkInit->UsbClockSelection);
 c005fd8:	4b0b      	ldr	r3, [pc, #44]	; (c006008 <HAL_RCCEx_PeriphCLKConfig+0x504>)
 c005fda:	f8d3 3088 	ldr.w	r3, [r3, #136]	; 0x88
 c005fde:	f023 6240 	bic.w	r2, r3, #201326592	; 0xc000000
 c005fe2:	687b      	ldr	r3, [r7, #4]
 c005fe4:	6f5b      	ldr	r3, [r3, #116]	; 0x74
 c005fe6:	4908      	ldr	r1, [pc, #32]	; (c006008 <HAL_RCCEx_PeriphCLKConfig+0x504>)
 c005fe8:	4313      	orrs	r3, r2
 c005fea:	f8c1 3088 	str.w	r3, [r1, #136]	; 0x88

    if (PeriphClkInit->UsbClockSelection == RCC_USBCLKSOURCE_PLL)
 c005fee:	687b      	ldr	r3, [r7, #4]
 c005ff0:	6f5b      	ldr	r3, [r3, #116]	; 0x74
 c005ff2:	f1b3 6f00 	cmp.w	r3, #134217728	; 0x8000000
 c005ff6:	d109      	bne.n	c00600c <HAL_RCCEx_PeriphCLKConfig+0x508>
    {
      /* Enable PLL48M1CLK output clock */
      __HAL_RCC_PLLCLKOUT_ENABLE(RCC_PLL_48M1CLK);
 c005ff8:	4b03      	ldr	r3, [pc, #12]	; (c006008 <HAL_RCCEx_PeriphCLKConfig+0x504>)
 c005ffa:	68db      	ldr	r3, [r3, #12]
 c005ffc:	4a02      	ldr	r2, [pc, #8]	; (c006008 <HAL_RCCEx_PeriphCLKConfig+0x504>)
 c005ffe:	f443 1380 	orr.w	r3, r3, #1048576	; 0x100000
 c006002:	60d3      	str	r3, [r2, #12]
 c006004:	e014      	b.n	c006030 <HAL_RCCEx_PeriphCLKConfig+0x52c>
 c006006:	bf00      	nop
 c006008:	50021000 	.word	0x50021000
    }
    else
    {
      if (PeriphClkInit->UsbClockSelection == RCC_USBCLKSOURCE_PLLSAI1)
 c00600c:	687b      	ldr	r3, [r7, #4]
 c00600e:	6f5b      	ldr	r3, [r3, #116]	; 0x74
 c006010:	f1b3 6f80 	cmp.w	r3, #67108864	; 0x4000000
 c006014:	d10c      	bne.n	c006030 <HAL_RCCEx_PeriphCLKConfig+0x52c>
      {
        /* PLLSAI1 input clock, parameters M, N & Q configuration and clock output (PLLSAI1ClockOut) */
        ret = RCCEx_PLLSAI1_Config(&(PeriphClkInit->PLLSAI1), DIVIDER_Q_UPDATE);
 c006016:	687b      	ldr	r3, [r7, #4]
 c006018:	3304      	adds	r3, #4
 c00601a:	2101      	movs	r1, #1
 c00601c:	4618      	mov	r0, r3
 c00601e:	f000 f8f5 	bl	c00620c <RCCEx_PLLSAI1_Config>
 c006022:	4603      	mov	r3, r0
 c006024:	77fb      	strb	r3, [r7, #31]

        if (ret != HAL_OK)
 c006026:	7ffb      	ldrb	r3, [r7, #31]
 c006028:	2b00      	cmp	r3, #0
 c00602a:	d001      	beq.n	c006030 <HAL_RCCEx_PeriphCLKConfig+0x52c>
        {
          /* set overall return value */
          status = ret;
 c00602c:	7ffb      	ldrb	r3, [r7, #31]
 c00602e:	77bb      	strb	r3, [r7, #30]
  }

#endif /* USB */

  /*-------------------------- SDMMC1 clock source configuration -------------------*/
  if (((PeriphClkInit->PeriphClockSelection) & RCC_PERIPHCLK_SDMMC1) == (RCC_PERIPHCLK_SDMMC1))
 c006030:	687b      	ldr	r3, [r7, #4]
 c006032:	681b      	ldr	r3, [r3, #0]
 c006034:	f403 2300 	and.w	r3, r3, #524288	; 0x80000
 c006038:	2b00      	cmp	r3, #0
 c00603a:	d04a      	beq.n	c0060d2 <HAL_RCCEx_PeriphCLKConfig+0x5ce>
  {
    /* Check the parameters */
    assert_param(IS_RCC_SDMMC1CLKSOURCE(PeriphClkInit->Sdmmc1ClockSelection));

    /* Configure the SDMMC1 clock source */
    __HAL_RCC_SDMMC1_CONFIG(PeriphClkInit->Sdmmc1ClockSelection);
 c00603c:	687b      	ldr	r3, [r7, #4]
 c00603e:	6f9b      	ldr	r3, [r3, #120]	; 0x78
 c006040:	f5b3 4f80 	cmp.w	r3, #16384	; 0x4000
 c006044:	d108      	bne.n	c006058 <HAL_RCCEx_PeriphCLKConfig+0x554>
 c006046:	4b70      	ldr	r3, [pc, #448]	; (c006208 <HAL_RCCEx_PeriphCLKConfig+0x704>)
 c006048:	f8d3 309c 	ldr.w	r3, [r3, #156]	; 0x9c
 c00604c:	4a6e      	ldr	r2, [pc, #440]	; (c006208 <HAL_RCCEx_PeriphCLKConfig+0x704>)
 c00604e:	f443 4380 	orr.w	r3, r3, #16384	; 0x4000
 c006052:	f8c2 309c 	str.w	r3, [r2, #156]	; 0x9c
 c006056:	e012      	b.n	c00607e <HAL_RCCEx_PeriphCLKConfig+0x57a>
 c006058:	4b6b      	ldr	r3, [pc, #428]	; (c006208 <HAL_RCCEx_PeriphCLKConfig+0x704>)
 c00605a:	f8d3 3088 	ldr.w	r3, [r3, #136]	; 0x88
 c00605e:	f023 6240 	bic.w	r2, r3, #201326592	; 0xc000000
 c006062:	687b      	ldr	r3, [r7, #4]
 c006064:	6f9b      	ldr	r3, [r3, #120]	; 0x78
 c006066:	4968      	ldr	r1, [pc, #416]	; (c006208 <HAL_RCCEx_PeriphCLKConfig+0x704>)
 c006068:	4313      	orrs	r3, r2
 c00606a:	f8c1 3088 	str.w	r3, [r1, #136]	; 0x88
 c00606e:	4b66      	ldr	r3, [pc, #408]	; (c006208 <HAL_RCCEx_PeriphCLKConfig+0x704>)
 c006070:	f8d3 309c 	ldr.w	r3, [r3, #156]	; 0x9c
 c006074:	4a64      	ldr	r2, [pc, #400]	; (c006208 <HAL_RCCEx_PeriphCLKConfig+0x704>)
 c006076:	f423 4380 	bic.w	r3, r3, #16384	; 0x4000
 c00607a:	f8c2 309c 	str.w	r3, [r2, #156]	; 0x9c

    if (PeriphClkInit->Sdmmc1ClockSelection == RCC_SDMMC1CLKSOURCE_PLLSAI1)
 c00607e:	687b      	ldr	r3, [r7, #4]
 c006080:	6f9b      	ldr	r3, [r3, #120]	; 0x78
 c006082:	f1b3 6f80 	cmp.w	r3, #67108864	; 0x4000000
 c006086:	d10d      	bne.n	c0060a4 <HAL_RCCEx_PeriphCLKConfig+0x5a0>
    {
      /* PLLSAI1 input clock, parameters M, N & Q configuration and clock output (PLLSAI1ClockOut) */
      ret = RCCEx_PLLSAI1_Config(&(PeriphClkInit->PLLSAI1), DIVIDER_Q_UPDATE);
 c006088:	687b      	ldr	r3, [r7, #4]
 c00608a:	3304      	adds	r3, #4
 c00608c:	2101      	movs	r1, #1
 c00608e:	4618      	mov	r0, r3
 c006090:	f000 f8bc 	bl	c00620c <RCCEx_PLLSAI1_Config>
 c006094:	4603      	mov	r3, r0
 c006096:	77fb      	strb	r3, [r7, #31]

      if (ret != HAL_OK)
 c006098:	7ffb      	ldrb	r3, [r7, #31]
 c00609a:	2b00      	cmp	r3, #0
 c00609c:	d019      	beq.n	c0060d2 <HAL_RCCEx_PeriphCLKConfig+0x5ce>
      {
        /* set overall return value */
        status = ret;
 c00609e:	7ffb      	ldrb	r3, [r7, #31]
 c0060a0:	77bb      	strb	r3, [r7, #30]
 c0060a2:	e016      	b.n	c0060d2 <HAL_RCCEx_PeriphCLKConfig+0x5ce>
      }
    }
    else if (PeriphClkInit->Sdmmc1ClockSelection == RCC_SDMMC1CLKSOURCE_PLL)
 c0060a4:	687b      	ldr	r3, [r7, #4]
 c0060a6:	6f9b      	ldr	r3, [r3, #120]	; 0x78
 c0060a8:	f1b3 6f00 	cmp.w	r3, #134217728	; 0x8000000
 c0060ac:	d106      	bne.n	c0060bc <HAL_RCCEx_PeriphCLKConfig+0x5b8>
    {
      /* Enable PLL48M1CLK output clock */
      __HAL_RCC_PLLCLKOUT_ENABLE(RCC_PLL_48M1CLK);
 c0060ae:	4b56      	ldr	r3, [pc, #344]	; (c006208 <HAL_RCCEx_PeriphCLKConfig+0x704>)
 c0060b0:	68db      	ldr	r3, [r3, #12]
 c0060b2:	4a55      	ldr	r2, [pc, #340]	; (c006208 <HAL_RCCEx_PeriphCLKConfig+0x704>)
 c0060b4:	f443 1380 	orr.w	r3, r3, #1048576	; 0x100000
 c0060b8:	60d3      	str	r3, [r2, #12]
 c0060ba:	e00a      	b.n	c0060d2 <HAL_RCCEx_PeriphCLKConfig+0x5ce>
    }
    else if (PeriphClkInit->Sdmmc1ClockSelection == RCC_SDMMC1CLKSOURCE_PLLP)
 c0060bc:	687b      	ldr	r3, [r7, #4]
 c0060be:	6f9b      	ldr	r3, [r3, #120]	; 0x78
 c0060c0:	f5b3 4f80 	cmp.w	r3, #16384	; 0x4000
 c0060c4:	d105      	bne.n	c0060d2 <HAL_RCCEx_PeriphCLKConfig+0x5ce>
    {
      /* Enable PLLSAI3CLK output clock */
      __HAL_RCC_PLLCLKOUT_ENABLE(RCC_PLL_SAI3CLK);
 c0060c6:	4b50      	ldr	r3, [pc, #320]	; (c006208 <HAL_RCCEx_PeriphCLKConfig+0x704>)
 c0060c8:	68db      	ldr	r3, [r3, #12]
 c0060ca:	4a4f      	ldr	r2, [pc, #316]	; (c006208 <HAL_RCCEx_PeriphCLKConfig+0x704>)
 c0060cc:	f443 3380 	orr.w	r3, r3, #65536	; 0x10000
 c0060d0:	60d3      	str	r3, [r2, #12]
      /* Nothing to do */
    }
  }

  /*-------------------------- RNG clock source configuration ----------------------*/
  if (((PeriphClkInit->PeriphClockSelection) & RCC_PERIPHCLK_RNG) == (RCC_PERIPHCLK_RNG))
 c0060d2:	687b      	ldr	r3, [r7, #4]
 c0060d4:	681b      	ldr	r3, [r3, #0]
 c0060d6:	f403 2380 	and.w	r3, r3, #262144	; 0x40000
 c0060da:	2b00      	cmp	r3, #0
 c0060dc:	d028      	beq.n	c006130 <HAL_RCCEx_PeriphCLKConfig+0x62c>
  {
    /* Check the parameters */
    assert_param(IS_RCC_RNGCLKSOURCE(PeriphClkInit->RngClockSelection));

    /* Configure the RNG clock source */
    __HAL_RCC_RNG_CONFIG(PeriphClkInit->RngClockSelection);
 c0060de:	4b4a      	ldr	r3, [pc, #296]	; (c006208 <HAL_RCCEx_PeriphCLKConfig+0x704>)
 c0060e0:	f8d3 3088 	ldr.w	r3, [r3, #136]	; 0x88
 c0060e4:	f023 6240 	bic.w	r2, r3, #201326592	; 0xc000000
 c0060e8:	687b      	ldr	r3, [r7, #4]
 c0060ea:	6fdb      	ldr	r3, [r3, #124]	; 0x7c
 c0060ec:	4946      	ldr	r1, [pc, #280]	; (c006208 <HAL_RCCEx_PeriphCLKConfig+0x704>)
 c0060ee:	4313      	orrs	r3, r2
 c0060f0:	f8c1 3088 	str.w	r3, [r1, #136]	; 0x88

    if (PeriphClkInit->RngClockSelection == RCC_RNGCLKSOURCE_PLL)
 c0060f4:	687b      	ldr	r3, [r7, #4]
 c0060f6:	6fdb      	ldr	r3, [r3, #124]	; 0x7c
 c0060f8:	f1b3 6f00 	cmp.w	r3, #134217728	; 0x8000000
 c0060fc:	d106      	bne.n	c00610c <HAL_RCCEx_PeriphCLKConfig+0x608>
    {
      /* Enable PLL48M1CLK output clock */
      __HAL_RCC_PLLCLKOUT_ENABLE(RCC_PLL_48M1CLK);
 c0060fe:	4b42      	ldr	r3, [pc, #264]	; (c006208 <HAL_RCCEx_PeriphCLKConfig+0x704>)
 c006100:	68db      	ldr	r3, [r3, #12]
 c006102:	4a41      	ldr	r2, [pc, #260]	; (c006208 <HAL_RCCEx_PeriphCLKConfig+0x704>)
 c006104:	f443 1380 	orr.w	r3, r3, #1048576	; 0x100000
 c006108:	60d3      	str	r3, [r2, #12]
 c00610a:	e011      	b.n	c006130 <HAL_RCCEx_PeriphCLKConfig+0x62c>
    }
    else if (PeriphClkInit->RngClockSelection == RCC_RNGCLKSOURCE_PLLSAI1)
 c00610c:	687b      	ldr	r3, [r7, #4]
 c00610e:	6fdb      	ldr	r3, [r3, #124]	; 0x7c
 c006110:	f1b3 6f80 	cmp.w	r3, #67108864	; 0x4000000
 c006114:	d10c      	bne.n	c006130 <HAL_RCCEx_PeriphCLKConfig+0x62c>
    {
      /* PLLSAI1 input clock, parameters M, N & Q configuration and clock output (PLLSAI1ClockOut) */
      ret = RCCEx_PLLSAI1_Config(&(PeriphClkInit->PLLSAI1), DIVIDER_Q_UPDATE);
 c006116:	687b      	ldr	r3, [r7, #4]
 c006118:	3304      	adds	r3, #4
 c00611a:	2101      	movs	r1, #1
 c00611c:	4618      	mov	r0, r3
 c00611e:	f000 f875 	bl	c00620c <RCCEx_PLLSAI1_Config>
 c006122:	4603      	mov	r3, r0
 c006124:	77fb      	strb	r3, [r7, #31]

      if (ret != HAL_OK)
 c006126:	7ffb      	ldrb	r3, [r7, #31]
 c006128:	2b00      	cmp	r3, #0
 c00612a:	d001      	beq.n	c006130 <HAL_RCCEx_PeriphCLKConfig+0x62c>
      {
        /* set overall return value */
        status = ret;
 c00612c:	7ffb      	ldrb	r3, [r7, #31]
 c00612e:	77bb      	strb	r3, [r7, #30]
      /* Nothing to do */
    }
  }

  /*-------------------------- ADC clock source configuration ----------------------*/
  if (((PeriphClkInit->PeriphClockSelection) & RCC_PERIPHCLK_ADC) == RCC_PERIPHCLK_ADC)
 c006130:	687b      	ldr	r3, [r7, #4]
 c006132:	681b      	ldr	r3, [r3, #0]
 c006134:	f403 4380 	and.w	r3, r3, #16384	; 0x4000
 c006138:	2b00      	cmp	r3, #0
 c00613a:	d01e      	beq.n	c00617a <HAL_RCCEx_PeriphCLKConfig+0x676>
  {
    /* Check the parameters */
    assert_param(IS_RCC_ADCCLKSOURCE(PeriphClkInit->AdcClockSelection));

    /* Configure the ADC interface clock source */
    __HAL_RCC_ADC_CONFIG(PeriphClkInit->AdcClockSelection);
 c00613c:	4b32      	ldr	r3, [pc, #200]	; (c006208 <HAL_RCCEx_PeriphCLKConfig+0x704>)
 c00613e:	f8d3 3088 	ldr.w	r3, [r3, #136]	; 0x88
 c006142:	f023 5240 	bic.w	r2, r3, #805306368	; 0x30000000
 c006146:	687b      	ldr	r3, [r7, #4]
 c006148:	f8d3 3080 	ldr.w	r3, [r3, #128]	; 0x80
 c00614c:	492e      	ldr	r1, [pc, #184]	; (c006208 <HAL_RCCEx_PeriphCLKConfig+0x704>)
 c00614e:	4313      	orrs	r3, r2
 c006150:	f8c1 3088 	str.w	r3, [r1, #136]	; 0x88

    if (PeriphClkInit->AdcClockSelection == RCC_ADCCLKSOURCE_PLLSAI1)
 c006154:	687b      	ldr	r3, [r7, #4]
 c006156:	f8d3 3080 	ldr.w	r3, [r3, #128]	; 0x80
 c00615a:	f1b3 5f80 	cmp.w	r3, #268435456	; 0x10000000
 c00615e:	d10c      	bne.n	c00617a <HAL_RCCEx_PeriphCLKConfig+0x676>
    {
      /* PLLSAI1 input clock, parameters M, N & R configuration and clock output (PLLSAI1ClockOut) */
      ret = RCCEx_PLLSAI1_Config(&(PeriphClkInit->PLLSAI1), DIVIDER_R_UPDATE);
 c006160:	687b      	ldr	r3, [r7, #4]
 c006162:	3304      	adds	r3, #4
 c006164:	2102      	movs	r1, #2
 c006166:	4618      	mov	r0, r3
 c006168:	f000 f850 	bl	c00620c <RCCEx_PLLSAI1_Config>
 c00616c:	4603      	mov	r3, r0
 c00616e:	77fb      	strb	r3, [r7, #31]

      if (ret != HAL_OK)
 c006170:	7ffb      	ldrb	r3, [r7, #31]
 c006172:	2b00      	cmp	r3, #0
 c006174:	d001      	beq.n	c00617a <HAL_RCCEx_PeriphCLKConfig+0x676>
      {
        /* set overall return value */
        status = ret;
 c006176:	7ffb      	ldrb	r3, [r7, #31]
 c006178:	77bb      	strb	r3, [r7, #30]
      }
    }
  }

  /*-------------------------- DFSDM1 clock source configuration -------------------*/
  if (((PeriphClkInit->PeriphClockSelection) & RCC_PERIPHCLK_DFSDM1) == RCC_PERIPHCLK_DFSDM1)
 c00617a:	687b      	ldr	r3, [r7, #4]
 c00617c:	681b      	ldr	r3, [r3, #0]
 c00617e:	f403 3380 	and.w	r3, r3, #65536	; 0x10000
 c006182:	2b00      	cmp	r3, #0
 c006184:	d00b      	beq.n	c00619e <HAL_RCCEx_PeriphCLKConfig+0x69a>
  {
    /* Check the parameters */
    assert_param(IS_RCC_DFSDM1CLKSOURCE(PeriphClkInit->Dfsdm1ClockSelection));

    /* Configure the DFSDM1 interface clock source */
    __HAL_RCC_DFSDM1_CONFIG(PeriphClkInit->Dfsdm1ClockSelection);
 c006186:	4b20      	ldr	r3, [pc, #128]	; (c006208 <HAL_RCCEx_PeriphCLKConfig+0x704>)
 c006188:	f8d3 309c 	ldr.w	r3, [r3, #156]	; 0x9c
 c00618c:	f023 0204 	bic.w	r2, r3, #4
 c006190:	687b      	ldr	r3, [r7, #4]
 c006192:	f8d3 3084 	ldr.w	r3, [r3, #132]	; 0x84
 c006196:	491c      	ldr	r1, [pc, #112]	; (c006208 <HAL_RCCEx_PeriphCLKConfig+0x704>)
 c006198:	4313      	orrs	r3, r2
 c00619a:	f8c1 309c 	str.w	r3, [r1, #156]	; 0x9c
  }

  /*-------------------------- DFSDM1 audio clock source configuration -------------*/
  if (((PeriphClkInit->PeriphClockSelection) & RCC_PERIPHCLK_DFSDM1AUDIO) == RCC_PERIPHCLK_DFSDM1AUDIO)
 c00619e:	687b      	ldr	r3, [r7, #4]
 c0061a0:	681b      	ldr	r3, [r3, #0]
 c0061a2:	f403 1300 	and.w	r3, r3, #2097152	; 0x200000
 c0061a6:	2b00      	cmp	r3, #0
 c0061a8:	d00b      	beq.n	c0061c2 <HAL_RCCEx_PeriphCLKConfig+0x6be>
  {
    /* Check the parameters */
    assert_param(IS_RCC_DFSDM1AUDIOCLKSOURCE(PeriphClkInit->Dfsdm1AudioClockSelection));

    /* Configure the DFSDM1 interface audio clock source */
    __HAL_RCC_DFSDM1AUDIO_CONFIG(PeriphClkInit->Dfsdm1AudioClockSelection);
 c0061aa:	4b17      	ldr	r3, [pc, #92]	; (c006208 <HAL_RCCEx_PeriphCLKConfig+0x704>)
 c0061ac:	f8d3 309c 	ldr.w	r3, [r3, #156]	; 0x9c
 c0061b0:	f023 0218 	bic.w	r2, r3, #24
 c0061b4:	687b      	ldr	r3, [r7, #4]
 c0061b6:	f8d3 3088 	ldr.w	r3, [r3, #136]	; 0x88
 c0061ba:	4913      	ldr	r1, [pc, #76]	; (c006208 <HAL_RCCEx_PeriphCLKConfig+0x704>)
 c0061bc:	4313      	orrs	r3, r2
 c0061be:	f8c1 309c 	str.w	r3, [r1, #156]	; 0x9c
  }

  /*-------------------------- OctoSPIx clock source configuration ----------------*/
  if (((PeriphClkInit->PeriphClockSelection) & RCC_PERIPHCLK_OSPI) == RCC_PERIPHCLK_OSPI)
 c0061c2:	687b      	ldr	r3, [r7, #4]
 c0061c4:	681b      	ldr	r3, [r3, #0]
 c0061c6:	f003 7380 	and.w	r3, r3, #16777216	; 0x1000000
 c0061ca:	2b00      	cmp	r3, #0
 c0061cc:	d017      	beq.n	c0061fe <HAL_RCCEx_PeriphCLKConfig+0x6fa>
  {
    /* Check the parameters */
    assert_param(IS_RCC_OSPICLKSOURCE(PeriphClkInit->OspiClockSelection));

    /* Configure the OctoSPI clock source */
    __HAL_RCC_OSPI_CONFIG(PeriphClkInit->OspiClockSelection);
 c0061ce:	4b0e      	ldr	r3, [pc, #56]	; (c006208 <HAL_RCCEx_PeriphCLKConfig+0x704>)
 c0061d0:	f8d3 309c 	ldr.w	r3, [r3, #156]	; 0x9c
 c0061d4:	f423 1240 	bic.w	r2, r3, #3145728	; 0x300000
 c0061d8:	687b      	ldr	r3, [r7, #4]
 c0061da:	f8d3 308c 	ldr.w	r3, [r3, #140]	; 0x8c
 c0061de:	490a      	ldr	r1, [pc, #40]	; (c006208 <HAL_RCCEx_PeriphCLKConfig+0x704>)
 c0061e0:	4313      	orrs	r3, r2
 c0061e2:	f8c1 309c 	str.w	r3, [r1, #156]	; 0x9c

    if (PeriphClkInit->OspiClockSelection == RCC_OSPICLKSOURCE_PLL)
 c0061e6:	687b      	ldr	r3, [r7, #4]
 c0061e8:	f8d3 308c 	ldr.w	r3, [r3, #140]	; 0x8c
 c0061ec:	f5b3 1f00 	cmp.w	r3, #2097152	; 0x200000
 c0061f0:	d105      	bne.n	c0061fe <HAL_RCCEx_PeriphCLKConfig+0x6fa>
    {
      /* Enable PLL48M1CLK output clock */
      __HAL_RCC_PLLCLKOUT_ENABLE(RCC_PLL_48M1CLK);
 c0061f2:	4b05      	ldr	r3, [pc, #20]	; (c006208 <HAL_RCCEx_PeriphCLKConfig+0x704>)
 c0061f4:	68db      	ldr	r3, [r3, #12]
 c0061f6:	4a04      	ldr	r2, [pc, #16]	; (c006208 <HAL_RCCEx_PeriphCLKConfig+0x704>)
 c0061f8:	f443 1380 	orr.w	r3, r3, #1048576	; 0x100000
 c0061fc:	60d3      	str	r3, [r2, #12]
    }
  }

  return status;
 c0061fe:	7fbb      	ldrb	r3, [r7, #30]
}
 c006200:	4618      	mov	r0, r3
 c006202:	3720      	adds	r7, #32
 c006204:	46bd      	mov	sp, r7
 c006206:	bd80      	pop	{r7, pc}
 c006208:	50021000 	.word	0x50021000

0c00620c <RCCEx_PLLSAI1_Config>:
  * @note   PLLSAI1 is temporary disable to apply new parameters
  *
  * @retval HAL status
  */
static HAL_StatusTypeDef RCCEx_PLLSAI1_Config(RCC_PLLSAI1InitTypeDef *pPllSai1, uint32_t Divider)
{
 c00620c:	b580      	push	{r7, lr}
 c00620e:	b084      	sub	sp, #16
 c006210:	af00      	add	r7, sp, #0
 c006212:	6078      	str	r0, [r7, #4]
 c006214:	6039      	str	r1, [r7, #0]
  HAL_StatusTypeDef status = HAL_OK;
 c006216:	2300      	movs	r3, #0
 c006218:	73fb      	strb	r3, [r7, #15]
  assert_param(IS_RCC_PLLSAI1M_VALUE(pPllSai1->PLLSAI1M));
  assert_param(IS_RCC_PLLSAI1N_VALUE(pPllSai1->PLLSAI1N));
  assert_param(IS_RCC_PLLSAI1CLOCKOUT_VALUE(pPllSai1->PLLSAI1ClockOut));

  /* Check PLLSAI1 clock source availability */
  switch (pPllSai1->PLLSAI1Source)
 c00621a:	687b      	ldr	r3, [r7, #4]
 c00621c:	681b      	ldr	r3, [r3, #0]
 c00621e:	2b03      	cmp	r3, #3
 c006220:	d018      	beq.n	c006254 <RCCEx_PLLSAI1_Config+0x48>
 c006222:	2b03      	cmp	r3, #3
 c006224:	d81f      	bhi.n	c006266 <RCCEx_PLLSAI1_Config+0x5a>
 c006226:	2b01      	cmp	r3, #1
 c006228:	d002      	beq.n	c006230 <RCCEx_PLLSAI1_Config+0x24>
 c00622a:	2b02      	cmp	r3, #2
 c00622c:	d009      	beq.n	c006242 <RCCEx_PLLSAI1_Config+0x36>
 c00622e:	e01a      	b.n	c006266 <RCCEx_PLLSAI1_Config+0x5a>
  {
    case RCC_PLLSOURCE_MSI:
      if (HAL_IS_BIT_CLR(RCC->CR, RCC_CR_MSIRDY))
 c006230:	4b65      	ldr	r3, [pc, #404]	; (c0063c8 <RCCEx_PLLSAI1_Config+0x1bc>)
 c006232:	681b      	ldr	r3, [r3, #0]
 c006234:	f003 0302 	and.w	r3, r3, #2
 c006238:	2b00      	cmp	r3, #0
 c00623a:	d117      	bne.n	c00626c <RCCEx_PLLSAI1_Config+0x60>
      {
        status = HAL_ERROR;
 c00623c:	2301      	movs	r3, #1
 c00623e:	73fb      	strb	r3, [r7, #15]
      }
      break;
 c006240:	e014      	b.n	c00626c <RCCEx_PLLSAI1_Config+0x60>
    case RCC_PLLSOURCE_HSI:
      if (HAL_IS_BIT_CLR(RCC->CR, RCC_CR_HSIRDY))
 c006242:	4b61      	ldr	r3, [pc, #388]	; (c0063c8 <RCCEx_PLLSAI1_Config+0x1bc>)
 c006244:	681b      	ldr	r3, [r3, #0]
 c006246:	f403 6380 	and.w	r3, r3, #1024	; 0x400
 c00624a:	2b00      	cmp	r3, #0
 c00624c:	d110      	bne.n	c006270 <RCCEx_PLLSAI1_Config+0x64>
      {
        status = HAL_ERROR;
 c00624e:	2301      	movs	r3, #1
 c006250:	73fb      	strb	r3, [r7, #15]
      }
      break;
 c006252:	e00d      	b.n	c006270 <RCCEx_PLLSAI1_Config+0x64>
    case RCC_PLLSOURCE_HSE:
      if (HAL_IS_BIT_CLR(RCC->CR, (RCC_CR_HSERDY | RCC_CR_HSEBYP)))
 c006254:	4b5c      	ldr	r3, [pc, #368]	; (c0063c8 <RCCEx_PLLSAI1_Config+0x1bc>)
 c006256:	681b      	ldr	r3, [r3, #0]
 c006258:	f403 23c0 	and.w	r3, r3, #393216	; 0x60000
 c00625c:	2b00      	cmp	r3, #0
 c00625e:	d109      	bne.n	c006274 <RCCEx_PLLSAI1_Config+0x68>
      {
        status = HAL_ERROR;
 c006260:	2301      	movs	r3, #1
 c006262:	73fb      	strb	r3, [r7, #15]
      }
      break;
 c006264:	e006      	b.n	c006274 <RCCEx_PLLSAI1_Config+0x68>
    default:
      status = HAL_ERROR;
 c006266:	2301      	movs	r3, #1
 c006268:	73fb      	strb	r3, [r7, #15]
      break;
 c00626a:	e004      	b.n	c006276 <RCCEx_PLLSAI1_Config+0x6a>
      break;
 c00626c:	bf00      	nop
 c00626e:	e002      	b.n	c006276 <RCCEx_PLLSAI1_Config+0x6a>
      break;
 c006270:	bf00      	nop
 c006272:	e000      	b.n	c006276 <RCCEx_PLLSAI1_Config+0x6a>
      break;
 c006274:	bf00      	nop
  }

  if (status == HAL_OK)
 c006276:	7bfb      	ldrb	r3, [r7, #15]
 c006278:	2b00      	cmp	r3, #0
 c00627a:	f040 809f 	bne.w	c0063bc <RCCEx_PLLSAI1_Config+0x1b0>
  {
    /* Disable the PLLSAI1 */
    __HAL_RCC_PLLSAI1_DISABLE();
 c00627e:	4b52      	ldr	r3, [pc, #328]	; (c0063c8 <RCCEx_PLLSAI1_Config+0x1bc>)
 c006280:	681b      	ldr	r3, [r3, #0]
 c006282:	4a51      	ldr	r2, [pc, #324]	; (c0063c8 <RCCEx_PLLSAI1_Config+0x1bc>)
 c006284:	f023 6380 	bic.w	r3, r3, #67108864	; 0x4000000
 c006288:	6013      	str	r3, [r2, #0]

    /* Get Start Tick*/
    tickstart = HAL_GetTick();
 c00628a:	f7fd fd27 	bl	c003cdc <HAL_GetTick>
 c00628e:	60b8      	str	r0, [r7, #8]

    /* Wait till PLLSAI1 is ready to be updated */
    while (READ_BIT(RCC->CR, RCC_CR_PLLSAI1RDY) != 0U)
 c006290:	e00f      	b.n	c0062b2 <RCCEx_PLLSAI1_Config+0xa6>
    {
      if ((HAL_GetTick() - tickstart) > PLLSAI1_TIMEOUT_VALUE)
 c006292:	f7fd fd23 	bl	c003cdc <HAL_GetTick>
 c006296:	4602      	mov	r2, r0
 c006298:	68bb      	ldr	r3, [r7, #8]
 c00629a:	1ad3      	subs	r3, r2, r3
 c00629c:	2b02      	cmp	r3, #2
 c00629e:	d908      	bls.n	c0062b2 <RCCEx_PLLSAI1_Config+0xa6>
      {
        /* New check to avoid false timeout detection in case of preemption */
        if (READ_BIT(RCC->CR, RCC_CR_PLLSAI1RDY) != 0U)
 c0062a0:	4b49      	ldr	r3, [pc, #292]	; (c0063c8 <RCCEx_PLLSAI1_Config+0x1bc>)
 c0062a2:	681b      	ldr	r3, [r3, #0]
 c0062a4:	f003 6300 	and.w	r3, r3, #134217728	; 0x8000000
 c0062a8:	2b00      	cmp	r3, #0
 c0062aa:	d009      	beq.n	c0062c0 <RCCEx_PLLSAI1_Config+0xb4>
        {
          status = HAL_TIMEOUT;
 c0062ac:	2303      	movs	r3, #3
 c0062ae:	73fb      	strb	r3, [r7, #15]
        }
        break;
 c0062b0:	e006      	b.n	c0062c0 <RCCEx_PLLSAI1_Config+0xb4>
    while (READ_BIT(RCC->CR, RCC_CR_PLLSAI1RDY) != 0U)
 c0062b2:	4b45      	ldr	r3, [pc, #276]	; (c0063c8 <RCCEx_PLLSAI1_Config+0x1bc>)
 c0062b4:	681b      	ldr	r3, [r3, #0]
 c0062b6:	f003 6300 	and.w	r3, r3, #134217728	; 0x8000000
 c0062ba:	2b00      	cmp	r3, #0
 c0062bc:	d1e9      	bne.n	c006292 <RCCEx_PLLSAI1_Config+0x86>
 c0062be:	e000      	b.n	c0062c2 <RCCEx_PLLSAI1_Config+0xb6>
        break;
 c0062c0:	bf00      	nop
      }
    }

    if (status == HAL_OK)
 c0062c2:	7bfb      	ldrb	r3, [r7, #15]
 c0062c4:	2b00      	cmp	r3, #0
 c0062c6:	d179      	bne.n	c0063bc <RCCEx_PLLSAI1_Config+0x1b0>
    {
      if (Divider == DIVIDER_P_UPDATE)
 c0062c8:	683b      	ldr	r3, [r7, #0]
 c0062ca:	2b00      	cmp	r3, #0
 c0062cc:	d116      	bne.n	c0062fc <RCCEx_PLLSAI1_Config+0xf0>
      {
        assert_param(IS_RCC_PLLSAI1P_VALUE(pPllSai1->PLLSAI1P));

        /* Configure the PLLSAI1 Division factor M, P and Multiplication factor N*/
        MODIFY_REG(RCC->PLLSAI1CFGR,
 c0062ce:	4b3e      	ldr	r3, [pc, #248]	; (c0063c8 <RCCEx_PLLSAI1_Config+0x1bc>)
 c0062d0:	691a      	ldr	r2, [r3, #16]
 c0062d2:	4b3e      	ldr	r3, [pc, #248]	; (c0063cc <RCCEx_PLLSAI1_Config+0x1c0>)
 c0062d4:	4013      	ands	r3, r2
 c0062d6:	687a      	ldr	r2, [r7, #4]
 c0062d8:	6892      	ldr	r2, [r2, #8]
 c0062da:	0211      	lsls	r1, r2, #8
 c0062dc:	687a      	ldr	r2, [r7, #4]
 c0062de:	68d2      	ldr	r2, [r2, #12]
 c0062e0:	06d2      	lsls	r2, r2, #27
 c0062e2:	4311      	orrs	r1, r2
 c0062e4:	687a      	ldr	r2, [r7, #4]
 c0062e6:	6852      	ldr	r2, [r2, #4]
 c0062e8:	3a01      	subs	r2, #1
 c0062ea:	0112      	lsls	r2, r2, #4
 c0062ec:	4311      	orrs	r1, r2
 c0062ee:	687a      	ldr	r2, [r7, #4]
 c0062f0:	6812      	ldr	r2, [r2, #0]
 c0062f2:	430a      	orrs	r2, r1
 c0062f4:	4934      	ldr	r1, [pc, #208]	; (c0063c8 <RCCEx_PLLSAI1_Config+0x1bc>)
 c0062f6:	4313      	orrs	r3, r2
 c0062f8:	610b      	str	r3, [r1, #16]
 c0062fa:	e033      	b.n	c006364 <RCCEx_PLLSAI1_Config+0x158>
                   (pPllSai1->PLLSAI1N << RCC_PLLSAI1CFGR_PLLSAI1N_Pos) |
                   (pPllSai1->PLLSAI1P << RCC_PLLSAI1CFGR_PLLSAI1PDIV_Pos) |
                   ((pPllSai1->PLLSAI1M - 1U) << RCC_PLLSAI1CFGR_PLLSAI1M_Pos) |
                   pPllSai1->PLLSAI1Source);
      }
      else if (Divider == DIVIDER_Q_UPDATE)
 c0062fc:	683b      	ldr	r3, [r7, #0]
 c0062fe:	2b01      	cmp	r3, #1
 c006300:	d118      	bne.n	c006334 <RCCEx_PLLSAI1_Config+0x128>
      {
        assert_param(IS_RCC_PLLSAI1Q_VALUE(pPllSai1->PLLSAI1Q));

        /* Configure the PLLSAI1 Division factor M, Q and Multiplication factor N*/
        MODIFY_REG(RCC->PLLSAI1CFGR,
 c006302:	4b31      	ldr	r3, [pc, #196]	; (c0063c8 <RCCEx_PLLSAI1_Config+0x1bc>)
 c006304:	691a      	ldr	r2, [r3, #16]
 c006306:	4b32      	ldr	r3, [pc, #200]	; (c0063d0 <RCCEx_PLLSAI1_Config+0x1c4>)
 c006308:	4013      	ands	r3, r2
 c00630a:	687a      	ldr	r2, [r7, #4]
 c00630c:	6892      	ldr	r2, [r2, #8]
 c00630e:	0211      	lsls	r1, r2, #8
 c006310:	687a      	ldr	r2, [r7, #4]
 c006312:	6912      	ldr	r2, [r2, #16]
 c006314:	0852      	lsrs	r2, r2, #1
 c006316:	3a01      	subs	r2, #1
 c006318:	0552      	lsls	r2, r2, #21
 c00631a:	4311      	orrs	r1, r2
 c00631c:	687a      	ldr	r2, [r7, #4]
 c00631e:	6852      	ldr	r2, [r2, #4]
 c006320:	3a01      	subs	r2, #1
 c006322:	0112      	lsls	r2, r2, #4
 c006324:	4311      	orrs	r1, r2
 c006326:	687a      	ldr	r2, [r7, #4]
 c006328:	6812      	ldr	r2, [r2, #0]
 c00632a:	430a      	orrs	r2, r1
 c00632c:	4926      	ldr	r1, [pc, #152]	; (c0063c8 <RCCEx_PLLSAI1_Config+0x1bc>)
 c00632e:	4313      	orrs	r3, r2
 c006330:	610b      	str	r3, [r1, #16]
 c006332:	e017      	b.n	c006364 <RCCEx_PLLSAI1_Config+0x158>
      else
      {
        assert_param(IS_RCC_PLLSAI1R_VALUE(pPllSai1->PLLSAI1R));

        /* Configure the PLLSAI1 Division factor M, R and Multiplication factor N*/
        MODIFY_REG(RCC->PLLSAI1CFGR,
 c006334:	4b24      	ldr	r3, [pc, #144]	; (c0063c8 <RCCEx_PLLSAI1_Config+0x1bc>)
 c006336:	691a      	ldr	r2, [r3, #16]
 c006338:	4b26      	ldr	r3, [pc, #152]	; (c0063d4 <RCCEx_PLLSAI1_Config+0x1c8>)
 c00633a:	4013      	ands	r3, r2
 c00633c:	687a      	ldr	r2, [r7, #4]
 c00633e:	6892      	ldr	r2, [r2, #8]
 c006340:	0211      	lsls	r1, r2, #8
 c006342:	687a      	ldr	r2, [r7, #4]
 c006344:	6952      	ldr	r2, [r2, #20]
 c006346:	0852      	lsrs	r2, r2, #1
 c006348:	3a01      	subs	r2, #1
 c00634a:	0652      	lsls	r2, r2, #25
 c00634c:	4311      	orrs	r1, r2
 c00634e:	687a      	ldr	r2, [r7, #4]
 c006350:	6852      	ldr	r2, [r2, #4]
 c006352:	3a01      	subs	r2, #1
 c006354:	0112      	lsls	r2, r2, #4
 c006356:	4311      	orrs	r1, r2
 c006358:	687a      	ldr	r2, [r7, #4]
 c00635a:	6812      	ldr	r2, [r2, #0]
 c00635c:	430a      	orrs	r2, r1
 c00635e:	491a      	ldr	r1, [pc, #104]	; (c0063c8 <RCCEx_PLLSAI1_Config+0x1bc>)
 c006360:	4313      	orrs	r3, r2
 c006362:	610b      	str	r3, [r1, #16]
                   ((pPllSai1->PLLSAI1M - 1U) << RCC_PLLSAI1CFGR_PLLSAI1M_Pos) |
                   pPllSai1->PLLSAI1Source);
      }

      /* Enable the PLLSAI1 again by setting PLLSAI1ON to 1*/
      __HAL_RCC_PLLSAI1_ENABLE();
 c006364:	4b18      	ldr	r3, [pc, #96]	; (c0063c8 <RCCEx_PLLSAI1_Config+0x1bc>)
 c006366:	681b      	ldr	r3, [r3, #0]
 c006368:	4a17      	ldr	r2, [pc, #92]	; (c0063c8 <RCCEx_PLLSAI1_Config+0x1bc>)
 c00636a:	f043 6380 	orr.w	r3, r3, #67108864	; 0x4000000
 c00636e:	6013      	str	r3, [r2, #0]

      /* Get Start Tick*/
      tickstart = HAL_GetTick();
 c006370:	f7fd fcb4 	bl	c003cdc <HAL_GetTick>
 c006374:	60b8      	str	r0, [r7, #8]

      /* Wait till PLLSAI1 is ready */
      while (READ_BIT(RCC->CR, RCC_CR_PLLSAI1RDY) == 0U)
 c006376:	e00f      	b.n	c006398 <RCCEx_PLLSAI1_Config+0x18c>
      {
        if ((HAL_GetTick() - tickstart) > PLLSAI1_TIMEOUT_VALUE)
 c006378:	f7fd fcb0 	bl	c003cdc <HAL_GetTick>
 c00637c:	4602      	mov	r2, r0
 c00637e:	68bb      	ldr	r3, [r7, #8]
 c006380:	1ad3      	subs	r3, r2, r3
 c006382:	2b02      	cmp	r3, #2
 c006384:	d908      	bls.n	c006398 <RCCEx_PLLSAI1_Config+0x18c>
        {
          /* New check to avoid false timeout detection in case of preemption */
          if (READ_BIT(RCC->CR, RCC_CR_PLLSAI1RDY) == 0U)
 c006386:	4b10      	ldr	r3, [pc, #64]	; (c0063c8 <RCCEx_PLLSAI1_Config+0x1bc>)
 c006388:	681b      	ldr	r3, [r3, #0]
 c00638a:	f003 6300 	and.w	r3, r3, #134217728	; 0x8000000
 c00638e:	2b00      	cmp	r3, #0
 c006390:	d109      	bne.n	c0063a6 <RCCEx_PLLSAI1_Config+0x19a>
          {
            status = HAL_TIMEOUT;
 c006392:	2303      	movs	r3, #3
 c006394:	73fb      	strb	r3, [r7, #15]
          }
          break;
 c006396:	e006      	b.n	c0063a6 <RCCEx_PLLSAI1_Config+0x19a>
      while (READ_BIT(RCC->CR, RCC_CR_PLLSAI1RDY) == 0U)
 c006398:	4b0b      	ldr	r3, [pc, #44]	; (c0063c8 <RCCEx_PLLSAI1_Config+0x1bc>)
 c00639a:	681b      	ldr	r3, [r3, #0]
 c00639c:	f003 6300 	and.w	r3, r3, #134217728	; 0x8000000
 c0063a0:	2b00      	cmp	r3, #0
 c0063a2:	d0e9      	beq.n	c006378 <RCCEx_PLLSAI1_Config+0x16c>
 c0063a4:	e000      	b.n	c0063a8 <RCCEx_PLLSAI1_Config+0x19c>
          break;
 c0063a6:	bf00      	nop
        }
      }

      if (status == HAL_OK)
 c0063a8:	7bfb      	ldrb	r3, [r7, #15]
 c0063aa:	2b00      	cmp	r3, #0
 c0063ac:	d106      	bne.n	c0063bc <RCCEx_PLLSAI1_Config+0x1b0>
      {
        /* Configure the PLLSAI1 Clock output(s) */
        __HAL_RCC_PLLSAI1CLKOUT_ENABLE(pPllSai1->PLLSAI1ClockOut);
 c0063ae:	4b06      	ldr	r3, [pc, #24]	; (c0063c8 <RCCEx_PLLSAI1_Config+0x1bc>)
 c0063b0:	691a      	ldr	r2, [r3, #16]
 c0063b2:	687b      	ldr	r3, [r7, #4]
 c0063b4:	699b      	ldr	r3, [r3, #24]
 c0063b6:	4904      	ldr	r1, [pc, #16]	; (c0063c8 <RCCEx_PLLSAI1_Config+0x1bc>)
 c0063b8:	4313      	orrs	r3, r2
 c0063ba:	610b      	str	r3, [r1, #16]
      }
    }
  }

  return status;
 c0063bc:	7bfb      	ldrb	r3, [r7, #15]
}
 c0063be:	4618      	mov	r0, r3
 c0063c0:	3710      	adds	r7, #16
 c0063c2:	46bd      	mov	sp, r7
 c0063c4:	bd80      	pop	{r7, pc}
 c0063c6:	bf00      	nop
 c0063c8:	50021000 	.word	0x50021000
 c0063cc:	07ff800c 	.word	0x07ff800c
 c0063d0:	ff9f800c 	.word	0xff9f800c
 c0063d4:	f9ff800c 	.word	0xf9ff800c

0c0063d8 <RCCEx_PLLSAI2_Config>:
  * @note   PLLSAI2 is temporary disable to apply new parameters
  *
  * @retval HAL status
  */
static HAL_StatusTypeDef RCCEx_PLLSAI2_Config(RCC_PLLSAI2InitTypeDef *pPllSai2, uint32_t Divider)
{
 c0063d8:	b580      	push	{r7, lr}
 c0063da:	b084      	sub	sp, #16
 c0063dc:	af00      	add	r7, sp, #0
 c0063de:	6078      	str	r0, [r7, #4]
 c0063e0:	6039      	str	r1, [r7, #0]
  HAL_StatusTypeDef status = HAL_OK;
 c0063e2:	2300      	movs	r3, #0
 c0063e4:	73fb      	strb	r3, [r7, #15]
  assert_param(IS_RCC_PLLSAI2M_VALUE(pPllSai2->PLLSAI2M));
  assert_param(IS_RCC_PLLSAI2N_VALUE(pPllSai2->PLLSAI2N));
  assert_param(IS_RCC_PLLSAI2CLOCKOUT_VALUE(pPllSai2->PLLSAI2ClockOut));

  /* Check PLLSAI2 clock source availability */
  switch (pPllSai2->PLLSAI2Source)
 c0063e6:	687b      	ldr	r3, [r7, #4]
 c0063e8:	681b      	ldr	r3, [r3, #0]
 c0063ea:	2b03      	cmp	r3, #3
 c0063ec:	d018      	beq.n	c006420 <RCCEx_PLLSAI2_Config+0x48>
 c0063ee:	2b03      	cmp	r3, #3
 c0063f0:	d81f      	bhi.n	c006432 <RCCEx_PLLSAI2_Config+0x5a>
 c0063f2:	2b01      	cmp	r3, #1
 c0063f4:	d002      	beq.n	c0063fc <RCCEx_PLLSAI2_Config+0x24>
 c0063f6:	2b02      	cmp	r3, #2
 c0063f8:	d009      	beq.n	c00640e <RCCEx_PLLSAI2_Config+0x36>
 c0063fa:	e01a      	b.n	c006432 <RCCEx_PLLSAI2_Config+0x5a>
  {
    case RCC_PLLSOURCE_MSI:
      if (HAL_IS_BIT_CLR(RCC->CR, RCC_CR_MSIRDY))
 c0063fc:	4b4a      	ldr	r3, [pc, #296]	; (c006528 <RCCEx_PLLSAI2_Config+0x150>)
 c0063fe:	681b      	ldr	r3, [r3, #0]
 c006400:	f003 0302 	and.w	r3, r3, #2
 c006404:	2b00      	cmp	r3, #0
 c006406:	d117      	bne.n	c006438 <RCCEx_PLLSAI2_Config+0x60>
      {
        status = HAL_ERROR;
 c006408:	2301      	movs	r3, #1
 c00640a:	73fb      	strb	r3, [r7, #15]
      }
      break;
 c00640c:	e014      	b.n	c006438 <RCCEx_PLLSAI2_Config+0x60>
    case RCC_PLLSOURCE_HSI:
      if (HAL_IS_BIT_CLR(RCC->CR, RCC_CR_HSIRDY))
 c00640e:	4b46      	ldr	r3, [pc, #280]	; (c006528 <RCCEx_PLLSAI2_Config+0x150>)
 c006410:	681b      	ldr	r3, [r3, #0]
 c006412:	f403 6380 	and.w	r3, r3, #1024	; 0x400
 c006416:	2b00      	cmp	r3, #0
 c006418:	d110      	bne.n	c00643c <RCCEx_PLLSAI2_Config+0x64>
      {
        status = HAL_ERROR;
 c00641a:	2301      	movs	r3, #1
 c00641c:	73fb      	strb	r3, [r7, #15]
      }
      break;
 c00641e:	e00d      	b.n	c00643c <RCCEx_PLLSAI2_Config+0x64>
    case RCC_PLLSOURCE_HSE:
      if (HAL_IS_BIT_CLR(RCC->CR, (RCC_CR_HSERDY | RCC_CR_HSEBYP)))
 c006420:	4b41      	ldr	r3, [pc, #260]	; (c006528 <RCCEx_PLLSAI2_Config+0x150>)
 c006422:	681b      	ldr	r3, [r3, #0]
 c006424:	f403 23c0 	and.w	r3, r3, #393216	; 0x60000
 c006428:	2b00      	cmp	r3, #0
 c00642a:	d109      	bne.n	c006440 <RCCEx_PLLSAI2_Config+0x68>
      {
        status = HAL_ERROR;
 c00642c:	2301      	movs	r3, #1
 c00642e:	73fb      	strb	r3, [r7, #15]
      }
      break;
 c006430:	e006      	b.n	c006440 <RCCEx_PLLSAI2_Config+0x68>
    default:
      status = HAL_ERROR;
 c006432:	2301      	movs	r3, #1
 c006434:	73fb      	strb	r3, [r7, #15]
      break;
 c006436:	e004      	b.n	c006442 <RCCEx_PLLSAI2_Config+0x6a>
      break;
 c006438:	bf00      	nop
 c00643a:	e002      	b.n	c006442 <RCCEx_PLLSAI2_Config+0x6a>
      break;
 c00643c:	bf00      	nop
 c00643e:	e000      	b.n	c006442 <RCCEx_PLLSAI2_Config+0x6a>
      break;
 c006440:	bf00      	nop
  }

  if (status == HAL_OK)
 c006442:	7bfb      	ldrb	r3, [r7, #15]
 c006444:	2b00      	cmp	r3, #0
 c006446:	d169      	bne.n	c00651c <RCCEx_PLLSAI2_Config+0x144>
  {
    /* Disable the PLLSAI2 */
    __HAL_RCC_PLLSAI2_DISABLE();
 c006448:	4b37      	ldr	r3, [pc, #220]	; (c006528 <RCCEx_PLLSAI2_Config+0x150>)
 c00644a:	681b      	ldr	r3, [r3, #0]
 c00644c:	4a36      	ldr	r2, [pc, #216]	; (c006528 <RCCEx_PLLSAI2_Config+0x150>)
 c00644e:	f023 5380 	bic.w	r3, r3, #268435456	; 0x10000000
 c006452:	6013      	str	r3, [r2, #0]

    /* Get Start Tick*/
    tickstart = HAL_GetTick();
 c006454:	f7fd fc42 	bl	c003cdc <HAL_GetTick>
 c006458:	60b8      	str	r0, [r7, #8]

    /* Wait till PLLSAI2 is ready to be updated */
    while (READ_BIT(RCC->CR, RCC_CR_PLLSAI2RDY) != 0U)
 c00645a:	e00f      	b.n	c00647c <RCCEx_PLLSAI2_Config+0xa4>
    {
      if ((HAL_GetTick() - tickstart) > PLLSAI2_TIMEOUT_VALUE)
 c00645c:	f7fd fc3e 	bl	c003cdc <HAL_GetTick>
 c006460:	4602      	mov	r2, r0
 c006462:	68bb      	ldr	r3, [r7, #8]
 c006464:	1ad3      	subs	r3, r2, r3
 c006466:	2b02      	cmp	r3, #2
 c006468:	d908      	bls.n	c00647c <RCCEx_PLLSAI2_Config+0xa4>
      {
        /* New check to avoid false timeout detection in case of preemption */
        if (READ_BIT(RCC->CR, RCC_CR_PLLSAI2RDY) != 0U)
 c00646a:	4b2f      	ldr	r3, [pc, #188]	; (c006528 <RCCEx_PLLSAI2_Config+0x150>)
 c00646c:	681b      	ldr	r3, [r3, #0]
 c00646e:	f003 5300 	and.w	r3, r3, #536870912	; 0x20000000
 c006472:	2b00      	cmp	r3, #0
 c006474:	d009      	beq.n	c00648a <RCCEx_PLLSAI2_Config+0xb2>
        {
          status = HAL_TIMEOUT;
 c006476:	2303      	movs	r3, #3
 c006478:	73fb      	strb	r3, [r7, #15]
        }
        break;
 c00647a:	e006      	b.n	c00648a <RCCEx_PLLSAI2_Config+0xb2>
    while (READ_BIT(RCC->CR, RCC_CR_PLLSAI2RDY) != 0U)
 c00647c:	4b2a      	ldr	r3, [pc, #168]	; (c006528 <RCCEx_PLLSAI2_Config+0x150>)
 c00647e:	681b      	ldr	r3, [r3, #0]
 c006480:	f003 5300 	and.w	r3, r3, #536870912	; 0x20000000
 c006484:	2b00      	cmp	r3, #0
 c006486:	d1e9      	bne.n	c00645c <RCCEx_PLLSAI2_Config+0x84>
 c006488:	e000      	b.n	c00648c <RCCEx_PLLSAI2_Config+0xb4>
        break;
 c00648a:	bf00      	nop
      }
    }

    if (status == HAL_OK)
 c00648c:	7bfb      	ldrb	r3, [r7, #15]
 c00648e:	2b00      	cmp	r3, #0
 c006490:	d144      	bne.n	c00651c <RCCEx_PLLSAI2_Config+0x144>
    {
      if (Divider == DIVIDER_P_UPDATE)
 c006492:	683b      	ldr	r3, [r7, #0]
 c006494:	2b00      	cmp	r3, #0
 c006496:	d115      	bne.n	c0064c4 <RCCEx_PLLSAI2_Config+0xec>
      {
        assert_param(IS_RCC_PLLSAI2P_VALUE(pPllSai2->PLLSAI2P));

        /* Configure the PLLSAI2 Division factor M, P and Multiplication factor N*/
        MODIFY_REG(RCC->PLLSAI2CFGR,
 c006498:	4b23      	ldr	r3, [pc, #140]	; (c006528 <RCCEx_PLLSAI2_Config+0x150>)
 c00649a:	695a      	ldr	r2, [r3, #20]
 c00649c:	4b23      	ldr	r3, [pc, #140]	; (c00652c <RCCEx_PLLSAI2_Config+0x154>)
 c00649e:	4013      	ands	r3, r2
 c0064a0:	687a      	ldr	r2, [r7, #4]
 c0064a2:	6892      	ldr	r2, [r2, #8]
 c0064a4:	0211      	lsls	r1, r2, #8
 c0064a6:	687a      	ldr	r2, [r7, #4]
 c0064a8:	68d2      	ldr	r2, [r2, #12]
 c0064aa:	06d2      	lsls	r2, r2, #27
 c0064ac:	4311      	orrs	r1, r2
 c0064ae:	687a      	ldr	r2, [r7, #4]
 c0064b0:	6852      	ldr	r2, [r2, #4]
 c0064b2:	3a01      	subs	r2, #1
 c0064b4:	0112      	lsls	r2, r2, #4
 c0064b6:	4311      	orrs	r1, r2
 c0064b8:	687a      	ldr	r2, [r7, #4]
 c0064ba:	6812      	ldr	r2, [r2, #0]
 c0064bc:	430a      	orrs	r2, r1
 c0064be:	491a      	ldr	r1, [pc, #104]	; (c006528 <RCCEx_PLLSAI2_Config+0x150>)
 c0064c0:	4313      	orrs	r3, r2
 c0064c2:	614b      	str	r3, [r1, #20]
                   pPllSai2->PLLSAI2Source);

      }

      /* Enable the PLLSAI2 again by setting PLLSAI2ON to 1*/
      __HAL_RCC_PLLSAI2_ENABLE();
 c0064c4:	4b18      	ldr	r3, [pc, #96]	; (c006528 <RCCEx_PLLSAI2_Config+0x150>)
 c0064c6:	681b      	ldr	r3, [r3, #0]
 c0064c8:	4a17      	ldr	r2, [pc, #92]	; (c006528 <RCCEx_PLLSAI2_Config+0x150>)
 c0064ca:	f043 5380 	orr.w	r3, r3, #268435456	; 0x10000000
 c0064ce:	6013      	str	r3, [r2, #0]

      /* Get Start Tick*/
      tickstart = HAL_GetTick();
 c0064d0:	f7fd fc04 	bl	c003cdc <HAL_GetTick>
 c0064d4:	60b8      	str	r0, [r7, #8]

      /* Wait till PLLSAI2 is ready */
      while (READ_BIT(RCC->CR, RCC_CR_PLLSAI2RDY) == 0U)
 c0064d6:	e00f      	b.n	c0064f8 <RCCEx_PLLSAI2_Config+0x120>
      {
        if ((HAL_GetTick() - tickstart) > PLLSAI2_TIMEOUT_VALUE)
 c0064d8:	f7fd fc00 	bl	c003cdc <HAL_GetTick>
 c0064dc:	4602      	mov	r2, r0
 c0064de:	68bb      	ldr	r3, [r7, #8]
 c0064e0:	1ad3      	subs	r3, r2, r3
 c0064e2:	2b02      	cmp	r3, #2
 c0064e4:	d908      	bls.n	c0064f8 <RCCEx_PLLSAI2_Config+0x120>
        {
          /* New check to avoid false timeout detection in case of preemption */
          if (READ_BIT(RCC->CR, RCC_CR_PLLSAI2RDY) == 0U)
 c0064e6:	4b10      	ldr	r3, [pc, #64]	; (c006528 <RCCEx_PLLSAI2_Config+0x150>)
 c0064e8:	681b      	ldr	r3, [r3, #0]
 c0064ea:	f003 5300 	and.w	r3, r3, #536870912	; 0x20000000
 c0064ee:	2b00      	cmp	r3, #0
 c0064f0:	d109      	bne.n	c006506 <RCCEx_PLLSAI2_Config+0x12e>
          {
            status = HAL_TIMEOUT;
 c0064f2:	2303      	movs	r3, #3
 c0064f4:	73fb      	strb	r3, [r7, #15]
          }
          break;
 c0064f6:	e006      	b.n	c006506 <RCCEx_PLLSAI2_Config+0x12e>
      while (READ_BIT(RCC->CR, RCC_CR_PLLSAI2RDY) == 0U)
 c0064f8:	4b0b      	ldr	r3, [pc, #44]	; (c006528 <RCCEx_PLLSAI2_Config+0x150>)
 c0064fa:	681b      	ldr	r3, [r3, #0]
 c0064fc:	f003 5300 	and.w	r3, r3, #536870912	; 0x20000000
 c006500:	2b00      	cmp	r3, #0
 c006502:	d0e9      	beq.n	c0064d8 <RCCEx_PLLSAI2_Config+0x100>
 c006504:	e000      	b.n	c006508 <RCCEx_PLLSAI2_Config+0x130>
          break;
 c006506:	bf00      	nop
        }
      }

      if (status == HAL_OK)
 c006508:	7bfb      	ldrb	r3, [r7, #15]
 c00650a:	2b00      	cmp	r3, #0
 c00650c:	d106      	bne.n	c00651c <RCCEx_PLLSAI2_Config+0x144>
      {
        /* Configure the PLLSAI2 Clock output(s) */
        __HAL_RCC_PLLSAI2CLKOUT_ENABLE(pPllSai2->PLLSAI2ClockOut);
 c00650e:	4b06      	ldr	r3, [pc, #24]	; (c006528 <RCCEx_PLLSAI2_Config+0x150>)
 c006510:	695a      	ldr	r2, [r3, #20]
 c006512:	687b      	ldr	r3, [r7, #4]
 c006514:	691b      	ldr	r3, [r3, #16]
 c006516:	4904      	ldr	r1, [pc, #16]	; (c006528 <RCCEx_PLLSAI2_Config+0x150>)
 c006518:	4313      	orrs	r3, r2
 c00651a:	614b      	str	r3, [r1, #20]
      }
    }
  }

  return status;
 c00651c:	7bfb      	ldrb	r3, [r7, #15]
}
 c00651e:	4618      	mov	r0, r3
 c006520:	3710      	adds	r7, #16
 c006522:	46bd      	mov	sp, r7
 c006524:	bd80      	pop	{r7, pc}
 c006526:	bf00      	nop
 c006528:	50021000 	.word	0x50021000
 c00652c:	07ff800c 	.word	0x07ff800c

0c006530 <HAL_TIM_Base_Init>:
  *         Ex: call @ref HAL_TIM_Base_DeInit() before HAL_TIM_Base_Init()
  * @param  htim TIM Base handle
  * @retval HAL status
  */
HAL_StatusTypeDef HAL_TIM_Base_Init(TIM_HandleTypeDef *htim)
{
 c006530:	b580      	push	{r7, lr}
 c006532:	b082      	sub	sp, #8
 c006534:	af00      	add	r7, sp, #0
 c006536:	6078      	str	r0, [r7, #4]
  /* Check the TIM handle allocation */
  if (htim == NULL)
 c006538:	687b      	ldr	r3, [r7, #4]
 c00653a:	2b00      	cmp	r3, #0
 c00653c:	d101      	bne.n	c006542 <HAL_TIM_Base_Init+0x12>
  {
    return HAL_ERROR;
 c00653e:	2301      	movs	r3, #1
 c006540:	e049      	b.n	c0065d6 <HAL_TIM_Base_Init+0xa6>
  assert_param(IS_TIM_INSTANCE(htim->Instance));
  assert_param(IS_TIM_COUNTER_MODE(htim->Init.CounterMode));
  assert_param(IS_TIM_CLOCKDIVISION_DIV(htim->Init.ClockDivision));
  assert_param(IS_TIM_AUTORELOAD_PRELOAD(htim->Init.AutoReloadPreload));

  if (htim->State == HAL_TIM_STATE_RESET)
 c006542:	687b      	ldr	r3, [r7, #4]
 c006544:	f893 303d 	ldrb.w	r3, [r3, #61]	; 0x3d
 c006548:	b2db      	uxtb	r3, r3
 c00654a:	2b00      	cmp	r3, #0
 c00654c:	d106      	bne.n	c00655c <HAL_TIM_Base_Init+0x2c>
  {
    /* Allocate lock resource and initialize it */
    htim->Lock = HAL_UNLOCKED;
 c00654e:	687b      	ldr	r3, [r7, #4]
 c006550:	2200      	movs	r2, #0
 c006552:	f883 203c 	strb.w	r2, [r3, #60]	; 0x3c
    }
    /* Init the low level hardware : GPIO, CLOCK, NVIC */
    htim->Base_MspInitCallback(htim);
#else
    /* Init the low level hardware : GPIO, CLOCK, NVIC */
    HAL_TIM_Base_MspInit(htim);
 c006556:	6878      	ldr	r0, [r7, #4]
 c006558:	f7fd fa16 	bl	c003988 <HAL_TIM_Base_MspInit>
#endif /* USE_HAL_TIM_REGISTER_CALLBACKS */
  }

  /* Set the TIM state */
  htim->State = HAL_TIM_STATE_BUSY;
 c00655c:	687b      	ldr	r3, [r7, #4]
 c00655e:	2202      	movs	r2, #2
 c006560:	f883 203d 	strb.w	r2, [r3, #61]	; 0x3d

  /* Set the Time Base configuration */
  TIM_Base_SetConfig(htim->Instance, &htim->Init);
 c006564:	687b      	ldr	r3, [r7, #4]
 c006566:	681a      	ldr	r2, [r3, #0]
 c006568:	687b      	ldr	r3, [r7, #4]
 c00656a:	3304      	adds	r3, #4
 c00656c:	4619      	mov	r1, r3
 c00656e:	4610      	mov	r0, r2
 c006570:	f000 fa74 	bl	c006a5c <TIM_Base_SetConfig>

  /* Initialize the DMA burst operation state */
  htim->DMABurstState = HAL_DMA_BURST_STATE_READY;
 c006574:	687b      	ldr	r3, [r7, #4]
 c006576:	2201      	movs	r2, #1
 c006578:	f883 2048 	strb.w	r2, [r3, #72]	; 0x48

  /* Initialize the TIM channels state */
  TIM_CHANNEL_STATE_SET_ALL(htim, HAL_TIM_CHANNEL_STATE_READY);
 c00657c:	687b      	ldr	r3, [r7, #4]
 c00657e:	2201      	movs	r2, #1
 c006580:	f883 203e 	strb.w	r2, [r3, #62]	; 0x3e
 c006584:	687b      	ldr	r3, [r7, #4]
 c006586:	2201      	movs	r2, #1
 c006588:	f883 203f 	strb.w	r2, [r3, #63]	; 0x3f
 c00658c:	687b      	ldr	r3, [r7, #4]
 c00658e:	2201      	movs	r2, #1
 c006590:	f883 2040 	strb.w	r2, [r3, #64]	; 0x40
 c006594:	687b      	ldr	r3, [r7, #4]
 c006596:	2201      	movs	r2, #1
 c006598:	f883 2041 	strb.w	r2, [r3, #65]	; 0x41
 c00659c:	687b      	ldr	r3, [r7, #4]
 c00659e:	2201      	movs	r2, #1
 c0065a0:	f883 2042 	strb.w	r2, [r3, #66]	; 0x42
 c0065a4:	687b      	ldr	r3, [r7, #4]
 c0065a6:	2201      	movs	r2, #1
 c0065a8:	f883 2043 	strb.w	r2, [r3, #67]	; 0x43
  TIM_CHANNEL_N_STATE_SET_ALL(htim, HAL_TIM_CHANNEL_STATE_READY);
 c0065ac:	687b      	ldr	r3, [r7, #4]
 c0065ae:	2201      	movs	r2, #1
 c0065b0:	f883 2044 	strb.w	r2, [r3, #68]	; 0x44
 c0065b4:	687b      	ldr	r3, [r7, #4]
 c0065b6:	2201      	movs	r2, #1
 c0065b8:	f883 2045 	strb.w	r2, [r3, #69]	; 0x45
 c0065bc:	687b      	ldr	r3, [r7, #4]
 c0065be:	2201      	movs	r2, #1
 c0065c0:	f883 2046 	strb.w	r2, [r3, #70]	; 0x46
 c0065c4:	687b      	ldr	r3, [r7, #4]
 c0065c6:	2201      	movs	r2, #1
 c0065c8:	f883 2047 	strb.w	r2, [r3, #71]	; 0x47

  /* Initialize the TIM state*/
  htim->State = HAL_TIM_STATE_READY;
 c0065cc:	687b      	ldr	r3, [r7, #4]
 c0065ce:	2201      	movs	r2, #1
 c0065d0:	f883 203d 	strb.w	r2, [r3, #61]	; 0x3d

  return HAL_OK;
 c0065d4:	2300      	movs	r3, #0
}
 c0065d6:	4618      	mov	r0, r3
 c0065d8:	3708      	adds	r7, #8
 c0065da:	46bd      	mov	sp, r7
 c0065dc:	bd80      	pop	{r7, pc}

0c0065de <HAL_TIM_Base_Stop>:
  * @brief  Stops the TIM Base generation.
  * @param  htim TIM Base handle
  * @retval HAL status
  */
HAL_StatusTypeDef HAL_TIM_Base_Stop(TIM_HandleTypeDef *htim)
{
 c0065de:	b480      	push	{r7}
 c0065e0:	b083      	sub	sp, #12
 c0065e2:	af00      	add	r7, sp, #0
 c0065e4:	6078      	str	r0, [r7, #4]
  /* Check the parameters */
  assert_param(IS_TIM_INSTANCE(htim->Instance));

  /* Disable the Peripheral */
  __HAL_TIM_DISABLE(htim);
 c0065e6:	687b      	ldr	r3, [r7, #4]
 c0065e8:	681b      	ldr	r3, [r3, #0]
 c0065ea:	6a1a      	ldr	r2, [r3, #32]
 c0065ec:	f241 1311 	movw	r3, #4369	; 0x1111
 c0065f0:	4013      	ands	r3, r2
 c0065f2:	2b00      	cmp	r3, #0
 c0065f4:	d10f      	bne.n	c006616 <HAL_TIM_Base_Stop+0x38>
 c0065f6:	687b      	ldr	r3, [r7, #4]
 c0065f8:	681b      	ldr	r3, [r3, #0]
 c0065fa:	6a1a      	ldr	r2, [r3, #32]
 c0065fc:	f240 4344 	movw	r3, #1092	; 0x444
 c006600:	4013      	ands	r3, r2
 c006602:	2b00      	cmp	r3, #0
 c006604:	d107      	bne.n	c006616 <HAL_TIM_Base_Stop+0x38>
 c006606:	687b      	ldr	r3, [r7, #4]
 c006608:	681b      	ldr	r3, [r3, #0]
 c00660a:	681a      	ldr	r2, [r3, #0]
 c00660c:	687b      	ldr	r3, [r7, #4]
 c00660e:	681b      	ldr	r3, [r3, #0]
 c006610:	f022 0201 	bic.w	r2, r2, #1
 c006614:	601a      	str	r2, [r3, #0]

  /* Set the TIM state */
  htim->State = HAL_TIM_STATE_READY;
 c006616:	687b      	ldr	r3, [r7, #4]
 c006618:	2201      	movs	r2, #1
 c00661a:	f883 203d 	strb.w	r2, [r3, #61]	; 0x3d

  /* Return function status */
  return HAL_OK;
 c00661e:	2300      	movs	r3, #0
}
 c006620:	4618      	mov	r0, r3
 c006622:	370c      	adds	r7, #12
 c006624:	46bd      	mov	sp, r7
 c006626:	f85d 7b04 	ldr.w	r7, [sp], #4
 c00662a:	4770      	bx	lr

0c00662c <HAL_TIM_IRQHandler>:
  * @brief  This function handles TIM interrupts requests.
  * @param  htim TIM  handle
  * @retval None
  */
void HAL_TIM_IRQHandler(TIM_HandleTypeDef *htim)
{
 c00662c:	b580      	push	{r7, lr}
 c00662e:	b082      	sub	sp, #8
 c006630:	af00      	add	r7, sp, #0
 c006632:	6078      	str	r0, [r7, #4]
  /* Capture compare 1 event */
  if (__HAL_TIM_GET_FLAG(htim, TIM_FLAG_CC1) != RESET)
 c006634:	687b      	ldr	r3, [r7, #4]
 c006636:	681b      	ldr	r3, [r3, #0]
 c006638:	691b      	ldr	r3, [r3, #16]
 c00663a:	f003 0302 	and.w	r3, r3, #2
 c00663e:	2b02      	cmp	r3, #2
 c006640:	d122      	bne.n	c006688 <HAL_TIM_IRQHandler+0x5c>
  {
    if (__HAL_TIM_GET_IT_SOURCE(htim, TIM_IT_CC1) != RESET)
 c006642:	687b      	ldr	r3, [r7, #4]
 c006644:	681b      	ldr	r3, [r3, #0]
 c006646:	68db      	ldr	r3, [r3, #12]
 c006648:	f003 0302 	and.w	r3, r3, #2
 c00664c:	2b02      	cmp	r3, #2
 c00664e:	d11b      	bne.n	c006688 <HAL_TIM_IRQHandler+0x5c>
    {
      {
        __HAL_TIM_CLEAR_IT(htim, TIM_IT_CC1);
 c006650:	687b      	ldr	r3, [r7, #4]
 c006652:	681b      	ldr	r3, [r3, #0]
 c006654:	f06f 0202 	mvn.w	r2, #2
 c006658:	611a      	str	r2, [r3, #16]
        htim->Channel = HAL_TIM_ACTIVE_CHANNEL_1;
 c00665a:	687b      	ldr	r3, [r7, #4]
 c00665c:	2201      	movs	r2, #1
 c00665e:	771a      	strb	r2, [r3, #28]

        /* Input capture event */
        if ((htim->Instance->CCMR1 & TIM_CCMR1_CC1S) != 0x00U)
 c006660:	687b      	ldr	r3, [r7, #4]
 c006662:	681b      	ldr	r3, [r3, #0]
 c006664:	699b      	ldr	r3, [r3, #24]
 c006666:	f003 0303 	and.w	r3, r3, #3
 c00666a:	2b00      	cmp	r3, #0
 c00666c:	d003      	beq.n	c006676 <HAL_TIM_IRQHandler+0x4a>
        {
#if (USE_HAL_TIM_REGISTER_CALLBACKS == 1)
          htim->IC_CaptureCallback(htim);
#else
          HAL_TIM_IC_CaptureCallback(htim);
 c00666e:	6878      	ldr	r0, [r7, #4]
 c006670:	f000 f9d5 	bl	c006a1e <HAL_TIM_IC_CaptureCallback>
 c006674:	e005      	b.n	c006682 <HAL_TIM_IRQHandler+0x56>
        {
#if (USE_HAL_TIM_REGISTER_CALLBACKS == 1)
          htim->OC_DelayElapsedCallback(htim);
          htim->PWM_PulseFinishedCallback(htim);
#else
          HAL_TIM_OC_DelayElapsedCallback(htim);
 c006676:	6878      	ldr	r0, [r7, #4]
 c006678:	f000 f9c7 	bl	c006a0a <HAL_TIM_OC_DelayElapsedCallback>
          HAL_TIM_PWM_PulseFinishedCallback(htim);
 c00667c:	6878      	ldr	r0, [r7, #4]
 c00667e:	f000 f9d8 	bl	c006a32 <HAL_TIM_PWM_PulseFinishedCallback>
#endif /* USE_HAL_TIM_REGISTER_CALLBACKS */
        }
        htim->Channel = HAL_TIM_ACTIVE_CHANNEL_CLEARED;
 c006682:	687b      	ldr	r3, [r7, #4]
 c006684:	2200      	movs	r2, #0
 c006686:	771a      	strb	r2, [r3, #28]
      }
    }
  }
  /* Capture compare 2 event */
  if (__HAL_TIM_GET_FLAG(htim, TIM_FLAG_CC2) != RESET)
 c006688:	687b      	ldr	r3, [r7, #4]
 c00668a:	681b      	ldr	r3, [r3, #0]
 c00668c:	691b      	ldr	r3, [r3, #16]
 c00668e:	f003 0304 	and.w	r3, r3, #4
 c006692:	2b04      	cmp	r3, #4
 c006694:	d122      	bne.n	c0066dc <HAL_TIM_IRQHandler+0xb0>
  {
    if (__HAL_TIM_GET_IT_SOURCE(htim, TIM_IT_CC2) != RESET)
 c006696:	687b      	ldr	r3, [r7, #4]
 c006698:	681b      	ldr	r3, [r3, #0]
 c00669a:	68db      	ldr	r3, [r3, #12]
 c00669c:	f003 0304 	and.w	r3, r3, #4
 c0066a0:	2b04      	cmp	r3, #4
 c0066a2:	d11b      	bne.n	c0066dc <HAL_TIM_IRQHandler+0xb0>
    {
      __HAL_TIM_CLEAR_IT(htim, TIM_IT_CC2);
 c0066a4:	687b      	ldr	r3, [r7, #4]
 c0066a6:	681b      	ldr	r3, [r3, #0]
 c0066a8:	f06f 0204 	mvn.w	r2, #4
 c0066ac:	611a      	str	r2, [r3, #16]
      htim->Channel = HAL_TIM_ACTIVE_CHANNEL_2;
 c0066ae:	687b      	ldr	r3, [r7, #4]
 c0066b0:	2202      	movs	r2, #2
 c0066b2:	771a      	strb	r2, [r3, #28]
      /* Input capture event */
      if ((htim->Instance->CCMR1 & TIM_CCMR1_CC2S) != 0x00U)
 c0066b4:	687b      	ldr	r3, [r7, #4]
 c0066b6:	681b      	ldr	r3, [r3, #0]
 c0066b8:	699b      	ldr	r3, [r3, #24]
 c0066ba:	f403 7340 	and.w	r3, r3, #768	; 0x300
 c0066be:	2b00      	cmp	r3, #0
 c0066c0:	d003      	beq.n	c0066ca <HAL_TIM_IRQHandler+0x9e>
      {
#if (USE_HAL_TIM_REGISTER_CALLBACKS == 1)
        htim->IC_CaptureCallback(htim);
#else
        HAL_TIM_IC_CaptureCallback(htim);
 c0066c2:	6878      	ldr	r0, [r7, #4]
 c0066c4:	f000 f9ab 	bl	c006a1e <HAL_TIM_IC_CaptureCallback>
 c0066c8:	e005      	b.n	c0066d6 <HAL_TIM_IRQHandler+0xaa>
      {
#if (USE_HAL_TIM_REGISTER_CALLBACKS == 1)
        htim->OC_DelayElapsedCallback(htim);
        htim->PWM_PulseFinishedCallback(htim);
#else
        HAL_TIM_OC_DelayElapsedCallback(htim);
 c0066ca:	6878      	ldr	r0, [r7, #4]
 c0066cc:	f000 f99d 	bl	c006a0a <HAL_TIM_OC_DelayElapsedCallback>
        HAL_TIM_PWM_PulseFinishedCallback(htim);
 c0066d0:	6878      	ldr	r0, [r7, #4]
 c0066d2:	f000 f9ae 	bl	c006a32 <HAL_TIM_PWM_PulseFinishedCallback>
#endif /* USE_HAL_TIM_REGISTER_CALLBACKS */
      }
      htim->Channel = HAL_TIM_ACTIVE_CHANNEL_CLEARED;
 c0066d6:	687b      	ldr	r3, [r7, #4]
 c0066d8:	2200      	movs	r2, #0
 c0066da:	771a      	strb	r2, [r3, #28]
    }
  }
  /* Capture compare 3 event */
  if (__HAL_TIM_GET_FLAG(htim, TIM_FLAG_CC3) != RESET)
 c0066dc:	687b      	ldr	r3, [r7, #4]
 c0066de:	681b      	ldr	r3, [r3, #0]
 c0066e0:	691b      	ldr	r3, [r3, #16]
 c0066e2:	f003 0308 	and.w	r3, r3, #8
 c0066e6:	2b08      	cmp	r3, #8
 c0066e8:	d122      	bne.n	c006730 <HAL_TIM_IRQHandler+0x104>
  {
    if (__HAL_TIM_GET_IT_SOURCE(htim, TIM_IT_CC3) != RESET)
 c0066ea:	687b      	ldr	r3, [r7, #4]
 c0066ec:	681b      	ldr	r3, [r3, #0]
 c0066ee:	68db      	ldr	r3, [r3, #12]
 c0066f0:	f003 0308 	and.w	r3, r3, #8
 c0066f4:	2b08      	cmp	r3, #8
 c0066f6:	d11b      	bne.n	c006730 <HAL_TIM_IRQHandler+0x104>
    {
      __HAL_TIM_CLEAR_IT(htim, TIM_IT_CC3);
 c0066f8:	687b      	ldr	r3, [r7, #4]
 c0066fa:	681b      	ldr	r3, [r3, #0]
 c0066fc:	f06f 0208 	mvn.w	r2, #8
 c006700:	611a      	str	r2, [r3, #16]
      htim->Channel = HAL_TIM_ACTIVE_CHANNEL_3;
 c006702:	687b      	ldr	r3, [r7, #4]
 c006704:	2204      	movs	r2, #4
 c006706:	771a      	strb	r2, [r3, #28]
      /* Input capture event */
      if ((htim->Instance->CCMR2 & TIM_CCMR2_CC3S) != 0x00U)
 c006708:	687b      	ldr	r3, [r7, #4]
 c00670a:	681b      	ldr	r3, [r3, #0]
 c00670c:	69db      	ldr	r3, [r3, #28]
 c00670e:	f003 0303 	and.w	r3, r3, #3
 c006712:	2b00      	cmp	r3, #0
 c006714:	d003      	beq.n	c00671e <HAL_TIM_IRQHandler+0xf2>
      {
#if (USE_HAL_TIM_REGISTER_CALLBACKS == 1)
        htim->IC_CaptureCallback(htim);
#else
        HAL_TIM_IC_CaptureCallback(htim);
 c006716:	6878      	ldr	r0, [r7, #4]
 c006718:	f000 f981 	bl	c006a1e <HAL_TIM_IC_CaptureCallback>
 c00671c:	e005      	b.n	c00672a <HAL_TIM_IRQHandler+0xfe>
      {
#if (USE_HAL_TIM_REGISTER_CALLBACKS == 1)
        htim->OC_DelayElapsedCallback(htim);
        htim->PWM_PulseFinishedCallback(htim);
#else
        HAL_TIM_OC_DelayElapsedCallback(htim);
 c00671e:	6878      	ldr	r0, [r7, #4]
 c006720:	f000 f973 	bl	c006a0a <HAL_TIM_OC_DelayElapsedCallback>
        HAL_TIM_PWM_PulseFinishedCallback(htim);
 c006724:	6878      	ldr	r0, [r7, #4]
 c006726:	f000 f984 	bl	c006a32 <HAL_TIM_PWM_PulseFinishedCallback>
#endif /* USE_HAL_TIM_REGISTER_CALLBACKS */
      }
      htim->Channel = HAL_TIM_ACTIVE_CHANNEL_CLEARED;
 c00672a:	687b      	ldr	r3, [r7, #4]
 c00672c:	2200      	movs	r2, #0
 c00672e:	771a      	strb	r2, [r3, #28]
    }
  }
  /* Capture compare 4 event */
  if (__HAL_TIM_GET_FLAG(htim, TIM_FLAG_CC4) != RESET)
 c006730:	687b      	ldr	r3, [r7, #4]
 c006732:	681b      	ldr	r3, [r3, #0]
 c006734:	691b      	ldr	r3, [r3, #16]
 c006736:	f003 0310 	and.w	r3, r3, #16
 c00673a:	2b10      	cmp	r3, #16
 c00673c:	d122      	bne.n	c006784 <HAL_TIM_IRQHandler+0x158>
  {
    if (__HAL_TIM_GET_IT_SOURCE(htim, TIM_IT_CC4) != RESET)
 c00673e:	687b      	ldr	r3, [r7, #4]
 c006740:	681b      	ldr	r3, [r3, #0]
 c006742:	68db      	ldr	r3, [r3, #12]
 c006744:	f003 0310 	and.w	r3, r3, #16
 c006748:	2b10      	cmp	r3, #16
 c00674a:	d11b      	bne.n	c006784 <HAL_TIM_IRQHandler+0x158>
    {
      __HAL_TIM_CLEAR_IT(htim, TIM_IT_CC4);
 c00674c:	687b      	ldr	r3, [r7, #4]
 c00674e:	681b      	ldr	r3, [r3, #0]
 c006750:	f06f 0210 	mvn.w	r2, #16
 c006754:	611a      	str	r2, [r3, #16]
      htim->Channel = HAL_TIM_ACTIVE_CHANNEL_4;
 c006756:	687b      	ldr	r3, [r7, #4]
 c006758:	2208      	movs	r2, #8
 c00675a:	771a      	strb	r2, [r3, #28]
      /* Input capture event */
      if ((htim->Instance->CCMR2 & TIM_CCMR2_CC4S) != 0x00U)
 c00675c:	687b      	ldr	r3, [r7, #4]
 c00675e:	681b      	ldr	r3, [r3, #0]
 c006760:	69db      	ldr	r3, [r3, #28]
 c006762:	f403 7340 	and.w	r3, r3, #768	; 0x300
 c006766:	2b00      	cmp	r3, #0
 c006768:	d003      	beq.n	c006772 <HAL_TIM_IRQHandler+0x146>
      {
#if (USE_HAL_TIM_REGISTER_CALLBACKS == 1)
        htim->IC_CaptureCallback(htim);
#else
        HAL_TIM_IC_CaptureCallback(htim);
 c00676a:	6878      	ldr	r0, [r7, #4]
 c00676c:	f000 f957 	bl	c006a1e <HAL_TIM_IC_CaptureCallback>
 c006770:	e005      	b.n	c00677e <HAL_TIM_IRQHandler+0x152>
      {
#if (USE_HAL_TIM_REGISTER_CALLBACKS == 1)
        htim->OC_DelayElapsedCallback(htim);
        htim->PWM_PulseFinishedCallback(htim);
#else
        HAL_TIM_OC_DelayElapsedCallback(htim);
 c006772:	6878      	ldr	r0, [r7, #4]
 c006774:	f000 f949 	bl	c006a0a <HAL_TIM_OC_DelayElapsedCallback>
        HAL_TIM_PWM_PulseFinishedCallback(htim);
 c006778:	6878      	ldr	r0, [r7, #4]
 c00677a:	f000 f95a 	bl	c006a32 <HAL_TIM_PWM_PulseFinishedCallback>
#endif /* USE_HAL_TIM_REGISTER_CALLBACKS */
      }
      htim->Channel = HAL_TIM_ACTIVE_CHANNEL_CLEARED;
 c00677e:	687b      	ldr	r3, [r7, #4]
 c006780:	2200      	movs	r2, #0
 c006782:	771a      	strb	r2, [r3, #28]
    }
  }
  /* TIM Update event */
  if (__HAL_TIM_GET_FLAG(htim, TIM_FLAG_UPDATE) != RESET)
 c006784:	687b      	ldr	r3, [r7, #4]
 c006786:	681b      	ldr	r3, [r3, #0]
 c006788:	691b      	ldr	r3, [r3, #16]
 c00678a:	f003 0301 	and.w	r3, r3, #1
 c00678e:	2b01      	cmp	r3, #1
 c006790:	d10e      	bne.n	c0067b0 <HAL_TIM_IRQHandler+0x184>
  {
    if (__HAL_TIM_GET_IT_SOURCE(htim, TIM_IT_UPDATE) != RESET)
 c006792:	687b      	ldr	r3, [r7, #4]
 c006794:	681b      	ldr	r3, [r3, #0]
 c006796:	68db      	ldr	r3, [r3, #12]
 c006798:	f003 0301 	and.w	r3, r3, #1
 c00679c:	2b01      	cmp	r3, #1
 c00679e:	d107      	bne.n	c0067b0 <HAL_TIM_IRQHandler+0x184>
    {
      __HAL_TIM_CLEAR_IT(htim, TIM_IT_UPDATE);
 c0067a0:	687b      	ldr	r3, [r7, #4]
 c0067a2:	681b      	ldr	r3, [r3, #0]
 c0067a4:	f06f 0201 	mvn.w	r2, #1
 c0067a8:	611a      	str	r2, [r3, #16]
#if (USE_HAL_TIM_REGISTER_CALLBACKS == 1)
      htim->PeriodElapsedCallback(htim);
#else
      HAL_TIM_PeriodElapsedCallback(htim);
 c0067aa:	6878      	ldr	r0, [r7, #4]
 c0067ac:	f000 f923 	bl	c0069f6 <HAL_TIM_PeriodElapsedCallback>
#endif /* USE_HAL_TIM_REGISTER_CALLBACKS */
    }
  }
  /* TIM Break input event */
  if (__HAL_TIM_GET_FLAG(htim, TIM_FLAG_BREAK) != RESET)
 c0067b0:	687b      	ldr	r3, [r7, #4]
 c0067b2:	681b      	ldr	r3, [r3, #0]
 c0067b4:	691b      	ldr	r3, [r3, #16]
 c0067b6:	f003 0380 	and.w	r3, r3, #128	; 0x80
 c0067ba:	2b80      	cmp	r3, #128	; 0x80
 c0067bc:	d10e      	bne.n	c0067dc <HAL_TIM_IRQHandler+0x1b0>
  {
    if (__HAL_TIM_GET_IT_SOURCE(htim, TIM_IT_BREAK) != RESET)
 c0067be:	687b      	ldr	r3, [r7, #4]
 c0067c0:	681b      	ldr	r3, [r3, #0]
 c0067c2:	68db      	ldr	r3, [r3, #12]
 c0067c4:	f003 0380 	and.w	r3, r3, #128	; 0x80
 c0067c8:	2b80      	cmp	r3, #128	; 0x80
 c0067ca:	d107      	bne.n	c0067dc <HAL_TIM_IRQHandler+0x1b0>
    {
      __HAL_TIM_CLEAR_IT(htim, TIM_IT_BREAK);
 c0067cc:	687b      	ldr	r3, [r7, #4]
 c0067ce:	681b      	ldr	r3, [r3, #0]
 c0067d0:	f06f 0280 	mvn.w	r2, #128	; 0x80
 c0067d4:	611a      	str	r2, [r3, #16]
#if (USE_HAL_TIM_REGISTER_CALLBACKS == 1)
      htim->BreakCallback(htim);
#else
      HAL_TIMEx_BreakCallback(htim);
 c0067d6:	6878      	ldr	r0, [r7, #4]
 c0067d8:	f000 fb08 	bl	c006dec <HAL_TIMEx_BreakCallback>
#endif /* USE_HAL_TIM_REGISTER_CALLBACKS */
    }
  }
  /* TIM Break2 input event */
  if (__HAL_TIM_GET_FLAG(htim, TIM_FLAG_BREAK2) != RESET)
 c0067dc:	687b      	ldr	r3, [r7, #4]
 c0067de:	681b      	ldr	r3, [r3, #0]
 c0067e0:	691b      	ldr	r3, [r3, #16]
 c0067e2:	f403 7380 	and.w	r3, r3, #256	; 0x100
 c0067e6:	f5b3 7f80 	cmp.w	r3, #256	; 0x100
 c0067ea:	d10e      	bne.n	c00680a <HAL_TIM_IRQHandler+0x1de>
  {
    if (__HAL_TIM_GET_IT_SOURCE(htim, TIM_IT_BREAK) != RESET)
 c0067ec:	687b      	ldr	r3, [r7, #4]
 c0067ee:	681b      	ldr	r3, [r3, #0]
 c0067f0:	68db      	ldr	r3, [r3, #12]
 c0067f2:	f003 0380 	and.w	r3, r3, #128	; 0x80
 c0067f6:	2b80      	cmp	r3, #128	; 0x80
 c0067f8:	d107      	bne.n	c00680a <HAL_TIM_IRQHandler+0x1de>
    {
      __HAL_TIM_CLEAR_FLAG(htim, TIM_FLAG_BREAK2);
 c0067fa:	687b      	ldr	r3, [r7, #4]
 c0067fc:	681b      	ldr	r3, [r3, #0]
 c0067fe:	f46f 7280 	mvn.w	r2, #256	; 0x100
 c006802:	611a      	str	r2, [r3, #16]
#if (USE_HAL_TIM_REGISTER_CALLBACKS == 1)
      htim->Break2Callback(htim);
#else
      HAL_TIMEx_Break2Callback(htim);
 c006804:	6878      	ldr	r0, [r7, #4]
 c006806:	f000 fafb 	bl	c006e00 <HAL_TIMEx_Break2Callback>
#endif /* USE_HAL_TIM_REGISTER_CALLBACKS */
    }
  }
  /* TIM Trigger detection event */
  if (__HAL_TIM_GET_FLAG(htim, TIM_FLAG_TRIGGER) != RESET)
 c00680a:	687b      	ldr	r3, [r7, #4]
 c00680c:	681b      	ldr	r3, [r3, #0]
 c00680e:	691b      	ldr	r3, [r3, #16]
 c006810:	f003 0340 	and.w	r3, r3, #64	; 0x40
 c006814:	2b40      	cmp	r3, #64	; 0x40
 c006816:	d10e      	bne.n	c006836 <HAL_TIM_IRQHandler+0x20a>
  {
    if (__HAL_TIM_GET_IT_SOURCE(htim, TIM_IT_TRIGGER) != RESET)
 c006818:	687b      	ldr	r3, [r7, #4]
 c00681a:	681b      	ldr	r3, [r3, #0]
 c00681c:	68db      	ldr	r3, [r3, #12]
 c00681e:	f003 0340 	and.w	r3, r3, #64	; 0x40
 c006822:	2b40      	cmp	r3, #64	; 0x40
 c006824:	d107      	bne.n	c006836 <HAL_TIM_IRQHandler+0x20a>
    {
      __HAL_TIM_CLEAR_IT(htim, TIM_IT_TRIGGER);
 c006826:	687b      	ldr	r3, [r7, #4]
 c006828:	681b      	ldr	r3, [r3, #0]
 c00682a:	f06f 0240 	mvn.w	r2, #64	; 0x40
 c00682e:	611a      	str	r2, [r3, #16]
#if (USE_HAL_TIM_REGISTER_CALLBACKS == 1)
      htim->TriggerCallback(htim);
#else
      HAL_TIM_TriggerCallback(htim);
 c006830:	6878      	ldr	r0, [r7, #4]
 c006832:	f000 f908 	bl	c006a46 <HAL_TIM_TriggerCallback>
#endif /* USE_HAL_TIM_REGISTER_CALLBACKS */
    }
  }
  /* TIM commutation event */
  if (__HAL_TIM_GET_FLAG(htim, TIM_FLAG_COM) != RESET)
 c006836:	687b      	ldr	r3, [r7, #4]
 c006838:	681b      	ldr	r3, [r3, #0]
 c00683a:	691b      	ldr	r3, [r3, #16]
 c00683c:	f003 0320 	and.w	r3, r3, #32
 c006840:	2b20      	cmp	r3, #32
 c006842:	d10e      	bne.n	c006862 <HAL_TIM_IRQHandler+0x236>
  {
    if (__HAL_TIM_GET_IT_SOURCE(htim, TIM_IT_COM) != RESET)
 c006844:	687b      	ldr	r3, [r7, #4]
 c006846:	681b      	ldr	r3, [r3, #0]
 c006848:	68db      	ldr	r3, [r3, #12]
 c00684a:	f003 0320 	and.w	r3, r3, #32
 c00684e:	2b20      	cmp	r3, #32
 c006850:	d107      	bne.n	c006862 <HAL_TIM_IRQHandler+0x236>
    {
      __HAL_TIM_CLEAR_IT(htim, TIM_FLAG_COM);
 c006852:	687b      	ldr	r3, [r7, #4]
 c006854:	681b      	ldr	r3, [r3, #0]
 c006856:	f06f 0220 	mvn.w	r2, #32
 c00685a:	611a      	str	r2, [r3, #16]
#if (USE_HAL_TIM_REGISTER_CALLBACKS == 1)
      htim->CommutationCallback(htim);
#else
      HAL_TIMEx_CommutCallback(htim);
 c00685c:	6878      	ldr	r0, [r7, #4]
 c00685e:	f000 fabb 	bl	c006dd8 <HAL_TIMEx_CommutCallback>
#endif /* USE_HAL_TIM_REGISTER_CALLBACKS */
    }
  }
}
 c006862:	bf00      	nop
 c006864:	3708      	adds	r7, #8
 c006866:	46bd      	mov	sp, r7
 c006868:	bd80      	pop	{r7, pc}

0c00686a <HAL_TIM_ConfigClockSource>:
  * @param  sClockSourceConfig pointer to a TIM_ClockConfigTypeDef structure that
  *         contains the clock source information for the TIM peripheral.
  * @retval HAL status
  */
HAL_StatusTypeDef HAL_TIM_ConfigClockSource(TIM_HandleTypeDef *htim, TIM_ClockConfigTypeDef *sClockSourceConfig)
{
 c00686a:	b580      	push	{r7, lr}
 c00686c:	b084      	sub	sp, #16
 c00686e:	af00      	add	r7, sp, #0
 c006870:	6078      	str	r0, [r7, #4]
 c006872:	6039      	str	r1, [r7, #0]
  uint32_t tmpsmcr;

  /* Process Locked */
  __HAL_LOCK(htim);
 c006874:	687b      	ldr	r3, [r7, #4]
 c006876:	f893 303c 	ldrb.w	r3, [r3, #60]	; 0x3c
 c00687a:	2b01      	cmp	r3, #1
 c00687c:	d101      	bne.n	c006882 <HAL_TIM_ConfigClockSource+0x18>
 c00687e:	2302      	movs	r3, #2
 c006880:	e0b5      	b.n	c0069ee <HAL_TIM_ConfigClockSource+0x184>
 c006882:	687b      	ldr	r3, [r7, #4]
 c006884:	2201      	movs	r2, #1
 c006886:	f883 203c 	strb.w	r2, [r3, #60]	; 0x3c

  htim->State = HAL_TIM_STATE_BUSY;
 c00688a:	687b      	ldr	r3, [r7, #4]
 c00688c:	2202      	movs	r2, #2
 c00688e:	f883 203d 	strb.w	r2, [r3, #61]	; 0x3d

  /* Check the parameters */
  assert_param(IS_TIM_CLOCKSOURCE(sClockSourceConfig->ClockSource));

  /* Reset the SMS, TS, ECE, ETPS and ETRF bits */
  tmpsmcr = htim->Instance->SMCR;
 c006892:	687b      	ldr	r3, [r7, #4]
 c006894:	681b      	ldr	r3, [r3, #0]
 c006896:	689b      	ldr	r3, [r3, #8]
 c006898:	60fb      	str	r3, [r7, #12]
  tmpsmcr &= ~(TIM_SMCR_SMS | TIM_SMCR_TS);
 c00689a:	68fb      	ldr	r3, [r7, #12]
 c00689c:	f423 1344 	bic.w	r3, r3, #3211264	; 0x310000
 c0068a0:	f023 0377 	bic.w	r3, r3, #119	; 0x77
 c0068a4:	60fb      	str	r3, [r7, #12]
  tmpsmcr &= ~(TIM_SMCR_ETF | TIM_SMCR_ETPS | TIM_SMCR_ECE | TIM_SMCR_ETP);
 c0068a6:	68fb      	ldr	r3, [r7, #12]
 c0068a8:	f423 437f 	bic.w	r3, r3, #65280	; 0xff00
 c0068ac:	60fb      	str	r3, [r7, #12]
  htim->Instance->SMCR = tmpsmcr;
 c0068ae:	687b      	ldr	r3, [r7, #4]
 c0068b0:	681b      	ldr	r3, [r3, #0]
 c0068b2:	68fa      	ldr	r2, [r7, #12]
 c0068b4:	609a      	str	r2, [r3, #8]

  switch (sClockSourceConfig->ClockSource)
 c0068b6:	683b      	ldr	r3, [r7, #0]
 c0068b8:	681b      	ldr	r3, [r3, #0]
 c0068ba:	f5b3 5f00 	cmp.w	r3, #8192	; 0x2000
 c0068be:	d03e      	beq.n	c00693e <HAL_TIM_ConfigClockSource+0xd4>
 c0068c0:	f5b3 5f00 	cmp.w	r3, #8192	; 0x2000
 c0068c4:	f200 8087 	bhi.w	c0069d6 <HAL_TIM_ConfigClockSource+0x16c>
 c0068c8:	f5b3 5f80 	cmp.w	r3, #4096	; 0x1000
 c0068cc:	f000 8085 	beq.w	c0069da <HAL_TIM_ConfigClockSource+0x170>
 c0068d0:	f5b3 5f80 	cmp.w	r3, #4096	; 0x1000
 c0068d4:	d87f      	bhi.n	c0069d6 <HAL_TIM_ConfigClockSource+0x16c>
 c0068d6:	2b70      	cmp	r3, #112	; 0x70
 c0068d8:	d01a      	beq.n	c006910 <HAL_TIM_ConfigClockSource+0xa6>
 c0068da:	2b70      	cmp	r3, #112	; 0x70
 c0068dc:	d87b      	bhi.n	c0069d6 <HAL_TIM_ConfigClockSource+0x16c>
 c0068de:	2b60      	cmp	r3, #96	; 0x60
 c0068e0:	d050      	beq.n	c006984 <HAL_TIM_ConfigClockSource+0x11a>
 c0068e2:	2b60      	cmp	r3, #96	; 0x60
 c0068e4:	d877      	bhi.n	c0069d6 <HAL_TIM_ConfigClockSource+0x16c>
 c0068e6:	2b50      	cmp	r3, #80	; 0x50
 c0068e8:	d03c      	beq.n	c006964 <HAL_TIM_ConfigClockSource+0xfa>
 c0068ea:	2b50      	cmp	r3, #80	; 0x50
 c0068ec:	d873      	bhi.n	c0069d6 <HAL_TIM_ConfigClockSource+0x16c>
 c0068ee:	2b40      	cmp	r3, #64	; 0x40
 c0068f0:	d058      	beq.n	c0069a4 <HAL_TIM_ConfigClockSource+0x13a>
 c0068f2:	2b40      	cmp	r3, #64	; 0x40
 c0068f4:	d86f      	bhi.n	c0069d6 <HAL_TIM_ConfigClockSource+0x16c>
 c0068f6:	2b30      	cmp	r3, #48	; 0x30
 c0068f8:	d064      	beq.n	c0069c4 <HAL_TIM_ConfigClockSource+0x15a>
 c0068fa:	2b30      	cmp	r3, #48	; 0x30
 c0068fc:	d86b      	bhi.n	c0069d6 <HAL_TIM_ConfigClockSource+0x16c>
 c0068fe:	2b20      	cmp	r3, #32
 c006900:	d060      	beq.n	c0069c4 <HAL_TIM_ConfigClockSource+0x15a>
 c006902:	2b20      	cmp	r3, #32
 c006904:	d867      	bhi.n	c0069d6 <HAL_TIM_ConfigClockSource+0x16c>
 c006906:	2b00      	cmp	r3, #0
 c006908:	d05c      	beq.n	c0069c4 <HAL_TIM_ConfigClockSource+0x15a>
 c00690a:	2b10      	cmp	r3, #16
 c00690c:	d05a      	beq.n	c0069c4 <HAL_TIM_ConfigClockSource+0x15a>
        TIM_ITRx_SetConfig(htim->Instance, sClockSourceConfig->ClockSource);
        break;
      }

    default:
      break;
 c00690e:	e062      	b.n	c0069d6 <HAL_TIM_ConfigClockSource+0x16c>
      TIM_ETR_SetConfig(htim->Instance,
 c006910:	687b      	ldr	r3, [r7, #4]
 c006912:	6818      	ldr	r0, [r3, #0]
 c006914:	683b      	ldr	r3, [r7, #0]
 c006916:	6899      	ldr	r1, [r3, #8]
 c006918:	683b      	ldr	r3, [r7, #0]
 c00691a:	685a      	ldr	r2, [r3, #4]
 c00691c:	683b      	ldr	r3, [r7, #0]
 c00691e:	68db      	ldr	r3, [r3, #12]
 c006920:	f000 f9b2 	bl	c006c88 <TIM_ETR_SetConfig>
      tmpsmcr = htim->Instance->SMCR;
 c006924:	687b      	ldr	r3, [r7, #4]
 c006926:	681b      	ldr	r3, [r3, #0]
 c006928:	689b      	ldr	r3, [r3, #8]
 c00692a:	60fb      	str	r3, [r7, #12]
      tmpsmcr |= (TIM_SLAVEMODE_EXTERNAL1 | TIM_CLOCKSOURCE_ETRMODE1);
 c00692c:	68fb      	ldr	r3, [r7, #12]
 c00692e:	f043 0377 	orr.w	r3, r3, #119	; 0x77
 c006932:	60fb      	str	r3, [r7, #12]
      htim->Instance->SMCR = tmpsmcr;
 c006934:	687b      	ldr	r3, [r7, #4]
 c006936:	681b      	ldr	r3, [r3, #0]
 c006938:	68fa      	ldr	r2, [r7, #12]
 c00693a:	609a      	str	r2, [r3, #8]
      break;
 c00693c:	e04e      	b.n	c0069dc <HAL_TIM_ConfigClockSource+0x172>
      TIM_ETR_SetConfig(htim->Instance,
 c00693e:	687b      	ldr	r3, [r7, #4]
 c006940:	6818      	ldr	r0, [r3, #0]
 c006942:	683b      	ldr	r3, [r7, #0]
 c006944:	6899      	ldr	r1, [r3, #8]
 c006946:	683b      	ldr	r3, [r7, #0]
 c006948:	685a      	ldr	r2, [r3, #4]
 c00694a:	683b      	ldr	r3, [r7, #0]
 c00694c:	68db      	ldr	r3, [r3, #12]
 c00694e:	f000 f99b 	bl	c006c88 <TIM_ETR_SetConfig>
      htim->Instance->SMCR |= TIM_SMCR_ECE;
 c006952:	687b      	ldr	r3, [r7, #4]
 c006954:	681b      	ldr	r3, [r3, #0]
 c006956:	689a      	ldr	r2, [r3, #8]
 c006958:	687b      	ldr	r3, [r7, #4]
 c00695a:	681b      	ldr	r3, [r3, #0]
 c00695c:	f442 4280 	orr.w	r2, r2, #16384	; 0x4000
 c006960:	609a      	str	r2, [r3, #8]
      break;
 c006962:	e03b      	b.n	c0069dc <HAL_TIM_ConfigClockSource+0x172>
      TIM_TI1_ConfigInputStage(htim->Instance,
 c006964:	687b      	ldr	r3, [r7, #4]
 c006966:	6818      	ldr	r0, [r3, #0]
 c006968:	683b      	ldr	r3, [r7, #0]
 c00696a:	6859      	ldr	r1, [r3, #4]
 c00696c:	683b      	ldr	r3, [r7, #0]
 c00696e:	68db      	ldr	r3, [r3, #12]
 c006970:	461a      	mov	r2, r3
 c006972:	f000 f90d 	bl	c006b90 <TIM_TI1_ConfigInputStage>
      TIM_ITRx_SetConfig(htim->Instance, TIM_CLOCKSOURCE_TI1);
 c006976:	687b      	ldr	r3, [r7, #4]
 c006978:	681b      	ldr	r3, [r3, #0]
 c00697a:	2150      	movs	r1, #80	; 0x50
 c00697c:	4618      	mov	r0, r3
 c00697e:	f000 f966 	bl	c006c4e <TIM_ITRx_SetConfig>
      break;
 c006982:	e02b      	b.n	c0069dc <HAL_TIM_ConfigClockSource+0x172>
      TIM_TI2_ConfigInputStage(htim->Instance,
 c006984:	687b      	ldr	r3, [r7, #4]
 c006986:	6818      	ldr	r0, [r3, #0]
 c006988:	683b      	ldr	r3, [r7, #0]
 c00698a:	6859      	ldr	r1, [r3, #4]
 c00698c:	683b      	ldr	r3, [r7, #0]
 c00698e:	68db      	ldr	r3, [r3, #12]
 c006990:	461a      	mov	r2, r3
 c006992:	f000 f92c 	bl	c006bee <TIM_TI2_ConfigInputStage>
      TIM_ITRx_SetConfig(htim->Instance, TIM_CLOCKSOURCE_TI2);
 c006996:	687b      	ldr	r3, [r7, #4]
 c006998:	681b      	ldr	r3, [r3, #0]
 c00699a:	2160      	movs	r1, #96	; 0x60
 c00699c:	4618      	mov	r0, r3
 c00699e:	f000 f956 	bl	c006c4e <TIM_ITRx_SetConfig>
      break;
 c0069a2:	e01b      	b.n	c0069dc <HAL_TIM_ConfigClockSource+0x172>
      TIM_TI1_ConfigInputStage(htim->Instance,
 c0069a4:	687b      	ldr	r3, [r7, #4]
 c0069a6:	6818      	ldr	r0, [r3, #0]
 c0069a8:	683b      	ldr	r3, [r7, #0]
 c0069aa:	6859      	ldr	r1, [r3, #4]
 c0069ac:	683b      	ldr	r3, [r7, #0]
 c0069ae:	68db      	ldr	r3, [r3, #12]
 c0069b0:	461a      	mov	r2, r3
 c0069b2:	f000 f8ed 	bl	c006b90 <TIM_TI1_ConfigInputStage>
      TIM_ITRx_SetConfig(htim->Instance, TIM_CLOCKSOURCE_TI1ED);
 c0069b6:	687b      	ldr	r3, [r7, #4]
 c0069b8:	681b      	ldr	r3, [r3, #0]
 c0069ba:	2140      	movs	r1, #64	; 0x40
 c0069bc:	4618      	mov	r0, r3
 c0069be:	f000 f946 	bl	c006c4e <TIM_ITRx_SetConfig>
      break;
 c0069c2:	e00b      	b.n	c0069dc <HAL_TIM_ConfigClockSource+0x172>
        TIM_ITRx_SetConfig(htim->Instance, sClockSourceConfig->ClockSource);
 c0069c4:	687b      	ldr	r3, [r7, #4]
 c0069c6:	681a      	ldr	r2, [r3, #0]
 c0069c8:	683b      	ldr	r3, [r7, #0]
 c0069ca:	681b      	ldr	r3, [r3, #0]
 c0069cc:	4619      	mov	r1, r3
 c0069ce:	4610      	mov	r0, r2
 c0069d0:	f000 f93d 	bl	c006c4e <TIM_ITRx_SetConfig>
        break;
 c0069d4:	e002      	b.n	c0069dc <HAL_TIM_ConfigClockSource+0x172>
      break;
 c0069d6:	bf00      	nop
 c0069d8:	e000      	b.n	c0069dc <HAL_TIM_ConfigClockSource+0x172>
      break;
 c0069da:	bf00      	nop
  }
  htim->State = HAL_TIM_STATE_READY;
 c0069dc:	687b      	ldr	r3, [r7, #4]
 c0069de:	2201      	movs	r2, #1
 c0069e0:	f883 203d 	strb.w	r2, [r3, #61]	; 0x3d

  __HAL_UNLOCK(htim);
 c0069e4:	687b      	ldr	r3, [r7, #4]
 c0069e6:	2200      	movs	r2, #0
 c0069e8:	f883 203c 	strb.w	r2, [r3, #60]	; 0x3c

  return HAL_OK;
 c0069ec:	2300      	movs	r3, #0
}
 c0069ee:	4618      	mov	r0, r3
 c0069f0:	3710      	adds	r7, #16
 c0069f2:	46bd      	mov	sp, r7
 c0069f4:	bd80      	pop	{r7, pc}

0c0069f6 <HAL_TIM_PeriodElapsedCallback>:
  * @brief  Period elapsed callback in non-blocking mode
  * @param  htim TIM handle
  * @retval None
  */
__weak void HAL_TIM_PeriodElapsedCallback(TIM_HandleTypeDef *htim)
{
 c0069f6:	b480      	push	{r7}
 c0069f8:	b083      	sub	sp, #12
 c0069fa:	af00      	add	r7, sp, #0
 c0069fc:	6078      	str	r0, [r7, #4]
  UNUSED(htim);

  /* NOTE : This function should not be modified, when the callback is needed,
            the HAL_TIM_PeriodElapsedCallback could be implemented in the user file
   */
}
 c0069fe:	bf00      	nop
 c006a00:	370c      	adds	r7, #12
 c006a02:	46bd      	mov	sp, r7
 c006a04:	f85d 7b04 	ldr.w	r7, [sp], #4
 c006a08:	4770      	bx	lr

0c006a0a <HAL_TIM_OC_DelayElapsedCallback>:
  * @brief  Output Compare callback in non-blocking mode
  * @param  htim TIM OC handle
  * @retval None
  */
__weak void HAL_TIM_OC_DelayElapsedCallback(TIM_HandleTypeDef *htim)
{
 c006a0a:	b480      	push	{r7}
 c006a0c:	b083      	sub	sp, #12
 c006a0e:	af00      	add	r7, sp, #0
 c006a10:	6078      	str	r0, [r7, #4]
  UNUSED(htim);

  /* NOTE : This function should not be modified, when the callback is needed,
            the HAL_TIM_OC_DelayElapsedCallback could be implemented in the user file
   */
}
 c006a12:	bf00      	nop
 c006a14:	370c      	adds	r7, #12
 c006a16:	46bd      	mov	sp, r7
 c006a18:	f85d 7b04 	ldr.w	r7, [sp], #4
 c006a1c:	4770      	bx	lr

0c006a1e <HAL_TIM_IC_CaptureCallback>:
  * @brief  Input Capture callback in non-blocking mode
  * @param  htim TIM IC handle
  * @retval None
  */
__weak void HAL_TIM_IC_CaptureCallback(TIM_HandleTypeDef *htim)
{
 c006a1e:	b480      	push	{r7}
 c006a20:	b083      	sub	sp, #12
 c006a22:	af00      	add	r7, sp, #0
 c006a24:	6078      	str	r0, [r7, #4]
  UNUSED(htim);

  /* NOTE : This function should not be modified, when the callback is needed,
            the HAL_TIM_IC_CaptureCallback could be implemented in the user file
   */
}
 c006a26:	bf00      	nop
 c006a28:	370c      	adds	r7, #12
 c006a2a:	46bd      	mov	sp, r7
 c006a2c:	f85d 7b04 	ldr.w	r7, [sp], #4
 c006a30:	4770      	bx	lr

0c006a32 <HAL_TIM_PWM_PulseFinishedCallback>:
  * @brief  PWM Pulse finished callback in non-blocking mode
  * @param  htim TIM handle
  * @retval None
  */
__weak void HAL_TIM_PWM_PulseFinishedCallback(TIM_HandleTypeDef *htim)
{
 c006a32:	b480      	push	{r7}
 c006a34:	b083      	sub	sp, #12
 c006a36:	af00      	add	r7, sp, #0
 c006a38:	6078      	str	r0, [r7, #4]
  UNUSED(htim);

  /* NOTE : This function should not be modified, when the callback is needed,
            the HAL_TIM_PWM_PulseFinishedCallback could be implemented in the user file
   */
}
 c006a3a:	bf00      	nop
 c006a3c:	370c      	adds	r7, #12
 c006a3e:	46bd      	mov	sp, r7
 c006a40:	f85d 7b04 	ldr.w	r7, [sp], #4
 c006a44:	4770      	bx	lr

0c006a46 <HAL_TIM_TriggerCallback>:
  * @brief  Hall Trigger detection callback in non-blocking mode
  * @param  htim TIM handle
  * @retval None
  */
__weak void HAL_TIM_TriggerCallback(TIM_HandleTypeDef *htim)
{
 c006a46:	b480      	push	{r7}
 c006a48:	b083      	sub	sp, #12
 c006a4a:	af00      	add	r7, sp, #0
 c006a4c:	6078      	str	r0, [r7, #4]
  UNUSED(htim);

  /* NOTE : This function should not be modified, when the callback is needed,
            the HAL_TIM_TriggerCallback could be implemented in the user file
   */
}
 c006a4e:	bf00      	nop
 c006a50:	370c      	adds	r7, #12
 c006a52:	46bd      	mov	sp, r7
 c006a54:	f85d 7b04 	ldr.w	r7, [sp], #4
 c006a58:	4770      	bx	lr
	...

0c006a5c <TIM_Base_SetConfig>:
  * @param  TIMx TIM peripheral
  * @param  Structure TIM Base configuration structure
  * @retval None
  */
void TIM_Base_SetConfig(TIM_TypeDef *TIMx, TIM_Base_InitTypeDef *Structure)
{
 c006a5c:	b480      	push	{r7}
 c006a5e:	b085      	sub	sp, #20
 c006a60:	af00      	add	r7, sp, #0
 c006a62:	6078      	str	r0, [r7, #4]
 c006a64:	6039      	str	r1, [r7, #0]
  uint32_t tmpcr1;
  tmpcr1 = TIMx->CR1;
 c006a66:	687b      	ldr	r3, [r7, #4]
 c006a68:	681b      	ldr	r3, [r3, #0]
 c006a6a:	60fb      	str	r3, [r7, #12]

  /* Set TIM Time Base Unit parameters ---------------------------------------*/
  if (IS_TIM_COUNTER_MODE_SELECT_INSTANCE(TIMx))
 c006a6c:	687b      	ldr	r3, [r7, #4]
 c006a6e:	4a40      	ldr	r2, [pc, #256]	; (c006b70 <TIM_Base_SetConfig+0x114>)
 c006a70:	4293      	cmp	r3, r2
 c006a72:	d013      	beq.n	c006a9c <TIM_Base_SetConfig+0x40>
 c006a74:	687b      	ldr	r3, [r7, #4]
 c006a76:	f1b3 4fa0 	cmp.w	r3, #1342177280	; 0x50000000
 c006a7a:	d00f      	beq.n	c006a9c <TIM_Base_SetConfig+0x40>
 c006a7c:	687b      	ldr	r3, [r7, #4]
 c006a7e:	4a3d      	ldr	r2, [pc, #244]	; (c006b74 <TIM_Base_SetConfig+0x118>)
 c006a80:	4293      	cmp	r3, r2
 c006a82:	d00b      	beq.n	c006a9c <TIM_Base_SetConfig+0x40>
 c006a84:	687b      	ldr	r3, [r7, #4]
 c006a86:	4a3c      	ldr	r2, [pc, #240]	; (c006b78 <TIM_Base_SetConfig+0x11c>)
 c006a88:	4293      	cmp	r3, r2
 c006a8a:	d007      	beq.n	c006a9c <TIM_Base_SetConfig+0x40>
 c006a8c:	687b      	ldr	r3, [r7, #4]
 c006a8e:	4a3b      	ldr	r2, [pc, #236]	; (c006b7c <TIM_Base_SetConfig+0x120>)
 c006a90:	4293      	cmp	r3, r2
 c006a92:	d003      	beq.n	c006a9c <TIM_Base_SetConfig+0x40>
 c006a94:	687b      	ldr	r3, [r7, #4]
 c006a96:	4a3a      	ldr	r2, [pc, #232]	; (c006b80 <TIM_Base_SetConfig+0x124>)
 c006a98:	4293      	cmp	r3, r2
 c006a9a:	d108      	bne.n	c006aae <TIM_Base_SetConfig+0x52>
  {
    /* Select the Counter Mode */
    tmpcr1 &= ~(TIM_CR1_DIR | TIM_CR1_CMS);
 c006a9c:	68fb      	ldr	r3, [r7, #12]
 c006a9e:	f023 0370 	bic.w	r3, r3, #112	; 0x70
 c006aa2:	60fb      	str	r3, [r7, #12]
    tmpcr1 |= Structure->CounterMode;
 c006aa4:	683b      	ldr	r3, [r7, #0]
 c006aa6:	685b      	ldr	r3, [r3, #4]
 c006aa8:	68fa      	ldr	r2, [r7, #12]
 c006aaa:	4313      	orrs	r3, r2
 c006aac:	60fb      	str	r3, [r7, #12]
  }

  if (IS_TIM_CLOCK_DIVISION_INSTANCE(TIMx))
 c006aae:	687b      	ldr	r3, [r7, #4]
 c006ab0:	4a2f      	ldr	r2, [pc, #188]	; (c006b70 <TIM_Base_SetConfig+0x114>)
 c006ab2:	4293      	cmp	r3, r2
 c006ab4:	d01f      	beq.n	c006af6 <TIM_Base_SetConfig+0x9a>
 c006ab6:	687b      	ldr	r3, [r7, #4]
 c006ab8:	f1b3 4fa0 	cmp.w	r3, #1342177280	; 0x50000000
 c006abc:	d01b      	beq.n	c006af6 <TIM_Base_SetConfig+0x9a>
 c006abe:	687b      	ldr	r3, [r7, #4]
 c006ac0:	4a2c      	ldr	r2, [pc, #176]	; (c006b74 <TIM_Base_SetConfig+0x118>)
 c006ac2:	4293      	cmp	r3, r2
 c006ac4:	d017      	beq.n	c006af6 <TIM_Base_SetConfig+0x9a>
 c006ac6:	687b      	ldr	r3, [r7, #4]
 c006ac8:	4a2b      	ldr	r2, [pc, #172]	; (c006b78 <TIM_Base_SetConfig+0x11c>)
 c006aca:	4293      	cmp	r3, r2
 c006acc:	d013      	beq.n	c006af6 <TIM_Base_SetConfig+0x9a>
 c006ace:	687b      	ldr	r3, [r7, #4]
 c006ad0:	4a2a      	ldr	r2, [pc, #168]	; (c006b7c <TIM_Base_SetConfig+0x120>)
 c006ad2:	4293      	cmp	r3, r2
 c006ad4:	d00f      	beq.n	c006af6 <TIM_Base_SetConfig+0x9a>
 c006ad6:	687b      	ldr	r3, [r7, #4]
 c006ad8:	4a29      	ldr	r2, [pc, #164]	; (c006b80 <TIM_Base_SetConfig+0x124>)
 c006ada:	4293      	cmp	r3, r2
 c006adc:	d00b      	beq.n	c006af6 <TIM_Base_SetConfig+0x9a>
 c006ade:	687b      	ldr	r3, [r7, #4]
 c006ae0:	4a28      	ldr	r2, [pc, #160]	; (c006b84 <TIM_Base_SetConfig+0x128>)
 c006ae2:	4293      	cmp	r3, r2
 c006ae4:	d007      	beq.n	c006af6 <TIM_Base_SetConfig+0x9a>
 c006ae6:	687b      	ldr	r3, [r7, #4]
 c006ae8:	4a27      	ldr	r2, [pc, #156]	; (c006b88 <TIM_Base_SetConfig+0x12c>)
 c006aea:	4293      	cmp	r3, r2
 c006aec:	d003      	beq.n	c006af6 <TIM_Base_SetConfig+0x9a>
 c006aee:	687b      	ldr	r3, [r7, #4]
 c006af0:	4a26      	ldr	r2, [pc, #152]	; (c006b8c <TIM_Base_SetConfig+0x130>)
 c006af2:	4293      	cmp	r3, r2
 c006af4:	d108      	bne.n	c006b08 <TIM_Base_SetConfig+0xac>
  {
    /* Set the clock division */
    tmpcr1 &= ~TIM_CR1_CKD;
 c006af6:	68fb      	ldr	r3, [r7, #12]
 c006af8:	f423 7340 	bic.w	r3, r3, #768	; 0x300
 c006afc:	60fb      	str	r3, [r7, #12]
    tmpcr1 |= (uint32_t)Structure->ClockDivision;
 c006afe:	683b      	ldr	r3, [r7, #0]
 c006b00:	68db      	ldr	r3, [r3, #12]
 c006b02:	68fa      	ldr	r2, [r7, #12]
 c006b04:	4313      	orrs	r3, r2
 c006b06:	60fb      	str	r3, [r7, #12]
  }

  /* Set the auto-reload preload */
  MODIFY_REG(tmpcr1, TIM_CR1_ARPE, Structure->AutoReloadPreload);
 c006b08:	68fb      	ldr	r3, [r7, #12]
 c006b0a:	f023 0280 	bic.w	r2, r3, #128	; 0x80
 c006b0e:	683b      	ldr	r3, [r7, #0]
 c006b10:	695b      	ldr	r3, [r3, #20]
 c006b12:	4313      	orrs	r3, r2
 c006b14:	60fb      	str	r3, [r7, #12]

  TIMx->CR1 = tmpcr1;
 c006b16:	687b      	ldr	r3, [r7, #4]
 c006b18:	68fa      	ldr	r2, [r7, #12]
 c006b1a:	601a      	str	r2, [r3, #0]

  /* Set the Autoreload value */
  TIMx->ARR = (uint32_t)Structure->Period ;
 c006b1c:	683b      	ldr	r3, [r7, #0]
 c006b1e:	689a      	ldr	r2, [r3, #8]
 c006b20:	687b      	ldr	r3, [r7, #4]
 c006b22:	62da      	str	r2, [r3, #44]	; 0x2c

  /* Set the Prescaler value */
  TIMx->PSC = Structure->Prescaler;
 c006b24:	683b      	ldr	r3, [r7, #0]
 c006b26:	681a      	ldr	r2, [r3, #0]
 c006b28:	687b      	ldr	r3, [r7, #4]
 c006b2a:	629a      	str	r2, [r3, #40]	; 0x28

  if (IS_TIM_REPETITION_COUNTER_INSTANCE(TIMx))
 c006b2c:	687b      	ldr	r3, [r7, #4]
 c006b2e:	4a10      	ldr	r2, [pc, #64]	; (c006b70 <TIM_Base_SetConfig+0x114>)
 c006b30:	4293      	cmp	r3, r2
 c006b32:	d00f      	beq.n	c006b54 <TIM_Base_SetConfig+0xf8>
 c006b34:	687b      	ldr	r3, [r7, #4]
 c006b36:	4a12      	ldr	r2, [pc, #72]	; (c006b80 <TIM_Base_SetConfig+0x124>)
 c006b38:	4293      	cmp	r3, r2
 c006b3a:	d00b      	beq.n	c006b54 <TIM_Base_SetConfig+0xf8>
 c006b3c:	687b      	ldr	r3, [r7, #4]
 c006b3e:	4a11      	ldr	r2, [pc, #68]	; (c006b84 <TIM_Base_SetConfig+0x128>)
 c006b40:	4293      	cmp	r3, r2
 c006b42:	d007      	beq.n	c006b54 <TIM_Base_SetConfig+0xf8>
 c006b44:	687b      	ldr	r3, [r7, #4]
 c006b46:	4a10      	ldr	r2, [pc, #64]	; (c006b88 <TIM_Base_SetConfig+0x12c>)
 c006b48:	4293      	cmp	r3, r2
 c006b4a:	d003      	beq.n	c006b54 <TIM_Base_SetConfig+0xf8>
 c006b4c:	687b      	ldr	r3, [r7, #4]
 c006b4e:	4a0f      	ldr	r2, [pc, #60]	; (c006b8c <TIM_Base_SetConfig+0x130>)
 c006b50:	4293      	cmp	r3, r2
 c006b52:	d103      	bne.n	c006b5c <TIM_Base_SetConfig+0x100>
  {
    /* Set the Repetition Counter value */
    TIMx->RCR = Structure->RepetitionCounter;
 c006b54:	683b      	ldr	r3, [r7, #0]
 c006b56:	691a      	ldr	r2, [r3, #16]
 c006b58:	687b      	ldr	r3, [r7, #4]
 c006b5a:	631a      	str	r2, [r3, #48]	; 0x30
  }

  /* Generate an update event to reload the Prescaler
     and the repetition counter (only for advanced timer) value immediately */
  TIMx->EGR = TIM_EGR_UG;
 c006b5c:	687b      	ldr	r3, [r7, #4]
 c006b5e:	2201      	movs	r2, #1
 c006b60:	615a      	str	r2, [r3, #20]
}
 c006b62:	bf00      	nop
 c006b64:	3714      	adds	r7, #20
 c006b66:	46bd      	mov	sp, r7
 c006b68:	f85d 7b04 	ldr.w	r7, [sp], #4
 c006b6c:	4770      	bx	lr
 c006b6e:	bf00      	nop
 c006b70:	50012c00 	.word	0x50012c00
 c006b74:	50000400 	.word	0x50000400
 c006b78:	50000800 	.word	0x50000800
 c006b7c:	50000c00 	.word	0x50000c00
 c006b80:	50013400 	.word	0x50013400
 c006b84:	50014000 	.word	0x50014000
 c006b88:	50014400 	.word	0x50014400
 c006b8c:	50014800 	.word	0x50014800

0c006b90 <TIM_TI1_ConfigInputStage>:
  * @param  TIM_ICFilter Specifies the Input Capture Filter.
  *          This parameter must be a value between 0x00 and 0x0F.
  * @retval None
  */
static void TIM_TI1_ConfigInputStage(TIM_TypeDef *TIMx, uint32_t TIM_ICPolarity, uint32_t TIM_ICFilter)
{
 c006b90:	b480      	push	{r7}
 c006b92:	b087      	sub	sp, #28
 c006b94:	af00      	add	r7, sp, #0
 c006b96:	60f8      	str	r0, [r7, #12]
 c006b98:	60b9      	str	r1, [r7, #8]
 c006b9a:	607a      	str	r2, [r7, #4]
  uint32_t tmpccmr1;
  uint32_t tmpccer;

  /* Disable the Channel 1: Reset the CC1E Bit */
  tmpccer = TIMx->CCER;
 c006b9c:	68fb      	ldr	r3, [r7, #12]
 c006b9e:	6a1b      	ldr	r3, [r3, #32]
 c006ba0:	617b      	str	r3, [r7, #20]
  TIMx->CCER &= ~TIM_CCER_CC1E;
 c006ba2:	68fb      	ldr	r3, [r7, #12]
 c006ba4:	6a1b      	ldr	r3, [r3, #32]
 c006ba6:	f023 0201 	bic.w	r2, r3, #1
 c006baa:	68fb      	ldr	r3, [r7, #12]
 c006bac:	621a      	str	r2, [r3, #32]
  tmpccmr1 = TIMx->CCMR1;
 c006bae:	68fb      	ldr	r3, [r7, #12]
 c006bb0:	699b      	ldr	r3, [r3, #24]
 c006bb2:	613b      	str	r3, [r7, #16]

  /* Set the filter */
  tmpccmr1 &= ~TIM_CCMR1_IC1F;
 c006bb4:	693b      	ldr	r3, [r7, #16]
 c006bb6:	f023 03f0 	bic.w	r3, r3, #240	; 0xf0
 c006bba:	613b      	str	r3, [r7, #16]
  tmpccmr1 |= (TIM_ICFilter << 4U);
 c006bbc:	687b      	ldr	r3, [r7, #4]
 c006bbe:	011b      	lsls	r3, r3, #4
 c006bc0:	693a      	ldr	r2, [r7, #16]
 c006bc2:	4313      	orrs	r3, r2
 c006bc4:	613b      	str	r3, [r7, #16]

  /* Select the Polarity and set the CC1E Bit */
  tmpccer &= ~(TIM_CCER_CC1P | TIM_CCER_CC1NP);
 c006bc6:	697b      	ldr	r3, [r7, #20]
 c006bc8:	f023 030a 	bic.w	r3, r3, #10
 c006bcc:	617b      	str	r3, [r7, #20]
  tmpccer |= TIM_ICPolarity;
 c006bce:	697a      	ldr	r2, [r7, #20]
 c006bd0:	68bb      	ldr	r3, [r7, #8]
 c006bd2:	4313      	orrs	r3, r2
 c006bd4:	617b      	str	r3, [r7, #20]

  /* Write to TIMx CCMR1 and CCER registers */
  TIMx->CCMR1 = tmpccmr1;
 c006bd6:	68fb      	ldr	r3, [r7, #12]
 c006bd8:	693a      	ldr	r2, [r7, #16]
 c006bda:	619a      	str	r2, [r3, #24]
  TIMx->CCER = tmpccer;
 c006bdc:	68fb      	ldr	r3, [r7, #12]
 c006bde:	697a      	ldr	r2, [r7, #20]
 c006be0:	621a      	str	r2, [r3, #32]
}
 c006be2:	bf00      	nop
 c006be4:	371c      	adds	r7, #28
 c006be6:	46bd      	mov	sp, r7
 c006be8:	f85d 7b04 	ldr.w	r7, [sp], #4
 c006bec:	4770      	bx	lr

0c006bee <TIM_TI2_ConfigInputStage>:
  * @param  TIM_ICFilter Specifies the Input Capture Filter.
  *          This parameter must be a value between 0x00 and 0x0F.
  * @retval None
  */
static void TIM_TI2_ConfigInputStage(TIM_TypeDef *TIMx, uint32_t TIM_ICPolarity, uint32_t TIM_ICFilter)
{
 c006bee:	b480      	push	{r7}
 c006bf0:	b087      	sub	sp, #28
 c006bf2:	af00      	add	r7, sp, #0
 c006bf4:	60f8      	str	r0, [r7, #12]
 c006bf6:	60b9      	str	r1, [r7, #8]
 c006bf8:	607a      	str	r2, [r7, #4]
  uint32_t tmpccmr1;
  uint32_t tmpccer;

  /* Disable the Channel 2: Reset the CC2E Bit */
  TIMx->CCER &= ~TIM_CCER_CC2E;
 c006bfa:	68fb      	ldr	r3, [r7, #12]
 c006bfc:	6a1b      	ldr	r3, [r3, #32]
 c006bfe:	f023 0210 	bic.w	r2, r3, #16
 c006c02:	68fb      	ldr	r3, [r7, #12]
 c006c04:	621a      	str	r2, [r3, #32]
  tmpccmr1 = TIMx->CCMR1;
 c006c06:	68fb      	ldr	r3, [r7, #12]
 c006c08:	699b      	ldr	r3, [r3, #24]
 c006c0a:	617b      	str	r3, [r7, #20]
  tmpccer = TIMx->CCER;
 c006c0c:	68fb      	ldr	r3, [r7, #12]
 c006c0e:	6a1b      	ldr	r3, [r3, #32]
 c006c10:	613b      	str	r3, [r7, #16]

  /* Set the filter */
  tmpccmr1 &= ~TIM_CCMR1_IC2F;
 c006c12:	697b      	ldr	r3, [r7, #20]
 c006c14:	f423 4370 	bic.w	r3, r3, #61440	; 0xf000
 c006c18:	617b      	str	r3, [r7, #20]
  tmpccmr1 |= (TIM_ICFilter << 12U);
 c006c1a:	687b      	ldr	r3, [r7, #4]
 c006c1c:	031b      	lsls	r3, r3, #12
 c006c1e:	697a      	ldr	r2, [r7, #20]
 c006c20:	4313      	orrs	r3, r2
 c006c22:	617b      	str	r3, [r7, #20]

  /* Select the Polarity and set the CC2E Bit */
  tmpccer &= ~(TIM_CCER_CC2P | TIM_CCER_CC2NP);
 c006c24:	693b      	ldr	r3, [r7, #16]
 c006c26:	f023 03a0 	bic.w	r3, r3, #160	; 0xa0
 c006c2a:	613b      	str	r3, [r7, #16]
  tmpccer |= (TIM_ICPolarity << 4U);
 c006c2c:	68bb      	ldr	r3, [r7, #8]
 c006c2e:	011b      	lsls	r3, r3, #4
 c006c30:	693a      	ldr	r2, [r7, #16]
 c006c32:	4313      	orrs	r3, r2
 c006c34:	613b      	str	r3, [r7, #16]

  /* Write to TIMx CCMR1 and CCER registers */
  TIMx->CCMR1 = tmpccmr1 ;
 c006c36:	68fb      	ldr	r3, [r7, #12]
 c006c38:	697a      	ldr	r2, [r7, #20]
 c006c3a:	619a      	str	r2, [r3, #24]
  TIMx->CCER = tmpccer;
 c006c3c:	68fb      	ldr	r3, [r7, #12]
 c006c3e:	693a      	ldr	r2, [r7, #16]
 c006c40:	621a      	str	r2, [r3, #32]
}
 c006c42:	bf00      	nop
 c006c44:	371c      	adds	r7, #28
 c006c46:	46bd      	mov	sp, r7
 c006c48:	f85d 7b04 	ldr.w	r7, [sp], #4
 c006c4c:	4770      	bx	lr

0c006c4e <TIM_ITRx_SetConfig>:
  *            @arg TIM_TS_TI2FP2: Filtered Timer Input 2
  *            @arg TIM_TS_ETRF: External Trigger input
  * @retval None
  */
static void TIM_ITRx_SetConfig(TIM_TypeDef *TIMx, uint32_t InputTriggerSource)
{
 c006c4e:	b480      	push	{r7}
 c006c50:	b085      	sub	sp, #20
 c006c52:	af00      	add	r7, sp, #0
 c006c54:	6078      	str	r0, [r7, #4]
 c006c56:	6039      	str	r1, [r7, #0]
  uint32_t tmpsmcr;

  /* Get the TIMx SMCR register value */
  tmpsmcr = TIMx->SMCR;
 c006c58:	687b      	ldr	r3, [r7, #4]
 c006c5a:	689b      	ldr	r3, [r3, #8]
 c006c5c:	60fb      	str	r3, [r7, #12]
  /* Reset the TS Bits */
  tmpsmcr &= ~TIM_SMCR_TS;
 c006c5e:	68fb      	ldr	r3, [r7, #12]
 c006c60:	f423 1340 	bic.w	r3, r3, #3145728	; 0x300000
 c006c64:	f023 0370 	bic.w	r3, r3, #112	; 0x70
 c006c68:	60fb      	str	r3, [r7, #12]
  /* Set the Input Trigger source and the slave mode*/
  tmpsmcr |= (InputTriggerSource | TIM_SLAVEMODE_EXTERNAL1);
 c006c6a:	683a      	ldr	r2, [r7, #0]
 c006c6c:	68fb      	ldr	r3, [r7, #12]
 c006c6e:	4313      	orrs	r3, r2
 c006c70:	f043 0307 	orr.w	r3, r3, #7
 c006c74:	60fb      	str	r3, [r7, #12]
  /* Write to TIMx SMCR */
  TIMx->SMCR = tmpsmcr;
 c006c76:	687b      	ldr	r3, [r7, #4]
 c006c78:	68fa      	ldr	r2, [r7, #12]
 c006c7a:	609a      	str	r2, [r3, #8]
}
 c006c7c:	bf00      	nop
 c006c7e:	3714      	adds	r7, #20
 c006c80:	46bd      	mov	sp, r7
 c006c82:	f85d 7b04 	ldr.w	r7, [sp], #4
 c006c86:	4770      	bx	lr

0c006c88 <TIM_ETR_SetConfig>:
  *          This parameter must be a value between 0x00 and 0x0F
  * @retval None
  */
void TIM_ETR_SetConfig(TIM_TypeDef *TIMx, uint32_t TIM_ExtTRGPrescaler,
                       uint32_t TIM_ExtTRGPolarity, uint32_t ExtTRGFilter)
{
 c006c88:	b480      	push	{r7}
 c006c8a:	b087      	sub	sp, #28
 c006c8c:	af00      	add	r7, sp, #0
 c006c8e:	60f8      	str	r0, [r7, #12]
 c006c90:	60b9      	str	r1, [r7, #8]
 c006c92:	607a      	str	r2, [r7, #4]
 c006c94:	603b      	str	r3, [r7, #0]
  uint32_t tmpsmcr;

  tmpsmcr = TIMx->SMCR;
 c006c96:	68fb      	ldr	r3, [r7, #12]
 c006c98:	689b      	ldr	r3, [r3, #8]
 c006c9a:	617b      	str	r3, [r7, #20]

  /* Reset the ETR Bits */
  tmpsmcr &= ~(TIM_SMCR_ETF | TIM_SMCR_ETPS | TIM_SMCR_ECE | TIM_SMCR_ETP);
 c006c9c:	697b      	ldr	r3, [r7, #20]
 c006c9e:	f423 437f 	bic.w	r3, r3, #65280	; 0xff00
 c006ca2:	617b      	str	r3, [r7, #20]

  /* Set the Prescaler, the Filter value and the Polarity */
  tmpsmcr |= (uint32_t)(TIM_ExtTRGPrescaler | (TIM_ExtTRGPolarity | (ExtTRGFilter << 8U)));
 c006ca4:	683b      	ldr	r3, [r7, #0]
 c006ca6:	021a      	lsls	r2, r3, #8
 c006ca8:	687b      	ldr	r3, [r7, #4]
 c006caa:	431a      	orrs	r2, r3
 c006cac:	68bb      	ldr	r3, [r7, #8]
 c006cae:	4313      	orrs	r3, r2
 c006cb0:	697a      	ldr	r2, [r7, #20]
 c006cb2:	4313      	orrs	r3, r2
 c006cb4:	617b      	str	r3, [r7, #20]

  /* Write to TIMx SMCR */
  TIMx->SMCR = tmpsmcr;
 c006cb6:	68fb      	ldr	r3, [r7, #12]
 c006cb8:	697a      	ldr	r2, [r7, #20]
 c006cba:	609a      	str	r2, [r3, #8]
}
 c006cbc:	bf00      	nop
 c006cbe:	371c      	adds	r7, #28
 c006cc0:	46bd      	mov	sp, r7
 c006cc2:	f85d 7b04 	ldr.w	r7, [sp], #4
 c006cc6:	4770      	bx	lr

0c006cc8 <HAL_TIMEx_MasterConfigSynchronization>:
  *         mode.
  * @retval HAL status
  */
HAL_StatusTypeDef HAL_TIMEx_MasterConfigSynchronization(TIM_HandleTypeDef *htim,
                                                        TIM_MasterConfigTypeDef *sMasterConfig)
{
 c006cc8:	b480      	push	{r7}
 c006cca:	b085      	sub	sp, #20
 c006ccc:	af00      	add	r7, sp, #0
 c006cce:	6078      	str	r0, [r7, #4]
 c006cd0:	6039      	str	r1, [r7, #0]
  assert_param(IS_TIM_MASTER_INSTANCE(htim->Instance));
  assert_param(IS_TIM_TRGO_SOURCE(sMasterConfig->MasterOutputTrigger));
  assert_param(IS_TIM_MSM_STATE(sMasterConfig->MasterSlaveMode));

  /* Check input state */
  __HAL_LOCK(htim);
 c006cd2:	687b      	ldr	r3, [r7, #4]
 c006cd4:	f893 303c 	ldrb.w	r3, [r3, #60]	; 0x3c
 c006cd8:	2b01      	cmp	r3, #1
 c006cda:	d101      	bne.n	c006ce0 <HAL_TIMEx_MasterConfigSynchronization+0x18>
 c006cdc:	2302      	movs	r3, #2
 c006cde:	e068      	b.n	c006db2 <HAL_TIMEx_MasterConfigSynchronization+0xea>
 c006ce0:	687b      	ldr	r3, [r7, #4]
 c006ce2:	2201      	movs	r2, #1
 c006ce4:	f883 203c 	strb.w	r2, [r3, #60]	; 0x3c

  /* Change the handler state */
  htim->State = HAL_TIM_STATE_BUSY;
 c006ce8:	687b      	ldr	r3, [r7, #4]
 c006cea:	2202      	movs	r2, #2
 c006cec:	f883 203d 	strb.w	r2, [r3, #61]	; 0x3d

  /* Get the TIMx CR2 register value */
  tmpcr2 = htim->Instance->CR2;
 c006cf0:	687b      	ldr	r3, [r7, #4]
 c006cf2:	681b      	ldr	r3, [r3, #0]
 c006cf4:	685b      	ldr	r3, [r3, #4]
 c006cf6:	60fb      	str	r3, [r7, #12]

  /* Get the TIMx SMCR register value */
  tmpsmcr = htim->Instance->SMCR;
 c006cf8:	687b      	ldr	r3, [r7, #4]
 c006cfa:	681b      	ldr	r3, [r3, #0]
 c006cfc:	689b      	ldr	r3, [r3, #8]
 c006cfe:	60bb      	str	r3, [r7, #8]

  /* If the timer supports ADC synchronization through TRGO2, set the master mode selection 2 */
  if (IS_TIM_TRGO2_INSTANCE(htim->Instance))
 c006d00:	687b      	ldr	r3, [r7, #4]
 c006d02:	681b      	ldr	r3, [r3, #0]
 c006d04:	4a2e      	ldr	r2, [pc, #184]	; (c006dc0 <HAL_TIMEx_MasterConfigSynchronization+0xf8>)
 c006d06:	4293      	cmp	r3, r2
 c006d08:	d004      	beq.n	c006d14 <HAL_TIMEx_MasterConfigSynchronization+0x4c>
 c006d0a:	687b      	ldr	r3, [r7, #4]
 c006d0c:	681b      	ldr	r3, [r3, #0]
 c006d0e:	4a2d      	ldr	r2, [pc, #180]	; (c006dc4 <HAL_TIMEx_MasterConfigSynchronization+0xfc>)
 c006d10:	4293      	cmp	r3, r2
 c006d12:	d108      	bne.n	c006d26 <HAL_TIMEx_MasterConfigSynchronization+0x5e>
  {
    /* Check the parameters */
    assert_param(IS_TIM_TRGO2_SOURCE(sMasterConfig->MasterOutputTrigger2));

    /* Clear the MMS2 bits */
    tmpcr2 &= ~TIM_CR2_MMS2;
 c006d14:	68fb      	ldr	r3, [r7, #12]
 c006d16:	f423 0370 	bic.w	r3, r3, #15728640	; 0xf00000
 c006d1a:	60fb      	str	r3, [r7, #12]
    /* Select the TRGO2 source*/
    tmpcr2 |= sMasterConfig->MasterOutputTrigger2;
 c006d1c:	683b      	ldr	r3, [r7, #0]
 c006d1e:	685b      	ldr	r3, [r3, #4]
 c006d20:	68fa      	ldr	r2, [r7, #12]
 c006d22:	4313      	orrs	r3, r2
 c006d24:	60fb      	str	r3, [r7, #12]
  }

  /* Reset the MMS Bits */
  tmpcr2 &= ~TIM_CR2_MMS;
 c006d26:	68fb      	ldr	r3, [r7, #12]
 c006d28:	f023 0370 	bic.w	r3, r3, #112	; 0x70
 c006d2c:	60fb      	str	r3, [r7, #12]
  /* Select the TRGO source */
  tmpcr2 |=  sMasterConfig->MasterOutputTrigger;
 c006d2e:	683b      	ldr	r3, [r7, #0]
 c006d30:	681b      	ldr	r3, [r3, #0]
 c006d32:	68fa      	ldr	r2, [r7, #12]
 c006d34:	4313      	orrs	r3, r2
 c006d36:	60fb      	str	r3, [r7, #12]

  /* Update TIMx CR2 */
  htim->Instance->CR2 = tmpcr2;
 c006d38:	687b      	ldr	r3, [r7, #4]
 c006d3a:	681b      	ldr	r3, [r3, #0]
 c006d3c:	68fa      	ldr	r2, [r7, #12]
 c006d3e:	605a      	str	r2, [r3, #4]

  if (IS_TIM_SLAVE_INSTANCE(htim->Instance))
 c006d40:	687b      	ldr	r3, [r7, #4]
 c006d42:	681b      	ldr	r3, [r3, #0]
 c006d44:	4a1e      	ldr	r2, [pc, #120]	; (c006dc0 <HAL_TIMEx_MasterConfigSynchronization+0xf8>)
 c006d46:	4293      	cmp	r3, r2
 c006d48:	d01d      	beq.n	c006d86 <HAL_TIMEx_MasterConfigSynchronization+0xbe>
 c006d4a:	687b      	ldr	r3, [r7, #4]
 c006d4c:	681b      	ldr	r3, [r3, #0]
 c006d4e:	f1b3 4fa0 	cmp.w	r3, #1342177280	; 0x50000000
 c006d52:	d018      	beq.n	c006d86 <HAL_TIMEx_MasterConfigSynchronization+0xbe>
 c006d54:	687b      	ldr	r3, [r7, #4]
 c006d56:	681b      	ldr	r3, [r3, #0]
 c006d58:	4a1b      	ldr	r2, [pc, #108]	; (c006dc8 <HAL_TIMEx_MasterConfigSynchronization+0x100>)
 c006d5a:	4293      	cmp	r3, r2
 c006d5c:	d013      	beq.n	c006d86 <HAL_TIMEx_MasterConfigSynchronization+0xbe>
 c006d5e:	687b      	ldr	r3, [r7, #4]
 c006d60:	681b      	ldr	r3, [r3, #0]
 c006d62:	4a1a      	ldr	r2, [pc, #104]	; (c006dcc <HAL_TIMEx_MasterConfigSynchronization+0x104>)
 c006d64:	4293      	cmp	r3, r2
 c006d66:	d00e      	beq.n	c006d86 <HAL_TIMEx_MasterConfigSynchronization+0xbe>
 c006d68:	687b      	ldr	r3, [r7, #4]
 c006d6a:	681b      	ldr	r3, [r3, #0]
 c006d6c:	4a18      	ldr	r2, [pc, #96]	; (c006dd0 <HAL_TIMEx_MasterConfigSynchronization+0x108>)
 c006d6e:	4293      	cmp	r3, r2
 c006d70:	d009      	beq.n	c006d86 <HAL_TIMEx_MasterConfigSynchronization+0xbe>
 c006d72:	687b      	ldr	r3, [r7, #4]
 c006d74:	681b      	ldr	r3, [r3, #0]
 c006d76:	4a13      	ldr	r2, [pc, #76]	; (c006dc4 <HAL_TIMEx_MasterConfigSynchronization+0xfc>)
 c006d78:	4293      	cmp	r3, r2
 c006d7a:	d004      	beq.n	c006d86 <HAL_TIMEx_MasterConfigSynchronization+0xbe>
 c006d7c:	687b      	ldr	r3, [r7, #4]
 c006d7e:	681b      	ldr	r3, [r3, #0]
 c006d80:	4a14      	ldr	r2, [pc, #80]	; (c006dd4 <HAL_TIMEx_MasterConfigSynchronization+0x10c>)
 c006d82:	4293      	cmp	r3, r2
 c006d84:	d10c      	bne.n	c006da0 <HAL_TIMEx_MasterConfigSynchronization+0xd8>
  {
    /* Reset the MSM Bit */
    tmpsmcr &= ~TIM_SMCR_MSM;
 c006d86:	68bb      	ldr	r3, [r7, #8]
 c006d88:	f023 0380 	bic.w	r3, r3, #128	; 0x80
 c006d8c:	60bb      	str	r3, [r7, #8]
    /* Set master mode */
    tmpsmcr |= sMasterConfig->MasterSlaveMode;
 c006d8e:	683b      	ldr	r3, [r7, #0]
 c006d90:	689b      	ldr	r3, [r3, #8]
 c006d92:	68ba      	ldr	r2, [r7, #8]
 c006d94:	4313      	orrs	r3, r2
 c006d96:	60bb      	str	r3, [r7, #8]

    /* Update TIMx SMCR */
    htim->Instance->SMCR = tmpsmcr;
 c006d98:	687b      	ldr	r3, [r7, #4]
 c006d9a:	681b      	ldr	r3, [r3, #0]
 c006d9c:	68ba      	ldr	r2, [r7, #8]
 c006d9e:	609a      	str	r2, [r3, #8]
  }

  /* Change the htim state */
  htim->State = HAL_TIM_STATE_READY;
 c006da0:	687b      	ldr	r3, [r7, #4]
 c006da2:	2201      	movs	r2, #1
 c006da4:	f883 203d 	strb.w	r2, [r3, #61]	; 0x3d

  __HAL_UNLOCK(htim);
 c006da8:	687b      	ldr	r3, [r7, #4]
 c006daa:	2200      	movs	r2, #0
 c006dac:	f883 203c 	strb.w	r2, [r3, #60]	; 0x3c

  return HAL_OK;
 c006db0:	2300      	movs	r3, #0
}
 c006db2:	4618      	mov	r0, r3
 c006db4:	3714      	adds	r7, #20
 c006db6:	46bd      	mov	sp, r7
 c006db8:	f85d 7b04 	ldr.w	r7, [sp], #4
 c006dbc:	4770      	bx	lr
 c006dbe:	bf00      	nop
 c006dc0:	50012c00 	.word	0x50012c00
 c006dc4:	50013400 	.word	0x50013400
 c006dc8:	50000400 	.word	0x50000400
 c006dcc:	50000800 	.word	0x50000800
 c006dd0:	50000c00 	.word	0x50000c00
 c006dd4:	50014000 	.word	0x50014000

0c006dd8 <HAL_TIMEx_CommutCallback>:
  * @brief  Hall commutation changed callback in non-blocking mode
  * @param  htim TIM handle
  * @retval None
  */
__weak void HAL_TIMEx_CommutCallback(TIM_HandleTypeDef *htim)
{
 c006dd8:	b480      	push	{r7}
 c006dda:	b083      	sub	sp, #12
 c006ddc:	af00      	add	r7, sp, #0
 c006dde:	6078      	str	r0, [r7, #4]
  UNUSED(htim);

  /* NOTE : This function should not be modified, when the callback is needed,
            the HAL_TIMEx_CommutCallback could be implemented in the user file
   */
}
 c006de0:	bf00      	nop
 c006de2:	370c      	adds	r7, #12
 c006de4:	46bd      	mov	sp, r7
 c006de6:	f85d 7b04 	ldr.w	r7, [sp], #4
 c006dea:	4770      	bx	lr

0c006dec <HAL_TIMEx_BreakCallback>:
  * @brief  Hall Break detection callback in non-blocking mode
  * @param  htim TIM handle
  * @retval None
  */
__weak void HAL_TIMEx_BreakCallback(TIM_HandleTypeDef *htim)
{
 c006dec:	b480      	push	{r7}
 c006dee:	b083      	sub	sp, #12
 c006df0:	af00      	add	r7, sp, #0
 c006df2:	6078      	str	r0, [r7, #4]
  UNUSED(htim);

  /* NOTE : This function should not be modified, when the callback is needed,
            the HAL_TIMEx_BreakCallback could be implemented in the user file
   */
}
 c006df4:	bf00      	nop
 c006df6:	370c      	adds	r7, #12
 c006df8:	46bd      	mov	sp, r7
 c006dfa:	f85d 7b04 	ldr.w	r7, [sp], #4
 c006dfe:	4770      	bx	lr

0c006e00 <HAL_TIMEx_Break2Callback>:
  * @brief  Hall Break2 detection callback in non blocking mode
  * @param  htim: TIM handle
  * @retval None
  */
__weak void HAL_TIMEx_Break2Callback(TIM_HandleTypeDef *htim)
{
 c006e00:	b480      	push	{r7}
 c006e02:	b083      	sub	sp, #12
 c006e04:	af00      	add	r7, sp, #0
 c006e06:	6078      	str	r0, [r7, #4]
  UNUSED(htim);

  /* NOTE : This function Should not be modified, when the callback is needed,
            the HAL_TIMEx_Break2Callback could be implemented in the user file
   */
}
 c006e08:	bf00      	nop
 c006e0a:	370c      	adds	r7, #12
 c006e0c:	46bd      	mov	sp, r7
 c006e0e:	f85d 7b04 	ldr.w	r7, [sp], #4
 c006e12:	4770      	bx	lr

0c006e14 <HAL_UART_Init>:
  *        parameters in the UART_InitTypeDef and initialize the associated handle.
  * @param huart UART handle.
  * @retval HAL status
  */
HAL_StatusTypeDef HAL_UART_Init(UART_HandleTypeDef *huart)
{
 c006e14:	b580      	push	{r7, lr}
 c006e16:	b082      	sub	sp, #8
 c006e18:	af00      	add	r7, sp, #0
 c006e1a:	6078      	str	r0, [r7, #4]
  /* Check the UART handle allocation */
  if (huart == NULL)
 c006e1c:	687b      	ldr	r3, [r7, #4]
 c006e1e:	2b00      	cmp	r3, #0
 c006e20:	d101      	bne.n	c006e26 <HAL_UART_Init+0x12>
  {
    return HAL_ERROR;
 c006e22:	2301      	movs	r3, #1
 c006e24:	e042      	b.n	c006eac <HAL_UART_Init+0x98>
  {
    /* Check the parameters */
    assert_param((IS_UART_INSTANCE(huart->Instance)) || (IS_LPUART_INSTANCE(huart->Instance)));
  }

  if (huart->gState == HAL_UART_STATE_RESET)
 c006e26:	687b      	ldr	r3, [r7, #4]
 c006e28:	f8d3 3084 	ldr.w	r3, [r3, #132]	; 0x84
 c006e2c:	2b00      	cmp	r3, #0
 c006e2e:	d106      	bne.n	c006e3e <HAL_UART_Init+0x2a>
  {
    /* Allocate lock resource and initialize it */
    huart->Lock = HAL_UNLOCKED;
 c006e30:	687b      	ldr	r3, [r7, #4]
 c006e32:	2200      	movs	r2, #0
 c006e34:	f883 2080 	strb.w	r2, [r3, #128]	; 0x80

    /* Init the low level hardware */
    huart->MspInitCallback(huart);
#else
    /* Init the low level hardware : GPIO, CLOCK */
    HAL_UART_MspInit(huart);
 c006e38:	6878      	ldr	r0, [r7, #4]
 c006e3a:	f7fc fe33 	bl	c003aa4 <HAL_UART_MspInit>
#endif /* (USE_HAL_UART_REGISTER_CALLBACKS) */
  }

  huart->gState = HAL_UART_STATE_BUSY;
 c006e3e:	687b      	ldr	r3, [r7, #4]
 c006e40:	2224      	movs	r2, #36	; 0x24
 c006e42:	f8c3 2084 	str.w	r2, [r3, #132]	; 0x84

  __HAL_UART_DISABLE(huart);
 c006e46:	687b      	ldr	r3, [r7, #4]
 c006e48:	681b      	ldr	r3, [r3, #0]
 c006e4a:	681a      	ldr	r2, [r3, #0]
 c006e4c:	687b      	ldr	r3, [r7, #4]
 c006e4e:	681b      	ldr	r3, [r3, #0]
 c006e50:	f022 0201 	bic.w	r2, r2, #1
 c006e54:	601a      	str	r2, [r3, #0]

  /* Set the UART Communication parameters */
  if (UART_SetConfig(huart) == HAL_ERROR)
 c006e56:	6878      	ldr	r0, [r7, #4]
 c006e58:	f000 f996 	bl	c007188 <UART_SetConfig>
 c006e5c:	4603      	mov	r3, r0
 c006e5e:	2b01      	cmp	r3, #1
 c006e60:	d101      	bne.n	c006e66 <HAL_UART_Init+0x52>
  {
    return HAL_ERROR;
 c006e62:	2301      	movs	r3, #1
 c006e64:	e022      	b.n	c006eac <HAL_UART_Init+0x98>
  }

  if (huart->AdvancedInit.AdvFeatureInit != UART_ADVFEATURE_NO_INIT)
 c006e66:	687b      	ldr	r3, [r7, #4]
 c006e68:	6a9b      	ldr	r3, [r3, #40]	; 0x28
 c006e6a:	2b00      	cmp	r3, #0
 c006e6c:	d002      	beq.n	c006e74 <HAL_UART_Init+0x60>
  {
    UART_AdvFeatureConfig(huart);
 c006e6e:	6878      	ldr	r0, [r7, #4]
 c006e70:	f000 fc88 	bl	c007784 <UART_AdvFeatureConfig>
  }

  /* In asynchronous mode, the following bits must be kept cleared:
  - LINEN and CLKEN bits in the USART_CR2 register,
  - SCEN, HDSEL and IREN  bits in the USART_CR3 register.*/
  CLEAR_BIT(huart->Instance->CR2, (USART_CR2_LINEN | USART_CR2_CLKEN));
 c006e74:	687b      	ldr	r3, [r7, #4]
 c006e76:	681b      	ldr	r3, [r3, #0]
 c006e78:	685a      	ldr	r2, [r3, #4]
 c006e7a:	687b      	ldr	r3, [r7, #4]
 c006e7c:	681b      	ldr	r3, [r3, #0]
 c006e7e:	f422 4290 	bic.w	r2, r2, #18432	; 0x4800
 c006e82:	605a      	str	r2, [r3, #4]
  CLEAR_BIT(huart->Instance->CR3, (USART_CR3_SCEN | USART_CR3_HDSEL | USART_CR3_IREN));
 c006e84:	687b      	ldr	r3, [r7, #4]
 c006e86:	681b      	ldr	r3, [r3, #0]
 c006e88:	689a      	ldr	r2, [r3, #8]
 c006e8a:	687b      	ldr	r3, [r7, #4]
 c006e8c:	681b      	ldr	r3, [r3, #0]
 c006e8e:	f022 022a 	bic.w	r2, r2, #42	; 0x2a
 c006e92:	609a      	str	r2, [r3, #8]

  __HAL_UART_ENABLE(huart);
 c006e94:	687b      	ldr	r3, [r7, #4]
 c006e96:	681b      	ldr	r3, [r3, #0]
 c006e98:	681a      	ldr	r2, [r3, #0]
 c006e9a:	687b      	ldr	r3, [r7, #4]
 c006e9c:	681b      	ldr	r3, [r3, #0]
 c006e9e:	f042 0201 	orr.w	r2, r2, #1
 c006ea2:	601a      	str	r2, [r3, #0]

  /* TEACK and/or REACK to check before moving huart->gState and huart->RxState to Ready */
  return (UART_CheckIdleState(huart));
 c006ea4:	6878      	ldr	r0, [r7, #4]
 c006ea6:	f000 fd0f 	bl	c0078c8 <UART_CheckIdleState>
 c006eaa:	4603      	mov	r3, r0
}
 c006eac:	4618      	mov	r0, r3
 c006eae:	3708      	adds	r7, #8
 c006eb0:	46bd      	mov	sp, r7
 c006eb2:	bd80      	pop	{r7, pc}

0c006eb4 <HAL_UART_Transmit>:
  * @param Size    Amount of data elements (u8 or u16) to be sent.
  * @param Timeout Timeout duration.
  * @retval HAL status
  */
HAL_StatusTypeDef HAL_UART_Transmit(UART_HandleTypeDef *huart, uint8_t *pData, uint16_t Size, uint32_t Timeout)
{
 c006eb4:	b580      	push	{r7, lr}
 c006eb6:	b08a      	sub	sp, #40	; 0x28
 c006eb8:	af02      	add	r7, sp, #8
 c006eba:	60f8      	str	r0, [r7, #12]
 c006ebc:	60b9      	str	r1, [r7, #8]
 c006ebe:	603b      	str	r3, [r7, #0]
 c006ec0:	4613      	mov	r3, r2
 c006ec2:	80fb      	strh	r3, [r7, #6]
  uint8_t  *pdata8bits;
  uint16_t *pdata16bits;
  uint32_t tickstart;

  /* Check that a Tx process is not already ongoing */
  if (huart->gState == HAL_UART_STATE_READY)
 c006ec4:	68fb      	ldr	r3, [r7, #12]
 c006ec6:	f8d3 3084 	ldr.w	r3, [r3, #132]	; 0x84
 c006eca:	2b20      	cmp	r3, #32
 c006ecc:	f040 8083 	bne.w	c006fd6 <HAL_UART_Transmit+0x122>
  {
    if ((pData == NULL) || (Size == 0U))
 c006ed0:	68bb      	ldr	r3, [r7, #8]
 c006ed2:	2b00      	cmp	r3, #0
 c006ed4:	d002      	beq.n	c006edc <HAL_UART_Transmit+0x28>
 c006ed6:	88fb      	ldrh	r3, [r7, #6]
 c006ed8:	2b00      	cmp	r3, #0
 c006eda:	d101      	bne.n	c006ee0 <HAL_UART_Transmit+0x2c>
    {
      return  HAL_ERROR;
 c006edc:	2301      	movs	r3, #1
 c006ede:	e07b      	b.n	c006fd8 <HAL_UART_Transmit+0x124>
    }

    __HAL_LOCK(huart);
 c006ee0:	68fb      	ldr	r3, [r7, #12]
 c006ee2:	f893 3080 	ldrb.w	r3, [r3, #128]	; 0x80
 c006ee6:	2b01      	cmp	r3, #1
 c006ee8:	d101      	bne.n	c006eee <HAL_UART_Transmit+0x3a>
 c006eea:	2302      	movs	r3, #2
 c006eec:	e074      	b.n	c006fd8 <HAL_UART_Transmit+0x124>
 c006eee:	68fb      	ldr	r3, [r7, #12]
 c006ef0:	2201      	movs	r2, #1
 c006ef2:	f883 2080 	strb.w	r2, [r3, #128]	; 0x80

    huart->ErrorCode = HAL_UART_ERROR_NONE;
 c006ef6:	68fb      	ldr	r3, [r7, #12]
 c006ef8:	2200      	movs	r2, #0
 c006efa:	f8c3 208c 	str.w	r2, [r3, #140]	; 0x8c
    huart->gState = HAL_UART_STATE_BUSY_TX;
 c006efe:	68fb      	ldr	r3, [r7, #12]
 c006f00:	2221      	movs	r2, #33	; 0x21
 c006f02:	f8c3 2084 	str.w	r2, [r3, #132]	; 0x84

    /* Init tickstart for timeout management */
    tickstart = HAL_GetTick();
 c006f06:	f7fc fee9 	bl	c003cdc <HAL_GetTick>
 c006f0a:	6178      	str	r0, [r7, #20]

    huart->TxXferSize  = Size;
 c006f0c:	68fb      	ldr	r3, [r7, #12]
 c006f0e:	88fa      	ldrh	r2, [r7, #6]
 c006f10:	f8a3 2054 	strh.w	r2, [r3, #84]	; 0x54
    huart->TxXferCount = Size;
 c006f14:	68fb      	ldr	r3, [r7, #12]
 c006f16:	88fa      	ldrh	r2, [r7, #6]
 c006f18:	f8a3 2056 	strh.w	r2, [r3, #86]	; 0x56

    /* In case of 9bits/No Parity transfer, pData needs to be handled as a uint16_t pointer */
    if ((huart->Init.WordLength == UART_WORDLENGTH_9B) && (huart->Init.Parity == UART_PARITY_NONE))
 c006f1c:	68fb      	ldr	r3, [r7, #12]
 c006f1e:	689b      	ldr	r3, [r3, #8]
 c006f20:	f5b3 5f80 	cmp.w	r3, #4096	; 0x1000
 c006f24:	d108      	bne.n	c006f38 <HAL_UART_Transmit+0x84>
 c006f26:	68fb      	ldr	r3, [r7, #12]
 c006f28:	691b      	ldr	r3, [r3, #16]
 c006f2a:	2b00      	cmp	r3, #0
 c006f2c:	d104      	bne.n	c006f38 <HAL_UART_Transmit+0x84>
    {
      pdata8bits  = NULL;
 c006f2e:	2300      	movs	r3, #0
 c006f30:	61fb      	str	r3, [r7, #28]
      pdata16bits = (uint16_t *) pData;
 c006f32:	68bb      	ldr	r3, [r7, #8]
 c006f34:	61bb      	str	r3, [r7, #24]
 c006f36:	e003      	b.n	c006f40 <HAL_UART_Transmit+0x8c>
    }
    else
    {
      pdata8bits  = pData;
 c006f38:	68bb      	ldr	r3, [r7, #8]
 c006f3a:	61fb      	str	r3, [r7, #28]
      pdata16bits = NULL;
 c006f3c:	2300      	movs	r3, #0
 c006f3e:	61bb      	str	r3, [r7, #24]
    }

    __HAL_UNLOCK(huart);
 c006f40:	68fb      	ldr	r3, [r7, #12]
 c006f42:	2200      	movs	r2, #0
 c006f44:	f883 2080 	strb.w	r2, [r3, #128]	; 0x80

    while (huart->TxXferCount > 0U)
 c006f48:	e02c      	b.n	c006fa4 <HAL_UART_Transmit+0xf0>
    {
      if (UART_WaitOnFlagUntilTimeout(huart, UART_FLAG_TXE, RESET, tickstart, Timeout) != HAL_OK)
 c006f4a:	683b      	ldr	r3, [r7, #0]
 c006f4c:	9300      	str	r3, [sp, #0]
 c006f4e:	697b      	ldr	r3, [r7, #20]
 c006f50:	2200      	movs	r2, #0
 c006f52:	2180      	movs	r1, #128	; 0x80
 c006f54:	68f8      	ldr	r0, [r7, #12]
 c006f56:	f000 fd02 	bl	c00795e <UART_WaitOnFlagUntilTimeout>
 c006f5a:	4603      	mov	r3, r0
 c006f5c:	2b00      	cmp	r3, #0
 c006f5e:	d001      	beq.n	c006f64 <HAL_UART_Transmit+0xb0>
      {
        return HAL_TIMEOUT;
 c006f60:	2303      	movs	r3, #3
 c006f62:	e039      	b.n	c006fd8 <HAL_UART_Transmit+0x124>
      }
      if (pdata8bits == NULL)
 c006f64:	69fb      	ldr	r3, [r7, #28]
 c006f66:	2b00      	cmp	r3, #0
 c006f68:	d10b      	bne.n	c006f82 <HAL_UART_Transmit+0xce>
      {
        huart->Instance->TDR = (uint16_t)(*pdata16bits & 0x01FFU);
 c006f6a:	69bb      	ldr	r3, [r7, #24]
 c006f6c:	881b      	ldrh	r3, [r3, #0]
 c006f6e:	461a      	mov	r2, r3
 c006f70:	68fb      	ldr	r3, [r7, #12]
 c006f72:	681b      	ldr	r3, [r3, #0]
 c006f74:	f3c2 0208 	ubfx	r2, r2, #0, #9
 c006f78:	629a      	str	r2, [r3, #40]	; 0x28
        pdata16bits++;
 c006f7a:	69bb      	ldr	r3, [r7, #24]
 c006f7c:	3302      	adds	r3, #2
 c006f7e:	61bb      	str	r3, [r7, #24]
 c006f80:	e007      	b.n	c006f92 <HAL_UART_Transmit+0xde>
      }
      else
      {
        huart->Instance->TDR = (uint8_t)(*pdata8bits & 0xFFU);
 c006f82:	69fb      	ldr	r3, [r7, #28]
 c006f84:	781a      	ldrb	r2, [r3, #0]
 c006f86:	68fb      	ldr	r3, [r7, #12]
 c006f88:	681b      	ldr	r3, [r3, #0]
 c006f8a:	629a      	str	r2, [r3, #40]	; 0x28
        pdata8bits++;
 c006f8c:	69fb      	ldr	r3, [r7, #28]
 c006f8e:	3301      	adds	r3, #1
 c006f90:	61fb      	str	r3, [r7, #28]
      }
      huart->TxXferCount--;
 c006f92:	68fb      	ldr	r3, [r7, #12]
 c006f94:	f8b3 3056 	ldrh.w	r3, [r3, #86]	; 0x56
 c006f98:	b29b      	uxth	r3, r3
 c006f9a:	3b01      	subs	r3, #1
 c006f9c:	b29a      	uxth	r2, r3
 c006f9e:	68fb      	ldr	r3, [r7, #12]
 c006fa0:	f8a3 2056 	strh.w	r2, [r3, #86]	; 0x56
    while (huart->TxXferCount > 0U)
 c006fa4:	68fb      	ldr	r3, [r7, #12]
 c006fa6:	f8b3 3056 	ldrh.w	r3, [r3, #86]	; 0x56
 c006faa:	b29b      	uxth	r3, r3
 c006fac:	2b00      	cmp	r3, #0
 c006fae:	d1cc      	bne.n	c006f4a <HAL_UART_Transmit+0x96>
    }

    if (UART_WaitOnFlagUntilTimeout(huart, UART_FLAG_TC, RESET, tickstart, Timeout) != HAL_OK)
 c006fb0:	683b      	ldr	r3, [r7, #0]
 c006fb2:	9300      	str	r3, [sp, #0]
 c006fb4:	697b      	ldr	r3, [r7, #20]
 c006fb6:	2200      	movs	r2, #0
 c006fb8:	2140      	movs	r1, #64	; 0x40
 c006fba:	68f8      	ldr	r0, [r7, #12]
 c006fbc:	f000 fccf 	bl	c00795e <UART_WaitOnFlagUntilTimeout>
 c006fc0:	4603      	mov	r3, r0
 c006fc2:	2b00      	cmp	r3, #0
 c006fc4:	d001      	beq.n	c006fca <HAL_UART_Transmit+0x116>
    {
      return HAL_TIMEOUT;
 c006fc6:	2303      	movs	r3, #3
 c006fc8:	e006      	b.n	c006fd8 <HAL_UART_Transmit+0x124>
    }

    /* At end of Tx process, restore huart->gState to Ready */
    huart->gState = HAL_UART_STATE_READY;
 c006fca:	68fb      	ldr	r3, [r7, #12]
 c006fcc:	2220      	movs	r2, #32
 c006fce:	f8c3 2084 	str.w	r2, [r3, #132]	; 0x84

    return HAL_OK;
 c006fd2:	2300      	movs	r3, #0
 c006fd4:	e000      	b.n	c006fd8 <HAL_UART_Transmit+0x124>
  }
  else
  {
    return HAL_BUSY;
 c006fd6:	2302      	movs	r3, #2
  }
}
 c006fd8:	4618      	mov	r0, r3
 c006fda:	3720      	adds	r7, #32
 c006fdc:	46bd      	mov	sp, r7
 c006fde:	bd80      	pop	{r7, pc}

0c006fe0 <HAL_UART_Receive>:
  * @param Size    Amount of data elements (u8 or u16) to be received.
  * @param Timeout Timeout duration.
  * @retval HAL status
  */
HAL_StatusTypeDef HAL_UART_Receive(UART_HandleTypeDef *huart, uint8_t *pData, uint16_t Size, uint32_t Timeout)
{
 c006fe0:	b580      	push	{r7, lr}
 c006fe2:	b08a      	sub	sp, #40	; 0x28
 c006fe4:	af02      	add	r7, sp, #8
 c006fe6:	60f8      	str	r0, [r7, #12]
 c006fe8:	60b9      	str	r1, [r7, #8]
 c006fea:	603b      	str	r3, [r7, #0]
 c006fec:	4613      	mov	r3, r2
 c006fee:	80fb      	strh	r3, [r7, #6]
  uint16_t *pdata16bits;
  uint16_t uhMask;
  uint32_t tickstart;

  /* Check that a Rx process is not already ongoing */
  if (huart->RxState == HAL_UART_STATE_READY)
 c006ff0:	68fb      	ldr	r3, [r7, #12]
 c006ff2:	f8d3 3088 	ldr.w	r3, [r3, #136]	; 0x88
 c006ff6:	2b20      	cmp	r3, #32
 c006ff8:	f040 80c0 	bne.w	c00717c <HAL_UART_Receive+0x19c>
  {
    if ((pData == NULL) || (Size == 0U))
 c006ffc:	68bb      	ldr	r3, [r7, #8]
 c006ffe:	2b00      	cmp	r3, #0
 c007000:	d002      	beq.n	c007008 <HAL_UART_Receive+0x28>
 c007002:	88fb      	ldrh	r3, [r7, #6]
 c007004:	2b00      	cmp	r3, #0
 c007006:	d101      	bne.n	c00700c <HAL_UART_Receive+0x2c>
    {
      return  HAL_ERROR;
 c007008:	2301      	movs	r3, #1
 c00700a:	e0b8      	b.n	c00717e <HAL_UART_Receive+0x19e>
    }

    __HAL_LOCK(huart);
 c00700c:	68fb      	ldr	r3, [r7, #12]
 c00700e:	f893 3080 	ldrb.w	r3, [r3, #128]	; 0x80
 c007012:	2b01      	cmp	r3, #1
 c007014:	d101      	bne.n	c00701a <HAL_UART_Receive+0x3a>
 c007016:	2302      	movs	r3, #2
 c007018:	e0b1      	b.n	c00717e <HAL_UART_Receive+0x19e>
 c00701a:	68fb      	ldr	r3, [r7, #12]
 c00701c:	2201      	movs	r2, #1
 c00701e:	f883 2080 	strb.w	r2, [r3, #128]	; 0x80

    huart->ErrorCode = HAL_UART_ERROR_NONE;
 c007022:	68fb      	ldr	r3, [r7, #12]
 c007024:	2200      	movs	r2, #0
 c007026:	f8c3 208c 	str.w	r2, [r3, #140]	; 0x8c
    huart->RxState = HAL_UART_STATE_BUSY_RX;
 c00702a:	68fb      	ldr	r3, [r7, #12]
 c00702c:	2222      	movs	r2, #34	; 0x22
 c00702e:	f8c3 2088 	str.w	r2, [r3, #136]	; 0x88
    huart->ReceptionType = HAL_UART_RECEPTION_STANDARD;
 c007032:	68fb      	ldr	r3, [r7, #12]
 c007034:	2200      	movs	r2, #0
 c007036:	66da      	str	r2, [r3, #108]	; 0x6c

    /* Init tickstart for timeout management */
    tickstart = HAL_GetTick();
 c007038:	f7fc fe50 	bl	c003cdc <HAL_GetTick>
 c00703c:	6178      	str	r0, [r7, #20]

    huart->RxXferSize  = Size;
 c00703e:	68fb      	ldr	r3, [r7, #12]
 c007040:	88fa      	ldrh	r2, [r7, #6]
 c007042:	f8a3 205c 	strh.w	r2, [r3, #92]	; 0x5c
    huart->RxXferCount = Size;
 c007046:	68fb      	ldr	r3, [r7, #12]
 c007048:	88fa      	ldrh	r2, [r7, #6]
 c00704a:	f8a3 205e 	strh.w	r2, [r3, #94]	; 0x5e

    /* Computation of UART mask to apply to RDR register */
    UART_MASK_COMPUTATION(huart);
 c00704e:	68fb      	ldr	r3, [r7, #12]
 c007050:	689b      	ldr	r3, [r3, #8]
 c007052:	f5b3 5f80 	cmp.w	r3, #4096	; 0x1000
 c007056:	d10e      	bne.n	c007076 <HAL_UART_Receive+0x96>
 c007058:	68fb      	ldr	r3, [r7, #12]
 c00705a:	691b      	ldr	r3, [r3, #16]
 c00705c:	2b00      	cmp	r3, #0
 c00705e:	d105      	bne.n	c00706c <HAL_UART_Receive+0x8c>
 c007060:	68fb      	ldr	r3, [r7, #12]
 c007062:	f240 12ff 	movw	r2, #511	; 0x1ff
 c007066:	f8a3 2060 	strh.w	r2, [r3, #96]	; 0x60
 c00706a:	e02d      	b.n	c0070c8 <HAL_UART_Receive+0xe8>
 c00706c:	68fb      	ldr	r3, [r7, #12]
 c00706e:	22ff      	movs	r2, #255	; 0xff
 c007070:	f8a3 2060 	strh.w	r2, [r3, #96]	; 0x60
 c007074:	e028      	b.n	c0070c8 <HAL_UART_Receive+0xe8>
 c007076:	68fb      	ldr	r3, [r7, #12]
 c007078:	689b      	ldr	r3, [r3, #8]
 c00707a:	2b00      	cmp	r3, #0
 c00707c:	d10d      	bne.n	c00709a <HAL_UART_Receive+0xba>
 c00707e:	68fb      	ldr	r3, [r7, #12]
 c007080:	691b      	ldr	r3, [r3, #16]
 c007082:	2b00      	cmp	r3, #0
 c007084:	d104      	bne.n	c007090 <HAL_UART_Receive+0xb0>
 c007086:	68fb      	ldr	r3, [r7, #12]
 c007088:	22ff      	movs	r2, #255	; 0xff
 c00708a:	f8a3 2060 	strh.w	r2, [r3, #96]	; 0x60
 c00708e:	e01b      	b.n	c0070c8 <HAL_UART_Receive+0xe8>
 c007090:	68fb      	ldr	r3, [r7, #12]
 c007092:	227f      	movs	r2, #127	; 0x7f
 c007094:	f8a3 2060 	strh.w	r2, [r3, #96]	; 0x60
 c007098:	e016      	b.n	c0070c8 <HAL_UART_Receive+0xe8>
 c00709a:	68fb      	ldr	r3, [r7, #12]
 c00709c:	689b      	ldr	r3, [r3, #8]
 c00709e:	f1b3 5f80 	cmp.w	r3, #268435456	; 0x10000000
 c0070a2:	d10d      	bne.n	c0070c0 <HAL_UART_Receive+0xe0>
 c0070a4:	68fb      	ldr	r3, [r7, #12]
 c0070a6:	691b      	ldr	r3, [r3, #16]
 c0070a8:	2b00      	cmp	r3, #0
 c0070aa:	d104      	bne.n	c0070b6 <HAL_UART_Receive+0xd6>
 c0070ac:	68fb      	ldr	r3, [r7, #12]
 c0070ae:	227f      	movs	r2, #127	; 0x7f
 c0070b0:	f8a3 2060 	strh.w	r2, [r3, #96]	; 0x60
 c0070b4:	e008      	b.n	c0070c8 <HAL_UART_Receive+0xe8>
 c0070b6:	68fb      	ldr	r3, [r7, #12]
 c0070b8:	223f      	movs	r2, #63	; 0x3f
 c0070ba:	f8a3 2060 	strh.w	r2, [r3, #96]	; 0x60
 c0070be:	e003      	b.n	c0070c8 <HAL_UART_Receive+0xe8>
 c0070c0:	68fb      	ldr	r3, [r7, #12]
 c0070c2:	2200      	movs	r2, #0
 c0070c4:	f8a3 2060 	strh.w	r2, [r3, #96]	; 0x60
    uhMask = huart->Mask;
 c0070c8:	68fb      	ldr	r3, [r7, #12]
 c0070ca:	f8b3 3060 	ldrh.w	r3, [r3, #96]	; 0x60
 c0070ce:	827b      	strh	r3, [r7, #18]

    /* In case of 9bits/No Parity transfer, pRxData needs to be handled as a uint16_t pointer */
    if ((huart->Init.WordLength == UART_WORDLENGTH_9B) && (huart->Init.Parity == UART_PARITY_NONE))
 c0070d0:	68fb      	ldr	r3, [r7, #12]
 c0070d2:	689b      	ldr	r3, [r3, #8]
 c0070d4:	f5b3 5f80 	cmp.w	r3, #4096	; 0x1000
 c0070d8:	d108      	bne.n	c0070ec <HAL_UART_Receive+0x10c>
 c0070da:	68fb      	ldr	r3, [r7, #12]
 c0070dc:	691b      	ldr	r3, [r3, #16]
 c0070de:	2b00      	cmp	r3, #0
 c0070e0:	d104      	bne.n	c0070ec <HAL_UART_Receive+0x10c>
    {
      pdata8bits  = NULL;
 c0070e2:	2300      	movs	r3, #0
 c0070e4:	61fb      	str	r3, [r7, #28]
      pdata16bits = (uint16_t *) pData;
 c0070e6:	68bb      	ldr	r3, [r7, #8]
 c0070e8:	61bb      	str	r3, [r7, #24]
 c0070ea:	e003      	b.n	c0070f4 <HAL_UART_Receive+0x114>
    }
    else
    {
      pdata8bits  = pData;
 c0070ec:	68bb      	ldr	r3, [r7, #8]
 c0070ee:	61fb      	str	r3, [r7, #28]
      pdata16bits = NULL;
 c0070f0:	2300      	movs	r3, #0
 c0070f2:	61bb      	str	r3, [r7, #24]
    }

    __HAL_UNLOCK(huart);
 c0070f4:	68fb      	ldr	r3, [r7, #12]
 c0070f6:	2200      	movs	r2, #0
 c0070f8:	f883 2080 	strb.w	r2, [r3, #128]	; 0x80

    /* as long as data have to be received */
    while (huart->RxXferCount > 0U)
 c0070fc:	e032      	b.n	c007164 <HAL_UART_Receive+0x184>
    {
      if (UART_WaitOnFlagUntilTimeout(huart, UART_FLAG_RXNE, RESET, tickstart, Timeout) != HAL_OK)
 c0070fe:	683b      	ldr	r3, [r7, #0]
 c007100:	9300      	str	r3, [sp, #0]
 c007102:	697b      	ldr	r3, [r7, #20]
 c007104:	2200      	movs	r2, #0
 c007106:	2120      	movs	r1, #32
 c007108:	68f8      	ldr	r0, [r7, #12]
 c00710a:	f000 fc28 	bl	c00795e <UART_WaitOnFlagUntilTimeout>
 c00710e:	4603      	mov	r3, r0
 c007110:	2b00      	cmp	r3, #0
 c007112:	d001      	beq.n	c007118 <HAL_UART_Receive+0x138>
      {
        return HAL_TIMEOUT;
 c007114:	2303      	movs	r3, #3
 c007116:	e032      	b.n	c00717e <HAL_UART_Receive+0x19e>
      }
      if (pdata8bits == NULL)
 c007118:	69fb      	ldr	r3, [r7, #28]
 c00711a:	2b00      	cmp	r3, #0
 c00711c:	d10c      	bne.n	c007138 <HAL_UART_Receive+0x158>
      {
        *pdata16bits = (uint16_t)(huart->Instance->RDR & uhMask);
 c00711e:	68fb      	ldr	r3, [r7, #12]
 c007120:	681b      	ldr	r3, [r3, #0]
 c007122:	6a5b      	ldr	r3, [r3, #36]	; 0x24
 c007124:	b29a      	uxth	r2, r3
 c007126:	8a7b      	ldrh	r3, [r7, #18]
 c007128:	4013      	ands	r3, r2
 c00712a:	b29a      	uxth	r2, r3
 c00712c:	69bb      	ldr	r3, [r7, #24]
 c00712e:	801a      	strh	r2, [r3, #0]
        pdata16bits++;
 c007130:	69bb      	ldr	r3, [r7, #24]
 c007132:	3302      	adds	r3, #2
 c007134:	61bb      	str	r3, [r7, #24]
 c007136:	e00c      	b.n	c007152 <HAL_UART_Receive+0x172>
      }
      else
      {
        *pdata8bits = (uint8_t)(huart->Instance->RDR & (uint8_t)uhMask);
 c007138:	68fb      	ldr	r3, [r7, #12]
 c00713a:	681b      	ldr	r3, [r3, #0]
 c00713c:	6a5b      	ldr	r3, [r3, #36]	; 0x24
 c00713e:	b2da      	uxtb	r2, r3
 c007140:	8a7b      	ldrh	r3, [r7, #18]
 c007142:	b2db      	uxtb	r3, r3
 c007144:	4013      	ands	r3, r2
 c007146:	b2da      	uxtb	r2, r3
 c007148:	69fb      	ldr	r3, [r7, #28]
 c00714a:	701a      	strb	r2, [r3, #0]
        pdata8bits++;
 c00714c:	69fb      	ldr	r3, [r7, #28]
 c00714e:	3301      	adds	r3, #1
 c007150:	61fb      	str	r3, [r7, #28]
      }
      huart->RxXferCount--;
 c007152:	68fb      	ldr	r3, [r7, #12]
 c007154:	f8b3 305e 	ldrh.w	r3, [r3, #94]	; 0x5e
 c007158:	b29b      	uxth	r3, r3
 c00715a:	3b01      	subs	r3, #1
 c00715c:	b29a      	uxth	r2, r3
 c00715e:	68fb      	ldr	r3, [r7, #12]
 c007160:	f8a3 205e 	strh.w	r2, [r3, #94]	; 0x5e
    while (huart->RxXferCount > 0U)
 c007164:	68fb      	ldr	r3, [r7, #12]
 c007166:	f8b3 305e 	ldrh.w	r3, [r3, #94]	; 0x5e
 c00716a:	b29b      	uxth	r3, r3
 c00716c:	2b00      	cmp	r3, #0
 c00716e:	d1c6      	bne.n	c0070fe <HAL_UART_Receive+0x11e>
    }

    /* At end of Rx process, restore huart->RxState to Ready */
    huart->RxState = HAL_UART_STATE_READY;
 c007170:	68fb      	ldr	r3, [r7, #12]
 c007172:	2220      	movs	r2, #32
 c007174:	f8c3 2088 	str.w	r2, [r3, #136]	; 0x88

    return HAL_OK;
 c007178:	2300      	movs	r3, #0
 c00717a:	e000      	b.n	c00717e <HAL_UART_Receive+0x19e>
  }
  else
  {
    return HAL_BUSY;
 c00717c:	2302      	movs	r3, #2
  }
}
 c00717e:	4618      	mov	r0, r3
 c007180:	3720      	adds	r7, #32
 c007182:	46bd      	mov	sp, r7
 c007184:	bd80      	pop	{r7, pc}
	...

0c007188 <UART_SetConfig>:
  * @brief Configure the UART peripheral.
  * @param huart UART handle.
  * @retval HAL status
  */
HAL_StatusTypeDef UART_SetConfig(UART_HandleTypeDef *huart)
{
 c007188:	e92d 4fb0 	stmdb	sp!, {r4, r5, r7, r8, r9, sl, fp, lr}
 c00718c:	b08c      	sub	sp, #48	; 0x30
 c00718e:	af00      	add	r7, sp, #0
 c007190:	6178      	str	r0, [r7, #20]
  uint32_t tmpreg;
  uint16_t brrtemp;
  UART_ClockSourceTypeDef clocksource;
  uint32_t usartdiv;
  HAL_StatusTypeDef ret               = HAL_OK;
 c007192:	2300      	movs	r3, #0
 c007194:	f887 302a 	strb.w	r3, [r7, #42]	; 0x2a
  *  the UART Word Length, Parity, Mode and oversampling:
  *  set the M bits according to huart->Init.WordLength value
  *  set PCE and PS bits according to huart->Init.Parity value
  *  set TE and RE bits according to huart->Init.Mode value
  *  set OVER8 bit according to huart->Init.OverSampling value */
  tmpreg = (uint32_t)huart->Init.WordLength | huart->Init.Parity | huart->Init.Mode | huart->Init.OverSampling ;
 c007198:	697b      	ldr	r3, [r7, #20]
 c00719a:	689a      	ldr	r2, [r3, #8]
 c00719c:	697b      	ldr	r3, [r7, #20]
 c00719e:	691b      	ldr	r3, [r3, #16]
 c0071a0:	431a      	orrs	r2, r3
 c0071a2:	697b      	ldr	r3, [r7, #20]
 c0071a4:	695b      	ldr	r3, [r3, #20]
 c0071a6:	431a      	orrs	r2, r3
 c0071a8:	697b      	ldr	r3, [r7, #20]
 c0071aa:	69db      	ldr	r3, [r3, #28]
 c0071ac:	4313      	orrs	r3, r2
 c0071ae:	62fb      	str	r3, [r7, #44]	; 0x2c
  MODIFY_REG(huart->Instance->CR1, USART_CR1_FIELDS, tmpreg);
 c0071b0:	697b      	ldr	r3, [r7, #20]
 c0071b2:	681b      	ldr	r3, [r3, #0]
 c0071b4:	681a      	ldr	r2, [r3, #0]
 c0071b6:	4baa      	ldr	r3, [pc, #680]	; (c007460 <UART_SetConfig+0x2d8>)
 c0071b8:	4013      	ands	r3, r2
 c0071ba:	697a      	ldr	r2, [r7, #20]
 c0071bc:	6812      	ldr	r2, [r2, #0]
 c0071be:	6af9      	ldr	r1, [r7, #44]	; 0x2c
 c0071c0:	430b      	orrs	r3, r1
 c0071c2:	6013      	str	r3, [r2, #0]

  /*-------------------------- USART CR2 Configuration -----------------------*/
  /* Configure the UART Stop Bits: Set STOP[13:12] bits according
  * to huart->Init.StopBits value */
  MODIFY_REG(huart->Instance->CR2, USART_CR2_STOP, huart->Init.StopBits);
 c0071c4:	697b      	ldr	r3, [r7, #20]
 c0071c6:	681b      	ldr	r3, [r3, #0]
 c0071c8:	685b      	ldr	r3, [r3, #4]
 c0071ca:	f423 5140 	bic.w	r1, r3, #12288	; 0x3000
 c0071ce:	697b      	ldr	r3, [r7, #20]
 c0071d0:	68da      	ldr	r2, [r3, #12]
 c0071d2:	697b      	ldr	r3, [r7, #20]
 c0071d4:	681b      	ldr	r3, [r3, #0]
 c0071d6:	430a      	orrs	r2, r1
 c0071d8:	605a      	str	r2, [r3, #4]
  /* Configure
  * - UART HardWare Flow Control: set CTSE and RTSE bits according
  *   to huart->Init.HwFlowCtl value
  * - one-bit sampling method versus three samples' majority rule according
  *   to huart->Init.OneBitSampling (not applicable to LPUART) */
  tmpreg = (uint32_t)huart->Init.HwFlowCtl;
 c0071da:	697b      	ldr	r3, [r7, #20]
 c0071dc:	699b      	ldr	r3, [r3, #24]
 c0071de:	62fb      	str	r3, [r7, #44]	; 0x2c

  if (!(UART_INSTANCE_LOWPOWER(huart)))
 c0071e0:	697b      	ldr	r3, [r7, #20]
 c0071e2:	681b      	ldr	r3, [r3, #0]
 c0071e4:	4a9f      	ldr	r2, [pc, #636]	; (c007464 <UART_SetConfig+0x2dc>)
 c0071e6:	4293      	cmp	r3, r2
 c0071e8:	d004      	beq.n	c0071f4 <UART_SetConfig+0x6c>
  {
    tmpreg |= huart->Init.OneBitSampling;
 c0071ea:	697b      	ldr	r3, [r7, #20]
 c0071ec:	6a1b      	ldr	r3, [r3, #32]
 c0071ee:	6afa      	ldr	r2, [r7, #44]	; 0x2c
 c0071f0:	4313      	orrs	r3, r2
 c0071f2:	62fb      	str	r3, [r7, #44]	; 0x2c
  }
  MODIFY_REG(huart->Instance->CR3, USART_CR3_FIELDS, tmpreg);
 c0071f4:	697b      	ldr	r3, [r7, #20]
 c0071f6:	681b      	ldr	r3, [r3, #0]
 c0071f8:	689b      	ldr	r3, [r3, #8]
 c0071fa:	f023 436e 	bic.w	r3, r3, #3992977408	; 0xee000000
 c0071fe:	f423 6330 	bic.w	r3, r3, #2816	; 0xb00
 c007202:	697a      	ldr	r2, [r7, #20]
 c007204:	6812      	ldr	r2, [r2, #0]
 c007206:	6af9      	ldr	r1, [r7, #44]	; 0x2c
 c007208:	430b      	orrs	r3, r1
 c00720a:	6093      	str	r3, [r2, #8]

  /*-------------------------- USART PRESC Configuration -----------------------*/
  /* Configure
  * - UART Clock Prescaler : set PRESCALER according to huart->Init.ClockPrescaler value */
  MODIFY_REG(huart->Instance->PRESC, USART_PRESC_PRESCALER, huart->Init.ClockPrescaler);
 c00720c:	697b      	ldr	r3, [r7, #20]
 c00720e:	681b      	ldr	r3, [r3, #0]
 c007210:	6adb      	ldr	r3, [r3, #44]	; 0x2c
 c007212:	f023 010f 	bic.w	r1, r3, #15
 c007216:	697b      	ldr	r3, [r7, #20]
 c007218:	6a5a      	ldr	r2, [r3, #36]	; 0x24
 c00721a:	697b      	ldr	r3, [r7, #20]
 c00721c:	681b      	ldr	r3, [r3, #0]
 c00721e:	430a      	orrs	r2, r1
 c007220:	62da      	str	r2, [r3, #44]	; 0x2c

  /*-------------------------- USART BRR Configuration -----------------------*/
  UART_GETCLOCKSOURCE(huart, clocksource);
 c007222:	697b      	ldr	r3, [r7, #20]
 c007224:	681b      	ldr	r3, [r3, #0]
 c007226:	4a90      	ldr	r2, [pc, #576]	; (c007468 <UART_SetConfig+0x2e0>)
 c007228:	4293      	cmp	r3, r2
 c00722a:	d125      	bne.n	c007278 <UART_SetConfig+0xf0>
 c00722c:	4b8f      	ldr	r3, [pc, #572]	; (c00746c <UART_SetConfig+0x2e4>)
 c00722e:	f8d3 3088 	ldr.w	r3, [r3, #136]	; 0x88
 c007232:	f003 0303 	and.w	r3, r3, #3
 c007236:	2b03      	cmp	r3, #3
 c007238:	d81a      	bhi.n	c007270 <UART_SetConfig+0xe8>
 c00723a:	a201      	add	r2, pc, #4	; (adr r2, c007240 <UART_SetConfig+0xb8>)
 c00723c:	f852 f023 	ldr.w	pc, [r2, r3, lsl #2]
 c007240:	0c007251 	.word	0x0c007251
 c007244:	0c007261 	.word	0x0c007261
 c007248:	0c007259 	.word	0x0c007259
 c00724c:	0c007269 	.word	0x0c007269
 c007250:	2301      	movs	r3, #1
 c007252:	f887 302b 	strb.w	r3, [r7, #43]	; 0x2b
 c007256:	e114      	b.n	c007482 <UART_SetConfig+0x2fa>
 c007258:	2302      	movs	r3, #2
 c00725a:	f887 302b 	strb.w	r3, [r7, #43]	; 0x2b
 c00725e:	e110      	b.n	c007482 <UART_SetConfig+0x2fa>
 c007260:	2304      	movs	r3, #4
 c007262:	f887 302b 	strb.w	r3, [r7, #43]	; 0x2b
 c007266:	e10c      	b.n	c007482 <UART_SetConfig+0x2fa>
 c007268:	2308      	movs	r3, #8
 c00726a:	f887 302b 	strb.w	r3, [r7, #43]	; 0x2b
 c00726e:	e108      	b.n	c007482 <UART_SetConfig+0x2fa>
 c007270:	2310      	movs	r3, #16
 c007272:	f887 302b 	strb.w	r3, [r7, #43]	; 0x2b
 c007276:	e104      	b.n	c007482 <UART_SetConfig+0x2fa>
 c007278:	697b      	ldr	r3, [r7, #20]
 c00727a:	681b      	ldr	r3, [r3, #0]
 c00727c:	4a7c      	ldr	r2, [pc, #496]	; (c007470 <UART_SetConfig+0x2e8>)
 c00727e:	4293      	cmp	r3, r2
 c007280:	d138      	bne.n	c0072f4 <UART_SetConfig+0x16c>
 c007282:	4b7a      	ldr	r3, [pc, #488]	; (c00746c <UART_SetConfig+0x2e4>)
 c007284:	f8d3 3088 	ldr.w	r3, [r3, #136]	; 0x88
 c007288:	f003 030c 	and.w	r3, r3, #12
 c00728c:	2b0c      	cmp	r3, #12
 c00728e:	d82d      	bhi.n	c0072ec <UART_SetConfig+0x164>
 c007290:	a201      	add	r2, pc, #4	; (adr r2, c007298 <UART_SetConfig+0x110>)
 c007292:	f852 f023 	ldr.w	pc, [r2, r3, lsl #2]
 c007296:	bf00      	nop
 c007298:	0c0072cd 	.word	0x0c0072cd
 c00729c:	0c0072ed 	.word	0x0c0072ed
 c0072a0:	0c0072ed 	.word	0x0c0072ed
 c0072a4:	0c0072ed 	.word	0x0c0072ed
 c0072a8:	0c0072dd 	.word	0x0c0072dd
 c0072ac:	0c0072ed 	.word	0x0c0072ed
 c0072b0:	0c0072ed 	.word	0x0c0072ed
 c0072b4:	0c0072ed 	.word	0x0c0072ed
 c0072b8:	0c0072d5 	.word	0x0c0072d5
 c0072bc:	0c0072ed 	.word	0x0c0072ed
 c0072c0:	0c0072ed 	.word	0x0c0072ed
 c0072c4:	0c0072ed 	.word	0x0c0072ed
 c0072c8:	0c0072e5 	.word	0x0c0072e5
 c0072cc:	2300      	movs	r3, #0
 c0072ce:	f887 302b 	strb.w	r3, [r7, #43]	; 0x2b
 c0072d2:	e0d6      	b.n	c007482 <UART_SetConfig+0x2fa>
 c0072d4:	2302      	movs	r3, #2
 c0072d6:	f887 302b 	strb.w	r3, [r7, #43]	; 0x2b
 c0072da:	e0d2      	b.n	c007482 <UART_SetConfig+0x2fa>
 c0072dc:	2304      	movs	r3, #4
 c0072de:	f887 302b 	strb.w	r3, [r7, #43]	; 0x2b
 c0072e2:	e0ce      	b.n	c007482 <UART_SetConfig+0x2fa>
 c0072e4:	2308      	movs	r3, #8
 c0072e6:	f887 302b 	strb.w	r3, [r7, #43]	; 0x2b
 c0072ea:	e0ca      	b.n	c007482 <UART_SetConfig+0x2fa>
 c0072ec:	2310      	movs	r3, #16
 c0072ee:	f887 302b 	strb.w	r3, [r7, #43]	; 0x2b
 c0072f2:	e0c6      	b.n	c007482 <UART_SetConfig+0x2fa>
 c0072f4:	697b      	ldr	r3, [r7, #20]
 c0072f6:	681b      	ldr	r3, [r3, #0]
 c0072f8:	4a5e      	ldr	r2, [pc, #376]	; (c007474 <UART_SetConfig+0x2ec>)
 c0072fa:	4293      	cmp	r3, r2
 c0072fc:	d125      	bne.n	c00734a <UART_SetConfig+0x1c2>
 c0072fe:	4b5b      	ldr	r3, [pc, #364]	; (c00746c <UART_SetConfig+0x2e4>)
 c007300:	f8d3 3088 	ldr.w	r3, [r3, #136]	; 0x88
 c007304:	f003 0330 	and.w	r3, r3, #48	; 0x30
 c007308:	2b30      	cmp	r3, #48	; 0x30
 c00730a:	d016      	beq.n	c00733a <UART_SetConfig+0x1b2>
 c00730c:	2b30      	cmp	r3, #48	; 0x30
 c00730e:	d818      	bhi.n	c007342 <UART_SetConfig+0x1ba>
 c007310:	2b20      	cmp	r3, #32
 c007312:	d00a      	beq.n	c00732a <UART_SetConfig+0x1a2>
 c007314:	2b20      	cmp	r3, #32
 c007316:	d814      	bhi.n	c007342 <UART_SetConfig+0x1ba>
 c007318:	2b00      	cmp	r3, #0
 c00731a:	d002      	beq.n	c007322 <UART_SetConfig+0x19a>
 c00731c:	2b10      	cmp	r3, #16
 c00731e:	d008      	beq.n	c007332 <UART_SetConfig+0x1aa>
 c007320:	e00f      	b.n	c007342 <UART_SetConfig+0x1ba>
 c007322:	2300      	movs	r3, #0
 c007324:	f887 302b 	strb.w	r3, [r7, #43]	; 0x2b
 c007328:	e0ab      	b.n	c007482 <UART_SetConfig+0x2fa>
 c00732a:	2302      	movs	r3, #2
 c00732c:	f887 302b 	strb.w	r3, [r7, #43]	; 0x2b
 c007330:	e0a7      	b.n	c007482 <UART_SetConfig+0x2fa>
 c007332:	2304      	movs	r3, #4
 c007334:	f887 302b 	strb.w	r3, [r7, #43]	; 0x2b
 c007338:	e0a3      	b.n	c007482 <UART_SetConfig+0x2fa>
 c00733a:	2308      	movs	r3, #8
 c00733c:	f887 302b 	strb.w	r3, [r7, #43]	; 0x2b
 c007340:	e09f      	b.n	c007482 <UART_SetConfig+0x2fa>
 c007342:	2310      	movs	r3, #16
 c007344:	f887 302b 	strb.w	r3, [r7, #43]	; 0x2b
 c007348:	e09b      	b.n	c007482 <UART_SetConfig+0x2fa>
 c00734a:	697b      	ldr	r3, [r7, #20]
 c00734c:	681b      	ldr	r3, [r3, #0]
 c00734e:	4a4a      	ldr	r2, [pc, #296]	; (c007478 <UART_SetConfig+0x2f0>)
 c007350:	4293      	cmp	r3, r2
 c007352:	d125      	bne.n	c0073a0 <UART_SetConfig+0x218>
 c007354:	4b45      	ldr	r3, [pc, #276]	; (c00746c <UART_SetConfig+0x2e4>)
 c007356:	f8d3 3088 	ldr.w	r3, [r3, #136]	; 0x88
 c00735a:	f003 03c0 	and.w	r3, r3, #192	; 0xc0
 c00735e:	2bc0      	cmp	r3, #192	; 0xc0
 c007360:	d016      	beq.n	c007390 <UART_SetConfig+0x208>
 c007362:	2bc0      	cmp	r3, #192	; 0xc0
 c007364:	d818      	bhi.n	c007398 <UART_SetConfig+0x210>
 c007366:	2b80      	cmp	r3, #128	; 0x80
 c007368:	d00a      	beq.n	c007380 <UART_SetConfig+0x1f8>
 c00736a:	2b80      	cmp	r3, #128	; 0x80
 c00736c:	d814      	bhi.n	c007398 <UART_SetConfig+0x210>
 c00736e:	2b00      	cmp	r3, #0
 c007370:	d002      	beq.n	c007378 <UART_SetConfig+0x1f0>
 c007372:	2b40      	cmp	r3, #64	; 0x40
 c007374:	d008      	beq.n	c007388 <UART_SetConfig+0x200>
 c007376:	e00f      	b.n	c007398 <UART_SetConfig+0x210>
 c007378:	2300      	movs	r3, #0
 c00737a:	f887 302b 	strb.w	r3, [r7, #43]	; 0x2b
 c00737e:	e080      	b.n	c007482 <UART_SetConfig+0x2fa>
 c007380:	2302      	movs	r3, #2
 c007382:	f887 302b 	strb.w	r3, [r7, #43]	; 0x2b
 c007386:	e07c      	b.n	c007482 <UART_SetConfig+0x2fa>
 c007388:	2304      	movs	r3, #4
 c00738a:	f887 302b 	strb.w	r3, [r7, #43]	; 0x2b
 c00738e:	e078      	b.n	c007482 <UART_SetConfig+0x2fa>
 c007390:	2308      	movs	r3, #8
 c007392:	f887 302b 	strb.w	r3, [r7, #43]	; 0x2b
 c007396:	e074      	b.n	c007482 <UART_SetConfig+0x2fa>
 c007398:	2310      	movs	r3, #16
 c00739a:	f887 302b 	strb.w	r3, [r7, #43]	; 0x2b
 c00739e:	e070      	b.n	c007482 <UART_SetConfig+0x2fa>
 c0073a0:	697b      	ldr	r3, [r7, #20]
 c0073a2:	681b      	ldr	r3, [r3, #0]
 c0073a4:	f1b3 2f50 	cmp.w	r3, #1342197760	; 0x50005000
 c0073a8:	d12a      	bne.n	c007400 <UART_SetConfig+0x278>
 c0073aa:	4b30      	ldr	r3, [pc, #192]	; (c00746c <UART_SetConfig+0x2e4>)
 c0073ac:	f8d3 3088 	ldr.w	r3, [r3, #136]	; 0x88
 c0073b0:	f403 7340 	and.w	r3, r3, #768	; 0x300
 c0073b4:	f5b3 7f40 	cmp.w	r3, #768	; 0x300
 c0073b8:	d01a      	beq.n	c0073f0 <UART_SetConfig+0x268>
 c0073ba:	f5b3 7f40 	cmp.w	r3, #768	; 0x300
 c0073be:	d81b      	bhi.n	c0073f8 <UART_SetConfig+0x270>
 c0073c0:	f5b3 7f00 	cmp.w	r3, #512	; 0x200
 c0073c4:	d00c      	beq.n	c0073e0 <UART_SetConfig+0x258>
 c0073c6:	f5b3 7f00 	cmp.w	r3, #512	; 0x200
 c0073ca:	d815      	bhi.n	c0073f8 <UART_SetConfig+0x270>
 c0073cc:	2b00      	cmp	r3, #0
 c0073ce:	d003      	beq.n	c0073d8 <UART_SetConfig+0x250>
 c0073d0:	f5b3 7f80 	cmp.w	r3, #256	; 0x100
 c0073d4:	d008      	beq.n	c0073e8 <UART_SetConfig+0x260>
 c0073d6:	e00f      	b.n	c0073f8 <UART_SetConfig+0x270>
 c0073d8:	2300      	movs	r3, #0
 c0073da:	f887 302b 	strb.w	r3, [r7, #43]	; 0x2b
 c0073de:	e050      	b.n	c007482 <UART_SetConfig+0x2fa>
 c0073e0:	2302      	movs	r3, #2
 c0073e2:	f887 302b 	strb.w	r3, [r7, #43]	; 0x2b
 c0073e6:	e04c      	b.n	c007482 <UART_SetConfig+0x2fa>
 c0073e8:	2304      	movs	r3, #4
 c0073ea:	f887 302b 	strb.w	r3, [r7, #43]	; 0x2b
 c0073ee:	e048      	b.n	c007482 <UART_SetConfig+0x2fa>
 c0073f0:	2308      	movs	r3, #8
 c0073f2:	f887 302b 	strb.w	r3, [r7, #43]	; 0x2b
 c0073f6:	e044      	b.n	c007482 <UART_SetConfig+0x2fa>
 c0073f8:	2310      	movs	r3, #16
 c0073fa:	f887 302b 	strb.w	r3, [r7, #43]	; 0x2b
 c0073fe:	e040      	b.n	c007482 <UART_SetConfig+0x2fa>
 c007400:	697b      	ldr	r3, [r7, #20]
 c007402:	681b      	ldr	r3, [r3, #0]
 c007404:	4a17      	ldr	r2, [pc, #92]	; (c007464 <UART_SetConfig+0x2dc>)
 c007406:	4293      	cmp	r3, r2
 c007408:	d138      	bne.n	c00747c <UART_SetConfig+0x2f4>
 c00740a:	4b18      	ldr	r3, [pc, #96]	; (c00746c <UART_SetConfig+0x2e4>)
 c00740c:	f8d3 3088 	ldr.w	r3, [r3, #136]	; 0x88
 c007410:	f403 6340 	and.w	r3, r3, #3072	; 0xc00
 c007414:	f5b3 6f40 	cmp.w	r3, #3072	; 0xc00
 c007418:	d01a      	beq.n	c007450 <UART_SetConfig+0x2c8>
 c00741a:	f5b3 6f40 	cmp.w	r3, #3072	; 0xc00
 c00741e:	d81b      	bhi.n	c007458 <UART_SetConfig+0x2d0>
 c007420:	f5b3 6f00 	cmp.w	r3, #2048	; 0x800
 c007424:	d00c      	beq.n	c007440 <UART_SetConfig+0x2b8>
 c007426:	f5b3 6f00 	cmp.w	r3, #2048	; 0x800
 c00742a:	d815      	bhi.n	c007458 <UART_SetConfig+0x2d0>
 c00742c:	2b00      	cmp	r3, #0
 c00742e:	d003      	beq.n	c007438 <UART_SetConfig+0x2b0>
 c007430:	f5b3 6f80 	cmp.w	r3, #1024	; 0x400
 c007434:	d008      	beq.n	c007448 <UART_SetConfig+0x2c0>
 c007436:	e00f      	b.n	c007458 <UART_SetConfig+0x2d0>
 c007438:	2300      	movs	r3, #0
 c00743a:	f887 302b 	strb.w	r3, [r7, #43]	; 0x2b
 c00743e:	e020      	b.n	c007482 <UART_SetConfig+0x2fa>
 c007440:	2302      	movs	r3, #2
 c007442:	f887 302b 	strb.w	r3, [r7, #43]	; 0x2b
 c007446:	e01c      	b.n	c007482 <UART_SetConfig+0x2fa>
 c007448:	2304      	movs	r3, #4
 c00744a:	f887 302b 	strb.w	r3, [r7, #43]	; 0x2b
 c00744e:	e018      	b.n	c007482 <UART_SetConfig+0x2fa>
 c007450:	2308      	movs	r3, #8
 c007452:	f887 302b 	strb.w	r3, [r7, #43]	; 0x2b
 c007456:	e014      	b.n	c007482 <UART_SetConfig+0x2fa>
 c007458:	2310      	movs	r3, #16
 c00745a:	f887 302b 	strb.w	r3, [r7, #43]	; 0x2b
 c00745e:	e010      	b.n	c007482 <UART_SetConfig+0x2fa>
 c007460:	cfff69f3 	.word	0xcfff69f3
 c007464:	50008000 	.word	0x50008000
 c007468:	50013800 	.word	0x50013800
 c00746c:	50021000 	.word	0x50021000
 c007470:	50004400 	.word	0x50004400
 c007474:	50004800 	.word	0x50004800
 c007478:	50004c00 	.word	0x50004c00
 c00747c:	2310      	movs	r3, #16
 c00747e:	f887 302b 	strb.w	r3, [r7, #43]	; 0x2b

  /* Check LPUART instance */
  if (UART_INSTANCE_LOWPOWER(huart))
 c007482:	697b      	ldr	r3, [r7, #20]
 c007484:	681b      	ldr	r3, [r3, #0]
 c007486:	4ab0      	ldr	r2, [pc, #704]	; (c007748 <UART_SetConfig+0x5c0>)
 c007488:	4293      	cmp	r3, r2
 c00748a:	f040 809b 	bne.w	c0075c4 <UART_SetConfig+0x43c>
  {
    /* Retrieve frequency clock */
    switch (clocksource)
 c00748e:	f897 302b 	ldrb.w	r3, [r7, #43]	; 0x2b
 c007492:	2b08      	cmp	r3, #8
 c007494:	d827      	bhi.n	c0074e6 <UART_SetConfig+0x35e>
 c007496:	a201      	add	r2, pc, #4	; (adr r2, c00749c <UART_SetConfig+0x314>)
 c007498:	f852 f023 	ldr.w	pc, [r2, r3, lsl #2]
 c00749c:	0c0074c1 	.word	0x0c0074c1
 c0074a0:	0c0074c9 	.word	0x0c0074c9
 c0074a4:	0c0074d1 	.word	0x0c0074d1
 c0074a8:	0c0074e7 	.word	0x0c0074e7
 c0074ac:	0c0074d7 	.word	0x0c0074d7
 c0074b0:	0c0074e7 	.word	0x0c0074e7
 c0074b4:	0c0074e7 	.word	0x0c0074e7
 c0074b8:	0c0074e7 	.word	0x0c0074e7
 c0074bc:	0c0074df 	.word	0x0c0074df
    {
      case UART_CLOCKSOURCE_PCLK1:
        pclk = HAL_RCC_GetPCLK1Freq();
 c0074c0:	f7fe fa1c 	bl	c0058fc <HAL_RCC_GetPCLK1Freq>
 c0074c4:	6278      	str	r0, [r7, #36]	; 0x24
        break;
 c0074c6:	e014      	b.n	c0074f2 <UART_SetConfig+0x36a>
      case UART_CLOCKSOURCE_PCLK2:
        pclk = HAL_RCC_GetPCLK2Freq();
 c0074c8:	f7fe fa2c 	bl	c005924 <HAL_RCC_GetPCLK2Freq>
 c0074cc:	6278      	str	r0, [r7, #36]	; 0x24
        break;
 c0074ce:	e010      	b.n	c0074f2 <UART_SetConfig+0x36a>
      case UART_CLOCKSOURCE_HSI:
        pclk = (uint32_t) HSI_VALUE;
 c0074d0:	4b9e      	ldr	r3, [pc, #632]	; (c00774c <UART_SetConfig+0x5c4>)
 c0074d2:	627b      	str	r3, [r7, #36]	; 0x24
        break;
 c0074d4:	e00d      	b.n	c0074f2 <UART_SetConfig+0x36a>
      case UART_CLOCKSOURCE_SYSCLK:
        pclk = HAL_RCC_GetSysClockFreq();
 c0074d6:	f7fe f961 	bl	c00579c <HAL_RCC_GetSysClockFreq>
 c0074da:	6278      	str	r0, [r7, #36]	; 0x24
        break;
 c0074dc:	e009      	b.n	c0074f2 <UART_SetConfig+0x36a>
      case UART_CLOCKSOURCE_LSE:
        pclk = (uint32_t) LSE_VALUE;
 c0074de:	f44f 4300 	mov.w	r3, #32768	; 0x8000
 c0074e2:	627b      	str	r3, [r7, #36]	; 0x24
        break;
 c0074e4:	e005      	b.n	c0074f2 <UART_SetConfig+0x36a>
      default:
        pclk = 0U;
 c0074e6:	2300      	movs	r3, #0
 c0074e8:	627b      	str	r3, [r7, #36]	; 0x24
        ret = HAL_ERROR;
 c0074ea:	2301      	movs	r3, #1
 c0074ec:	f887 302a 	strb.w	r3, [r7, #42]	; 0x2a
        break;
 c0074f0:	bf00      	nop
    }

    /* If proper clock source reported */
    if (pclk != 0U)
 c0074f2:	6a7b      	ldr	r3, [r7, #36]	; 0x24
 c0074f4:	2b00      	cmp	r3, #0
 c0074f6:	f000 8130 	beq.w	c00775a <UART_SetConfig+0x5d2>
    {
      /* Compute clock after Prescaler */
      lpuart_ker_ck_pres = (pclk / UARTPrescTable[huart->Init.ClockPrescaler]);
 c0074fa:	697b      	ldr	r3, [r7, #20]
 c0074fc:	6a5b      	ldr	r3, [r3, #36]	; 0x24
 c0074fe:	4a94      	ldr	r2, [pc, #592]	; (c007750 <UART_SetConfig+0x5c8>)
 c007500:	f832 3013 	ldrh.w	r3, [r2, r3, lsl #1]
 c007504:	461a      	mov	r2, r3
 c007506:	6a7b      	ldr	r3, [r7, #36]	; 0x24
 c007508:	fbb3 f3f2 	udiv	r3, r3, r2
 c00750c:	61bb      	str	r3, [r7, #24]

      /* Ensure that Frequency clock is in the range [3 * baudrate, 4096 * baudrate] */
//      volatile uint32_t value1 = 3U * huart->Init.BaudRate;
//      volatile uint32_t value2 = 4096U * huart->Init.BaudRate;
      if ((lpuart_ker_ck_pres < (3U * huart->Init.BaudRate)) ||
 c00750e:	697b      	ldr	r3, [r7, #20]
 c007510:	685a      	ldr	r2, [r3, #4]
 c007512:	4613      	mov	r3, r2
 c007514:	005b      	lsls	r3, r3, #1
 c007516:	4413      	add	r3, r2
 c007518:	69ba      	ldr	r2, [r7, #24]
 c00751a:	429a      	cmp	r2, r3
 c00751c:	d305      	bcc.n	c00752a <UART_SetConfig+0x3a2>
          (lpuart_ker_ck_pres > (4096U * huart->Init.BaudRate)))
 c00751e:	697b      	ldr	r3, [r7, #20]
 c007520:	685b      	ldr	r3, [r3, #4]
 c007522:	031b      	lsls	r3, r3, #12
      if ((lpuart_ker_ck_pres < (3U * huart->Init.BaudRate)) ||
 c007524:	69ba      	ldr	r2, [r7, #24]
 c007526:	429a      	cmp	r2, r3
 c007528:	d903      	bls.n	c007532 <UART_SetConfig+0x3aa>
      {
        ret = HAL_ERROR;
 c00752a:	2301      	movs	r3, #1
 c00752c:	f887 302a 	strb.w	r3, [r7, #42]	; 0x2a
 c007530:	e113      	b.n	c00775a <UART_SetConfig+0x5d2>
      }
      else
      {
        /* Check computed UsartDiv value is in allocated range
           (it is forbidden to write values lower than 0x300 in the LPUART_BRR register) */
        usartdiv = (uint32_t)(UART_DIV_LPUART(pclk, (uint64_t)huart->Init.BaudRate, huart->Init.ClockPrescaler));
 c007532:	6a7b      	ldr	r3, [r7, #36]	; 0x24
 c007534:	2200      	movs	r2, #0
 c007536:	60bb      	str	r3, [r7, #8]
 c007538:	60fa      	str	r2, [r7, #12]
 c00753a:	697b      	ldr	r3, [r7, #20]
 c00753c:	6a5b      	ldr	r3, [r3, #36]	; 0x24
 c00753e:	4a84      	ldr	r2, [pc, #528]	; (c007750 <UART_SetConfig+0x5c8>)
 c007540:	f832 3013 	ldrh.w	r3, [r2, r3, lsl #1]
 c007544:	b29b      	uxth	r3, r3
 c007546:	2200      	movs	r2, #0
 c007548:	603b      	str	r3, [r7, #0]
 c00754a:	607a      	str	r2, [r7, #4]
 c00754c:	e9d7 2300 	ldrd	r2, r3, [r7]
 c007550:	e9d7 0102 	ldrd	r0, r1, [r7, #8]
 c007554:	f7f8 fea6 	bl	c0002a4 <__aeabi_uldivmod>
 c007558:	4602      	mov	r2, r0
 c00755a:	460b      	mov	r3, r1
 c00755c:	4610      	mov	r0, r2
 c00755e:	4619      	mov	r1, r3
 c007560:	f04f 0200 	mov.w	r2, #0
 c007564:	f04f 0300 	mov.w	r3, #0
 c007568:	020b      	lsls	r3, r1, #8
 c00756a:	ea43 6310 	orr.w	r3, r3, r0, lsr #24
 c00756e:	0202      	lsls	r2, r0, #8
 c007570:	6979      	ldr	r1, [r7, #20]
 c007572:	6849      	ldr	r1, [r1, #4]
 c007574:	0849      	lsrs	r1, r1, #1
 c007576:	2000      	movs	r0, #0
 c007578:	460c      	mov	r4, r1
 c00757a:	4605      	mov	r5, r0
 c00757c:	eb12 0804 	adds.w	r8, r2, r4
 c007580:	eb43 0905 	adc.w	r9, r3, r5
 c007584:	697b      	ldr	r3, [r7, #20]
 c007586:	685b      	ldr	r3, [r3, #4]
 c007588:	2200      	movs	r2, #0
 c00758a:	469a      	mov	sl, r3
 c00758c:	4693      	mov	fp, r2
 c00758e:	4652      	mov	r2, sl
 c007590:	465b      	mov	r3, fp
 c007592:	4640      	mov	r0, r8
 c007594:	4649      	mov	r1, r9
 c007596:	f7f8 fe85 	bl	c0002a4 <__aeabi_uldivmod>
 c00759a:	4602      	mov	r2, r0
 c00759c:	460b      	mov	r3, r1
 c00759e:	4613      	mov	r3, r2
 c0075a0:	623b      	str	r3, [r7, #32]
        if ((usartdiv >= LPUART_BRR_MIN) && (usartdiv <= LPUART_BRR_MAX))
 c0075a2:	6a3b      	ldr	r3, [r7, #32]
 c0075a4:	f5b3 7f40 	cmp.w	r3, #768	; 0x300
 c0075a8:	d308      	bcc.n	c0075bc <UART_SetConfig+0x434>
 c0075aa:	6a3b      	ldr	r3, [r7, #32]
 c0075ac:	f5b3 1f80 	cmp.w	r3, #1048576	; 0x100000
 c0075b0:	d204      	bcs.n	c0075bc <UART_SetConfig+0x434>
        {
          huart->Instance->BRR = usartdiv;
 c0075b2:	697b      	ldr	r3, [r7, #20]
 c0075b4:	681b      	ldr	r3, [r3, #0]
 c0075b6:	6a3a      	ldr	r2, [r7, #32]
 c0075b8:	60da      	str	r2, [r3, #12]
 c0075ba:	e0ce      	b.n	c00775a <UART_SetConfig+0x5d2>
        }
        else
        {
          ret = HAL_ERROR;
 c0075bc:	2301      	movs	r3, #1
 c0075be:	f887 302a 	strb.w	r3, [r7, #42]	; 0x2a
 c0075c2:	e0ca      	b.n	c00775a <UART_SetConfig+0x5d2>
        }
      } /* if ( (lpuart_ker_ck_pres < (3 * huart->Init.BaudRate) ) || (lpuart_ker_ck_pres > (4096 * huart->Init.BaudRate) )) */
    } /* if (pclk != 0) */
  }
  /* Check UART Over Sampling to set Baud Rate Register */
  else if (huart->Init.OverSampling == UART_OVERSAMPLING_8)
 c0075c4:	697b      	ldr	r3, [r7, #20]
 c0075c6:	69db      	ldr	r3, [r3, #28]
 c0075c8:	f5b3 4f00 	cmp.w	r3, #32768	; 0x8000
 c0075cc:	d167      	bne.n	c00769e <UART_SetConfig+0x516>
  {
    switch (clocksource)
 c0075ce:	f897 302b 	ldrb.w	r3, [r7, #43]	; 0x2b
 c0075d2:	2b08      	cmp	r3, #8
 c0075d4:	d827      	bhi.n	c007626 <UART_SetConfig+0x49e>
 c0075d6:	a201      	add	r2, pc, #4	; (adr r2, c0075dc <UART_SetConfig+0x454>)
 c0075d8:	f852 f023 	ldr.w	pc, [r2, r3, lsl #2]
 c0075dc:	0c007601 	.word	0x0c007601
 c0075e0:	0c007609 	.word	0x0c007609
 c0075e4:	0c007611 	.word	0x0c007611
 c0075e8:	0c007627 	.word	0x0c007627
 c0075ec:	0c007617 	.word	0x0c007617
 c0075f0:	0c007627 	.word	0x0c007627
 c0075f4:	0c007627 	.word	0x0c007627
 c0075f8:	0c007627 	.word	0x0c007627
 c0075fc:	0c00761f 	.word	0x0c00761f
    {
      case UART_CLOCKSOURCE_PCLK1:
        pclk = HAL_RCC_GetPCLK1Freq();
 c007600:	f7fe f97c 	bl	c0058fc <HAL_RCC_GetPCLK1Freq>
 c007604:	6278      	str	r0, [r7, #36]	; 0x24
        break;
 c007606:	e014      	b.n	c007632 <UART_SetConfig+0x4aa>
      case UART_CLOCKSOURCE_PCLK2:
        pclk = HAL_RCC_GetPCLK2Freq();
 c007608:	f7fe f98c 	bl	c005924 <HAL_RCC_GetPCLK2Freq>
 c00760c:	6278      	str	r0, [r7, #36]	; 0x24
        break;
 c00760e:	e010      	b.n	c007632 <UART_SetConfig+0x4aa>
      case UART_CLOCKSOURCE_HSI:
        pclk = (uint32_t) HSI_VALUE;
 c007610:	4b4e      	ldr	r3, [pc, #312]	; (c00774c <UART_SetConfig+0x5c4>)
 c007612:	627b      	str	r3, [r7, #36]	; 0x24
        break;
 c007614:	e00d      	b.n	c007632 <UART_SetConfig+0x4aa>
      case UART_CLOCKSOURCE_SYSCLK:
        pclk = HAL_RCC_GetSysClockFreq();
 c007616:	f7fe f8c1 	bl	c00579c <HAL_RCC_GetSysClockFreq>
 c00761a:	6278      	str	r0, [r7, #36]	; 0x24
        break;
 c00761c:	e009      	b.n	c007632 <UART_SetConfig+0x4aa>
      case UART_CLOCKSOURCE_LSE:
        pclk = (uint32_t) LSE_VALUE;
 c00761e:	f44f 4300 	mov.w	r3, #32768	; 0x8000
 c007622:	627b      	str	r3, [r7, #36]	; 0x24
        break;
 c007624:	e005      	b.n	c007632 <UART_SetConfig+0x4aa>
      default:
        pclk = 0U;
 c007626:	2300      	movs	r3, #0
 c007628:	627b      	str	r3, [r7, #36]	; 0x24
        ret = HAL_ERROR;
 c00762a:	2301      	movs	r3, #1
 c00762c:	f887 302a 	strb.w	r3, [r7, #42]	; 0x2a
        break;
 c007630:	bf00      	nop
    }

    /* USARTDIV must be greater than or equal to 0d16 */
    if (pclk != 0U)
 c007632:	6a7b      	ldr	r3, [r7, #36]	; 0x24
 c007634:	2b00      	cmp	r3, #0
 c007636:	f000 8090 	beq.w	c00775a <UART_SetConfig+0x5d2>
    {
      usartdiv = (uint16_t)(UART_DIV_SAMPLING8(pclk, huart->Init.BaudRate, huart->Init.ClockPrescaler));
 c00763a:	697b      	ldr	r3, [r7, #20]
 c00763c:	6a5b      	ldr	r3, [r3, #36]	; 0x24
 c00763e:	4a44      	ldr	r2, [pc, #272]	; (c007750 <UART_SetConfig+0x5c8>)
 c007640:	f832 3013 	ldrh.w	r3, [r2, r3, lsl #1]
 c007644:	461a      	mov	r2, r3
 c007646:	6a7b      	ldr	r3, [r7, #36]	; 0x24
 c007648:	fbb3 f3f2 	udiv	r3, r3, r2
 c00764c:	005a      	lsls	r2, r3, #1
 c00764e:	697b      	ldr	r3, [r7, #20]
 c007650:	685b      	ldr	r3, [r3, #4]
 c007652:	085b      	lsrs	r3, r3, #1
 c007654:	441a      	add	r2, r3
 c007656:	697b      	ldr	r3, [r7, #20]
 c007658:	685b      	ldr	r3, [r3, #4]
 c00765a:	fbb2 f3f3 	udiv	r3, r2, r3
 c00765e:	b29b      	uxth	r3, r3
 c007660:	623b      	str	r3, [r7, #32]
      if ((usartdiv >= UART_BRR_MIN) && (usartdiv <= UART_BRR_MAX))
 c007662:	6a3b      	ldr	r3, [r7, #32]
 c007664:	2b0f      	cmp	r3, #15
 c007666:	d916      	bls.n	c007696 <UART_SetConfig+0x50e>
 c007668:	6a3b      	ldr	r3, [r7, #32]
 c00766a:	f5b3 3f80 	cmp.w	r3, #65536	; 0x10000
 c00766e:	d212      	bcs.n	c007696 <UART_SetConfig+0x50e>
      {
        brrtemp = (uint16_t)(usartdiv & 0xFFF0U);
 c007670:	6a3b      	ldr	r3, [r7, #32]
 c007672:	b29b      	uxth	r3, r3
 c007674:	f023 030f 	bic.w	r3, r3, #15
 c007678:	83fb      	strh	r3, [r7, #30]
        brrtemp |= (uint16_t)((usartdiv & (uint16_t)0x000FU) >> 1U);
 c00767a:	6a3b      	ldr	r3, [r7, #32]
 c00767c:	085b      	lsrs	r3, r3, #1
 c00767e:	b29b      	uxth	r3, r3
 c007680:	f003 0307 	and.w	r3, r3, #7
 c007684:	b29a      	uxth	r2, r3
 c007686:	8bfb      	ldrh	r3, [r7, #30]
 c007688:	4313      	orrs	r3, r2
 c00768a:	83fb      	strh	r3, [r7, #30]
        huart->Instance->BRR = brrtemp;
 c00768c:	697b      	ldr	r3, [r7, #20]
 c00768e:	681b      	ldr	r3, [r3, #0]
 c007690:	8bfa      	ldrh	r2, [r7, #30]
 c007692:	60da      	str	r2, [r3, #12]
 c007694:	e061      	b.n	c00775a <UART_SetConfig+0x5d2>
      }
      else
      {
        ret = HAL_ERROR;
 c007696:	2301      	movs	r3, #1
 c007698:	f887 302a 	strb.w	r3, [r7, #42]	; 0x2a
 c00769c:	e05d      	b.n	c00775a <UART_SetConfig+0x5d2>
      }
    }
  }
  else
  {
    switch (clocksource)
 c00769e:	f897 302b 	ldrb.w	r3, [r7, #43]	; 0x2b
 c0076a2:	2b08      	cmp	r3, #8
 c0076a4:	d827      	bhi.n	c0076f6 <UART_SetConfig+0x56e>
 c0076a6:	a201      	add	r2, pc, #4	; (adr r2, c0076ac <UART_SetConfig+0x524>)
 c0076a8:	f852 f023 	ldr.w	pc, [r2, r3, lsl #2]
 c0076ac:	0c0076d1 	.word	0x0c0076d1
 c0076b0:	0c0076d9 	.word	0x0c0076d9
 c0076b4:	0c0076e1 	.word	0x0c0076e1
 c0076b8:	0c0076f7 	.word	0x0c0076f7
 c0076bc:	0c0076e7 	.word	0x0c0076e7
 c0076c0:	0c0076f7 	.word	0x0c0076f7
 c0076c4:	0c0076f7 	.word	0x0c0076f7
 c0076c8:	0c0076f7 	.word	0x0c0076f7
 c0076cc:	0c0076ef 	.word	0x0c0076ef
    {
      case UART_CLOCKSOURCE_PCLK1:
        pclk = HAL_RCC_GetPCLK1Freq();
 c0076d0:	f7fe f914 	bl	c0058fc <HAL_RCC_GetPCLK1Freq>
 c0076d4:	6278      	str	r0, [r7, #36]	; 0x24
        break;
 c0076d6:	e014      	b.n	c007702 <UART_SetConfig+0x57a>
      case UART_CLOCKSOURCE_PCLK2:
        pclk = HAL_RCC_GetPCLK2Freq();
 c0076d8:	f7fe f924 	bl	c005924 <HAL_RCC_GetPCLK2Freq>
 c0076dc:	6278      	str	r0, [r7, #36]	; 0x24
        break;
 c0076de:	e010      	b.n	c007702 <UART_SetConfig+0x57a>
      case UART_CLOCKSOURCE_HSI:
        pclk = (uint32_t) HSI_VALUE;
 c0076e0:	4b1a      	ldr	r3, [pc, #104]	; (c00774c <UART_SetConfig+0x5c4>)
 c0076e2:	627b      	str	r3, [r7, #36]	; 0x24
        break;
 c0076e4:	e00d      	b.n	c007702 <UART_SetConfig+0x57a>
      case UART_CLOCKSOURCE_SYSCLK:
        pclk = HAL_RCC_GetSysClockFreq();
 c0076e6:	f7fe f859 	bl	c00579c <HAL_RCC_GetSysClockFreq>
 c0076ea:	6278      	str	r0, [r7, #36]	; 0x24
        break;
 c0076ec:	e009      	b.n	c007702 <UART_SetConfig+0x57a>
      case UART_CLOCKSOURCE_LSE:
        pclk = (uint32_t) LSE_VALUE;
 c0076ee:	f44f 4300 	mov.w	r3, #32768	; 0x8000
 c0076f2:	627b      	str	r3, [r7, #36]	; 0x24
        break;
 c0076f4:	e005      	b.n	c007702 <UART_SetConfig+0x57a>
      default:
        pclk = 0U;
 c0076f6:	2300      	movs	r3, #0
 c0076f8:	627b      	str	r3, [r7, #36]	; 0x24
        ret = HAL_ERROR;
 c0076fa:	2301      	movs	r3, #1
 c0076fc:	f887 302a 	strb.w	r3, [r7, #42]	; 0x2a
        break;
 c007700:	bf00      	nop
    }

    if (pclk != 0U)
 c007702:	6a7b      	ldr	r3, [r7, #36]	; 0x24
 c007704:	2b00      	cmp	r3, #0
 c007706:	d028      	beq.n	c00775a <UART_SetConfig+0x5d2>
    {
      /* USARTDIV must be greater than or equal to 0d16 */
      usartdiv = (uint16_t)(UART_DIV_SAMPLING16(pclk, huart->Init.BaudRate, huart->Init.ClockPrescaler));
 c007708:	697b      	ldr	r3, [r7, #20]
 c00770a:	6a5b      	ldr	r3, [r3, #36]	; 0x24
 c00770c:	4a10      	ldr	r2, [pc, #64]	; (c007750 <UART_SetConfig+0x5c8>)
 c00770e:	f832 3013 	ldrh.w	r3, [r2, r3, lsl #1]
 c007712:	461a      	mov	r2, r3
 c007714:	6a7b      	ldr	r3, [r7, #36]	; 0x24
 c007716:	fbb3 f2f2 	udiv	r2, r3, r2
 c00771a:	697b      	ldr	r3, [r7, #20]
 c00771c:	685b      	ldr	r3, [r3, #4]
 c00771e:	085b      	lsrs	r3, r3, #1
 c007720:	441a      	add	r2, r3
 c007722:	697b      	ldr	r3, [r7, #20]
 c007724:	685b      	ldr	r3, [r3, #4]
 c007726:	fbb2 f3f3 	udiv	r3, r2, r3
 c00772a:	b29b      	uxth	r3, r3
 c00772c:	623b      	str	r3, [r7, #32]
      if ((usartdiv >= UART_BRR_MIN) && (usartdiv <= UART_BRR_MAX))
 c00772e:	6a3b      	ldr	r3, [r7, #32]
 c007730:	2b0f      	cmp	r3, #15
 c007732:	d90f      	bls.n	c007754 <UART_SetConfig+0x5cc>
 c007734:	6a3b      	ldr	r3, [r7, #32]
 c007736:	f5b3 3f80 	cmp.w	r3, #65536	; 0x10000
 c00773a:	d20b      	bcs.n	c007754 <UART_SetConfig+0x5cc>
      {
        huart->Instance->BRR = usartdiv;
 c00773c:	697b      	ldr	r3, [r7, #20]
 c00773e:	681b      	ldr	r3, [r3, #0]
 c007740:	6a3a      	ldr	r2, [r7, #32]
 c007742:	60da      	str	r2, [r3, #12]
 c007744:	e009      	b.n	c00775a <UART_SetConfig+0x5d2>
 c007746:	bf00      	nop
 c007748:	50008000 	.word	0x50008000
 c00774c:	00f42400 	.word	0x00f42400
 c007750:	0c007d78 	.word	0x0c007d78
      }
      else
      {
        ret = HAL_ERROR;
 c007754:	2301      	movs	r3, #1
 c007756:	f887 302a 	strb.w	r3, [r7, #42]	; 0x2a
      }
    }
  }

  /* Initialize the number of data to process during RX/TX ISR execution */
  huart->NbTxDataToProcess = 1;
 c00775a:	697b      	ldr	r3, [r7, #20]
 c00775c:	2201      	movs	r2, #1
 c00775e:	f8a3 206a 	strh.w	r2, [r3, #106]	; 0x6a
  huart->NbRxDataToProcess = 1;
 c007762:	697b      	ldr	r3, [r7, #20]
 c007764:	2201      	movs	r2, #1
 c007766:	f8a3 2068 	strh.w	r2, [r3, #104]	; 0x68

  /* Clear ISR function pointers */
  huart->RxISR = NULL;
 c00776a:	697b      	ldr	r3, [r7, #20]
 c00776c:	2200      	movs	r2, #0
 c00776e:	671a      	str	r2, [r3, #112]	; 0x70
  huart->TxISR = NULL;
 c007770:	697b      	ldr	r3, [r7, #20]
 c007772:	2200      	movs	r2, #0
 c007774:	675a      	str	r2, [r3, #116]	; 0x74

  return ret;
 c007776:	f897 302a 	ldrb.w	r3, [r7, #42]	; 0x2a
}
 c00777a:	4618      	mov	r0, r3
 c00777c:	3730      	adds	r7, #48	; 0x30
 c00777e:	46bd      	mov	sp, r7
 c007780:	e8bd 8fb0 	ldmia.w	sp!, {r4, r5, r7, r8, r9, sl, fp, pc}

0c007784 <UART_AdvFeatureConfig>:
  * @brief Configure the UART peripheral advanced features.
  * @param huart UART handle.
  * @retval None
  */
void UART_AdvFeatureConfig(UART_HandleTypeDef *huart)
{
 c007784:	b480      	push	{r7}
 c007786:	b083      	sub	sp, #12
 c007788:	af00      	add	r7, sp, #0
 c00778a:	6078      	str	r0, [r7, #4]
  /* Check whether the set of advanced features to configure is properly set */
  assert_param(IS_UART_ADVFEATURE_INIT(huart->AdvancedInit.AdvFeatureInit));

  /* if required, configure TX pin active level inversion */
  if (HAL_IS_BIT_SET(huart->AdvancedInit.AdvFeatureInit, UART_ADVFEATURE_TXINVERT_INIT))
 c00778c:	687b      	ldr	r3, [r7, #4]
 c00778e:	6a9b      	ldr	r3, [r3, #40]	; 0x28
 c007790:	f003 0301 	and.w	r3, r3, #1
 c007794:	2b00      	cmp	r3, #0
 c007796:	d00a      	beq.n	c0077ae <UART_AdvFeatureConfig+0x2a>
  {
    assert_param(IS_UART_ADVFEATURE_TXINV(huart->AdvancedInit.TxPinLevelInvert));
    MODIFY_REG(huart->Instance->CR2, USART_CR2_TXINV, huart->AdvancedInit.TxPinLevelInvert);
 c007798:	687b      	ldr	r3, [r7, #4]
 c00779a:	681b      	ldr	r3, [r3, #0]
 c00779c:	685b      	ldr	r3, [r3, #4]
 c00779e:	f423 3100 	bic.w	r1, r3, #131072	; 0x20000
 c0077a2:	687b      	ldr	r3, [r7, #4]
 c0077a4:	6ada      	ldr	r2, [r3, #44]	; 0x2c
 c0077a6:	687b      	ldr	r3, [r7, #4]
 c0077a8:	681b      	ldr	r3, [r3, #0]
 c0077aa:	430a      	orrs	r2, r1
 c0077ac:	605a      	str	r2, [r3, #4]
  }

  /* if required, configure RX pin active level inversion */
  if (HAL_IS_BIT_SET(huart->AdvancedInit.AdvFeatureInit, UART_ADVFEATURE_RXINVERT_INIT))
 c0077ae:	687b      	ldr	r3, [r7, #4]
 c0077b0:	6a9b      	ldr	r3, [r3, #40]	; 0x28
 c0077b2:	f003 0302 	and.w	r3, r3, #2
 c0077b6:	2b00      	cmp	r3, #0
 c0077b8:	d00a      	beq.n	c0077d0 <UART_AdvFeatureConfig+0x4c>
  {
    assert_param(IS_UART_ADVFEATURE_RXINV(huart->AdvancedInit.RxPinLevelInvert));
    MODIFY_REG(huart->Instance->CR2, USART_CR2_RXINV, huart->AdvancedInit.RxPinLevelInvert);
 c0077ba:	687b      	ldr	r3, [r7, #4]
 c0077bc:	681b      	ldr	r3, [r3, #0]
 c0077be:	685b      	ldr	r3, [r3, #4]
 c0077c0:	f423 3180 	bic.w	r1, r3, #65536	; 0x10000
 c0077c4:	687b      	ldr	r3, [r7, #4]
 c0077c6:	6b1a      	ldr	r2, [r3, #48]	; 0x30
 c0077c8:	687b      	ldr	r3, [r7, #4]
 c0077ca:	681b      	ldr	r3, [r3, #0]
 c0077cc:	430a      	orrs	r2, r1
 c0077ce:	605a      	str	r2, [r3, #4]
  }

  /* if required, configure data inversion */
  if (HAL_IS_BIT_SET(huart->AdvancedInit.AdvFeatureInit, UART_ADVFEATURE_DATAINVERT_INIT))
 c0077d0:	687b      	ldr	r3, [r7, #4]
 c0077d2:	6a9b      	ldr	r3, [r3, #40]	; 0x28
 c0077d4:	f003 0304 	and.w	r3, r3, #4
 c0077d8:	2b00      	cmp	r3, #0
 c0077da:	d00a      	beq.n	c0077f2 <UART_AdvFeatureConfig+0x6e>
  {
    assert_param(IS_UART_ADVFEATURE_DATAINV(huart->AdvancedInit.DataInvert));
    MODIFY_REG(huart->Instance->CR2, USART_CR2_DATAINV, huart->AdvancedInit.DataInvert);
 c0077dc:	687b      	ldr	r3, [r7, #4]
 c0077de:	681b      	ldr	r3, [r3, #0]
 c0077e0:	685b      	ldr	r3, [r3, #4]
 c0077e2:	f423 2180 	bic.w	r1, r3, #262144	; 0x40000
 c0077e6:	687b      	ldr	r3, [r7, #4]
 c0077e8:	6b5a      	ldr	r2, [r3, #52]	; 0x34
 c0077ea:	687b      	ldr	r3, [r7, #4]
 c0077ec:	681b      	ldr	r3, [r3, #0]
 c0077ee:	430a      	orrs	r2, r1
 c0077f0:	605a      	str	r2, [r3, #4]
  }

  /* if required, configure RX/TX pins swap */
  if (HAL_IS_BIT_SET(huart->AdvancedInit.AdvFeatureInit, UART_ADVFEATURE_SWAP_INIT))
 c0077f2:	687b      	ldr	r3, [r7, #4]
 c0077f4:	6a9b      	ldr	r3, [r3, #40]	; 0x28
 c0077f6:	f003 0308 	and.w	r3, r3, #8
 c0077fa:	2b00      	cmp	r3, #0
 c0077fc:	d00a      	beq.n	c007814 <UART_AdvFeatureConfig+0x90>
  {
    assert_param(IS_UART_ADVFEATURE_SWAP(huart->AdvancedInit.Swap));
    MODIFY_REG(huart->Instance->CR2, USART_CR2_SWAP, huart->AdvancedInit.Swap);
 c0077fe:	687b      	ldr	r3, [r7, #4]
 c007800:	681b      	ldr	r3, [r3, #0]
 c007802:	685b      	ldr	r3, [r3, #4]
 c007804:	f423 4100 	bic.w	r1, r3, #32768	; 0x8000
 c007808:	687b      	ldr	r3, [r7, #4]
 c00780a:	6b9a      	ldr	r2, [r3, #56]	; 0x38
 c00780c:	687b      	ldr	r3, [r7, #4]
 c00780e:	681b      	ldr	r3, [r3, #0]
 c007810:	430a      	orrs	r2, r1
 c007812:	605a      	str	r2, [r3, #4]
  }

  /* if required, configure RX overrun detection disabling */
  if (HAL_IS_BIT_SET(huart->AdvancedInit.AdvFeatureInit, UART_ADVFEATURE_RXOVERRUNDISABLE_INIT))
 c007814:	687b      	ldr	r3, [r7, #4]
 c007816:	6a9b      	ldr	r3, [r3, #40]	; 0x28
 c007818:	f003 0310 	and.w	r3, r3, #16
 c00781c:	2b00      	cmp	r3, #0
 c00781e:	d00a      	beq.n	c007836 <UART_AdvFeatureConfig+0xb2>
  {
    assert_param(IS_UART_OVERRUN(huart->AdvancedInit.OverrunDisable));
    MODIFY_REG(huart->Instance->CR3, USART_CR3_OVRDIS, huart->AdvancedInit.OverrunDisable);
 c007820:	687b      	ldr	r3, [r7, #4]
 c007822:	681b      	ldr	r3, [r3, #0]
 c007824:	689b      	ldr	r3, [r3, #8]
 c007826:	f423 5180 	bic.w	r1, r3, #4096	; 0x1000
 c00782a:	687b      	ldr	r3, [r7, #4]
 c00782c:	6bda      	ldr	r2, [r3, #60]	; 0x3c
 c00782e:	687b      	ldr	r3, [r7, #4]
 c007830:	681b      	ldr	r3, [r3, #0]
 c007832:	430a      	orrs	r2, r1
 c007834:	609a      	str	r2, [r3, #8]
  }

  /* if required, configure DMA disabling on reception error */
  if (HAL_IS_BIT_SET(huart->AdvancedInit.AdvFeatureInit, UART_ADVFEATURE_DMADISABLEONERROR_INIT))
 c007836:	687b      	ldr	r3, [r7, #4]
 c007838:	6a9b      	ldr	r3, [r3, #40]	; 0x28
 c00783a:	f003 0320 	and.w	r3, r3, #32
 c00783e:	2b00      	cmp	r3, #0
 c007840:	d00a      	beq.n	c007858 <UART_AdvFeatureConfig+0xd4>
  {
    assert_param(IS_UART_ADVFEATURE_DMAONRXERROR(huart->AdvancedInit.DMADisableonRxError));
    MODIFY_REG(huart->Instance->CR3, USART_CR3_DDRE, huart->AdvancedInit.DMADisableonRxError);
 c007842:	687b      	ldr	r3, [r7, #4]
 c007844:	681b      	ldr	r3, [r3, #0]
 c007846:	689b      	ldr	r3, [r3, #8]
 c007848:	f423 5100 	bic.w	r1, r3, #8192	; 0x2000
 c00784c:	687b      	ldr	r3, [r7, #4]
 c00784e:	6c1a      	ldr	r2, [r3, #64]	; 0x40
 c007850:	687b      	ldr	r3, [r7, #4]
 c007852:	681b      	ldr	r3, [r3, #0]
 c007854:	430a      	orrs	r2, r1
 c007856:	609a      	str	r2, [r3, #8]
  }

  /* if required, configure auto Baud rate detection scheme */
  if (HAL_IS_BIT_SET(huart->AdvancedInit.AdvFeatureInit, UART_ADVFEATURE_AUTOBAUDRATE_INIT))
 c007858:	687b      	ldr	r3, [r7, #4]
 c00785a:	6a9b      	ldr	r3, [r3, #40]	; 0x28
 c00785c:	f003 0340 	and.w	r3, r3, #64	; 0x40
 c007860:	2b00      	cmp	r3, #0
 c007862:	d01a      	beq.n	c00789a <UART_AdvFeatureConfig+0x116>
  {
    assert_param(IS_USART_AUTOBAUDRATE_DETECTION_INSTANCE(huart->Instance));
    assert_param(IS_UART_ADVFEATURE_AUTOBAUDRATE(huart->AdvancedInit.AutoBaudRateEnable));
    MODIFY_REG(huart->Instance->CR2, USART_CR2_ABREN, huart->AdvancedInit.AutoBaudRateEnable);
 c007864:	687b      	ldr	r3, [r7, #4]
 c007866:	681b      	ldr	r3, [r3, #0]
 c007868:	685b      	ldr	r3, [r3, #4]
 c00786a:	f423 1180 	bic.w	r1, r3, #1048576	; 0x100000
 c00786e:	687b      	ldr	r3, [r7, #4]
 c007870:	6c5a      	ldr	r2, [r3, #68]	; 0x44
 c007872:	687b      	ldr	r3, [r7, #4]
 c007874:	681b      	ldr	r3, [r3, #0]
 c007876:	430a      	orrs	r2, r1
 c007878:	605a      	str	r2, [r3, #4]
    /* set auto Baudrate detection parameters if detection is enabled */
    if (huart->AdvancedInit.AutoBaudRateEnable == UART_ADVFEATURE_AUTOBAUDRATE_ENABLE)
 c00787a:	687b      	ldr	r3, [r7, #4]
 c00787c:	6c5b      	ldr	r3, [r3, #68]	; 0x44
 c00787e:	f5b3 1f80 	cmp.w	r3, #1048576	; 0x100000
 c007882:	d10a      	bne.n	c00789a <UART_AdvFeatureConfig+0x116>
    {
      assert_param(IS_UART_ADVFEATURE_AUTOBAUDRATEMODE(huart->AdvancedInit.AutoBaudRateMode));
      MODIFY_REG(huart->Instance->CR2, USART_CR2_ABRMODE, huart->AdvancedInit.AutoBaudRateMode);
 c007884:	687b      	ldr	r3, [r7, #4]
 c007886:	681b      	ldr	r3, [r3, #0]
 c007888:	685b      	ldr	r3, [r3, #4]
 c00788a:	f423 01c0 	bic.w	r1, r3, #6291456	; 0x600000
 c00788e:	687b      	ldr	r3, [r7, #4]
 c007890:	6c9a      	ldr	r2, [r3, #72]	; 0x48
 c007892:	687b      	ldr	r3, [r7, #4]
 c007894:	681b      	ldr	r3, [r3, #0]
 c007896:	430a      	orrs	r2, r1
 c007898:	605a      	str	r2, [r3, #4]
    }
  }

  /* if required, configure MSB first on communication line */
  if (HAL_IS_BIT_SET(huart->AdvancedInit.AdvFeatureInit, UART_ADVFEATURE_MSBFIRST_INIT))
 c00789a:	687b      	ldr	r3, [r7, #4]
 c00789c:	6a9b      	ldr	r3, [r3, #40]	; 0x28
 c00789e:	f003 0380 	and.w	r3, r3, #128	; 0x80
 c0078a2:	2b00      	cmp	r3, #0
 c0078a4:	d00a      	beq.n	c0078bc <UART_AdvFeatureConfig+0x138>
  {
    assert_param(IS_UART_ADVFEATURE_MSBFIRST(huart->AdvancedInit.MSBFirst));
    MODIFY_REG(huart->Instance->CR2, USART_CR2_MSBFIRST, huart->AdvancedInit.MSBFirst);
 c0078a6:	687b      	ldr	r3, [r7, #4]
 c0078a8:	681b      	ldr	r3, [r3, #0]
 c0078aa:	685b      	ldr	r3, [r3, #4]
 c0078ac:	f423 2100 	bic.w	r1, r3, #524288	; 0x80000
 c0078b0:	687b      	ldr	r3, [r7, #4]
 c0078b2:	6cda      	ldr	r2, [r3, #76]	; 0x4c
 c0078b4:	687b      	ldr	r3, [r7, #4]
 c0078b6:	681b      	ldr	r3, [r3, #0]
 c0078b8:	430a      	orrs	r2, r1
 c0078ba:	605a      	str	r2, [r3, #4]
  }
}
 c0078bc:	bf00      	nop
 c0078be:	370c      	adds	r7, #12
 c0078c0:	46bd      	mov	sp, r7
 c0078c2:	f85d 7b04 	ldr.w	r7, [sp], #4
 c0078c6:	4770      	bx	lr

0c0078c8 <UART_CheckIdleState>:
  * @brief Check the UART Idle State.
  * @param huart UART handle.
  * @retval HAL status
  */
HAL_StatusTypeDef UART_CheckIdleState(UART_HandleTypeDef *huart)
{
 c0078c8:	b580      	push	{r7, lr}
 c0078ca:	b086      	sub	sp, #24
 c0078cc:	af02      	add	r7, sp, #8
 c0078ce:	6078      	str	r0, [r7, #4]
  uint32_t tickstart;

  /* Initialize the UART ErrorCode */
  huart->ErrorCode = HAL_UART_ERROR_NONE;
 c0078d0:	687b      	ldr	r3, [r7, #4]
 c0078d2:	2200      	movs	r2, #0
 c0078d4:	f8c3 208c 	str.w	r2, [r3, #140]	; 0x8c

  /* Init tickstart for timeout management */
  tickstart = HAL_GetTick();
 c0078d8:	f7fc fa00 	bl	c003cdc <HAL_GetTick>
 c0078dc:	60f8      	str	r0, [r7, #12]

  /* Check if the Transmitter is enabled */
  if ((huart->Instance->CR1 & USART_CR1_TE) == USART_CR1_TE)
 c0078de:	687b      	ldr	r3, [r7, #4]
 c0078e0:	681b      	ldr	r3, [r3, #0]
 c0078e2:	681b      	ldr	r3, [r3, #0]
 c0078e4:	f003 0308 	and.w	r3, r3, #8
 c0078e8:	2b08      	cmp	r3, #8
 c0078ea:	d10e      	bne.n	c00790a <UART_CheckIdleState+0x42>
  {
    /* Wait until TEACK flag is set */
    if (UART_WaitOnFlagUntilTimeout(huart, USART_ISR_TEACK, RESET, tickstart, HAL_UART_TIMEOUT_VALUE) != HAL_OK)
 c0078ec:	f06f 437e 	mvn.w	r3, #4261412864	; 0xfe000000
 c0078f0:	9300      	str	r3, [sp, #0]
 c0078f2:	68fb      	ldr	r3, [r7, #12]
 c0078f4:	2200      	movs	r2, #0
 c0078f6:	f44f 1100 	mov.w	r1, #2097152	; 0x200000
 c0078fa:	6878      	ldr	r0, [r7, #4]
 c0078fc:	f000 f82f 	bl	c00795e <UART_WaitOnFlagUntilTimeout>
 c007900:	4603      	mov	r3, r0
 c007902:	2b00      	cmp	r3, #0
 c007904:	d001      	beq.n	c00790a <UART_CheckIdleState+0x42>
    {
      /* Timeout occurred */
      return HAL_TIMEOUT;
 c007906:	2303      	movs	r3, #3
 c007908:	e025      	b.n	c007956 <UART_CheckIdleState+0x8e>
    }
  }

  /* Check if the Receiver is enabled */
  if ((huart->Instance->CR1 & USART_CR1_RE) == USART_CR1_RE)
 c00790a:	687b      	ldr	r3, [r7, #4]
 c00790c:	681b      	ldr	r3, [r3, #0]
 c00790e:	681b      	ldr	r3, [r3, #0]
 c007910:	f003 0304 	and.w	r3, r3, #4
 c007914:	2b04      	cmp	r3, #4
 c007916:	d10e      	bne.n	c007936 <UART_CheckIdleState+0x6e>
  {
    /* Wait until REACK flag is set */
    if (UART_WaitOnFlagUntilTimeout(huart, USART_ISR_REACK, RESET, tickstart, HAL_UART_TIMEOUT_VALUE) != HAL_OK)
 c007918:	f06f 437e 	mvn.w	r3, #4261412864	; 0xfe000000
 c00791c:	9300      	str	r3, [sp, #0]
 c00791e:	68fb      	ldr	r3, [r7, #12]
 c007920:	2200      	movs	r2, #0
 c007922:	f44f 0180 	mov.w	r1, #4194304	; 0x400000
 c007926:	6878      	ldr	r0, [r7, #4]
 c007928:	f000 f819 	bl	c00795e <UART_WaitOnFlagUntilTimeout>
 c00792c:	4603      	mov	r3, r0
 c00792e:	2b00      	cmp	r3, #0
 c007930:	d001      	beq.n	c007936 <UART_CheckIdleState+0x6e>
    {
      /* Timeout occurred */
      return HAL_TIMEOUT;
 c007932:	2303      	movs	r3, #3
 c007934:	e00f      	b.n	c007956 <UART_CheckIdleState+0x8e>
    }
  }

  /* Initialize the UART State */
  huart->gState = HAL_UART_STATE_READY;
 c007936:	687b      	ldr	r3, [r7, #4]
 c007938:	2220      	movs	r2, #32
 c00793a:	f8c3 2084 	str.w	r2, [r3, #132]	; 0x84
  huart->RxState = HAL_UART_STATE_READY;
 c00793e:	687b      	ldr	r3, [r7, #4]
 c007940:	2220      	movs	r2, #32
 c007942:	f8c3 2088 	str.w	r2, [r3, #136]	; 0x88
  huart->ReceptionType = HAL_UART_RECEPTION_STANDARD;
 c007946:	687b      	ldr	r3, [r7, #4]
 c007948:	2200      	movs	r2, #0
 c00794a:	66da      	str	r2, [r3, #108]	; 0x6c

  __HAL_UNLOCK(huart);
 c00794c:	687b      	ldr	r3, [r7, #4]
 c00794e:	2200      	movs	r2, #0
 c007950:	f883 2080 	strb.w	r2, [r3, #128]	; 0x80

  return HAL_OK;
 c007954:	2300      	movs	r3, #0
}
 c007956:	4618      	mov	r0, r3
 c007958:	3710      	adds	r7, #16
 c00795a:	46bd      	mov	sp, r7
 c00795c:	bd80      	pop	{r7, pc}

0c00795e <UART_WaitOnFlagUntilTimeout>:
  * @param Timeout   Timeout duration
  * @retval HAL status
  */
HAL_StatusTypeDef UART_WaitOnFlagUntilTimeout(UART_HandleTypeDef *huart, uint32_t Flag, FlagStatus Status,
                                              uint32_t Tickstart, uint32_t Timeout)
{
 c00795e:	b580      	push	{r7, lr}
 c007960:	b084      	sub	sp, #16
 c007962:	af00      	add	r7, sp, #0
 c007964:	60f8      	str	r0, [r7, #12]
 c007966:	60b9      	str	r1, [r7, #8]
 c007968:	603b      	str	r3, [r7, #0]
 c00796a:	4613      	mov	r3, r2
 c00796c:	71fb      	strb	r3, [r7, #7]
  /* Wait until flag is set */
  while ((__HAL_UART_GET_FLAG(huart, Flag) ? SET : RESET) == Status)
 c00796e:	e062      	b.n	c007a36 <UART_WaitOnFlagUntilTimeout+0xd8>
  {
    /* Check for the Timeout */
    if (Timeout != HAL_MAX_DELAY)
 c007970:	69bb      	ldr	r3, [r7, #24]
 c007972:	f1b3 3fff 	cmp.w	r3, #4294967295	; 0xffffffff
 c007976:	d05e      	beq.n	c007a36 <UART_WaitOnFlagUntilTimeout+0xd8>
    {
      if (((HAL_GetTick() - Tickstart) > Timeout) || (Timeout == 0U))
 c007978:	f7fc f9b0 	bl	c003cdc <HAL_GetTick>
 c00797c:	4602      	mov	r2, r0
 c00797e:	683b      	ldr	r3, [r7, #0]
 c007980:	1ad3      	subs	r3, r2, r3
 c007982:	69ba      	ldr	r2, [r7, #24]
 c007984:	429a      	cmp	r2, r3
 c007986:	d302      	bcc.n	c00798e <UART_WaitOnFlagUntilTimeout+0x30>
 c007988:	69bb      	ldr	r3, [r7, #24]
 c00798a:	2b00      	cmp	r3, #0
 c00798c:	d11d      	bne.n	c0079ca <UART_WaitOnFlagUntilTimeout+0x6c>
      {
        /* Disable TXE, RXNE, PE and ERR (Frame error, noise error, overrun error) interrupts for the interrupt process */
        CLEAR_BIT(huart->Instance->CR1, (USART_CR1_RXNEIE_RXFNEIE | USART_CR1_PEIE | USART_CR1_TXEIE_TXFNFIE));
 c00798e:	68fb      	ldr	r3, [r7, #12]
 c007990:	681b      	ldr	r3, [r3, #0]
 c007992:	681a      	ldr	r2, [r3, #0]
 c007994:	68fb      	ldr	r3, [r7, #12]
 c007996:	681b      	ldr	r3, [r3, #0]
 c007998:	f422 72d0 	bic.w	r2, r2, #416	; 0x1a0
 c00799c:	601a      	str	r2, [r3, #0]
        CLEAR_BIT(huart->Instance->CR3, USART_CR3_EIE);
 c00799e:	68fb      	ldr	r3, [r7, #12]
 c0079a0:	681b      	ldr	r3, [r3, #0]
 c0079a2:	689a      	ldr	r2, [r3, #8]
 c0079a4:	68fb      	ldr	r3, [r7, #12]
 c0079a6:	681b      	ldr	r3, [r3, #0]
 c0079a8:	f022 0201 	bic.w	r2, r2, #1
 c0079ac:	609a      	str	r2, [r3, #8]

        huart->gState = HAL_UART_STATE_READY;
 c0079ae:	68fb      	ldr	r3, [r7, #12]
 c0079b0:	2220      	movs	r2, #32
 c0079b2:	f8c3 2084 	str.w	r2, [r3, #132]	; 0x84
        huart->RxState = HAL_UART_STATE_READY;
 c0079b6:	68fb      	ldr	r3, [r7, #12]
 c0079b8:	2220      	movs	r2, #32
 c0079ba:	f8c3 2088 	str.w	r2, [r3, #136]	; 0x88

        __HAL_UNLOCK(huart);
 c0079be:	68fb      	ldr	r3, [r7, #12]
 c0079c0:	2200      	movs	r2, #0
 c0079c2:	f883 2080 	strb.w	r2, [r3, #128]	; 0x80

        return HAL_TIMEOUT;
 c0079c6:	2303      	movs	r3, #3
 c0079c8:	e045      	b.n	c007a56 <UART_WaitOnFlagUntilTimeout+0xf8>
      }

      if (READ_BIT(huart->Instance->CR1, USART_CR1_RE) != 0U)
 c0079ca:	68fb      	ldr	r3, [r7, #12]
 c0079cc:	681b      	ldr	r3, [r3, #0]
 c0079ce:	681b      	ldr	r3, [r3, #0]
 c0079d0:	f003 0304 	and.w	r3, r3, #4
 c0079d4:	2b00      	cmp	r3, #0
 c0079d6:	d02e      	beq.n	c007a36 <UART_WaitOnFlagUntilTimeout+0xd8>
      {
        if (__HAL_UART_GET_FLAG(huart, UART_FLAG_RTOF) == SET)
 c0079d8:	68fb      	ldr	r3, [r7, #12]
 c0079da:	681b      	ldr	r3, [r3, #0]
 c0079dc:	69db      	ldr	r3, [r3, #28]
 c0079de:	f403 6300 	and.w	r3, r3, #2048	; 0x800
 c0079e2:	f5b3 6f00 	cmp.w	r3, #2048	; 0x800
 c0079e6:	d126      	bne.n	c007a36 <UART_WaitOnFlagUntilTimeout+0xd8>
        {
          /* Clear Receiver Timeout flag*/
          __HAL_UART_CLEAR_FLAG(huart, UART_CLEAR_RTOF);
 c0079e8:	68fb      	ldr	r3, [r7, #12]
 c0079ea:	681b      	ldr	r3, [r3, #0]
 c0079ec:	f44f 6200 	mov.w	r2, #2048	; 0x800
 c0079f0:	621a      	str	r2, [r3, #32]

          /* Disable TXE, RXNE, PE and ERR (Frame error, noise error, overrun error) interrupts for the interrupt process */
          CLEAR_BIT(huart->Instance->CR1, (USART_CR1_RXNEIE_RXFNEIE | USART_CR1_PEIE | USART_CR1_TXEIE_TXFNFIE));
 c0079f2:	68fb      	ldr	r3, [r7, #12]
 c0079f4:	681b      	ldr	r3, [r3, #0]
 c0079f6:	681a      	ldr	r2, [r3, #0]
 c0079f8:	68fb      	ldr	r3, [r7, #12]
 c0079fa:	681b      	ldr	r3, [r3, #0]
 c0079fc:	f422 72d0 	bic.w	r2, r2, #416	; 0x1a0
 c007a00:	601a      	str	r2, [r3, #0]
          CLEAR_BIT(huart->Instance->CR3, USART_CR3_EIE);
 c007a02:	68fb      	ldr	r3, [r7, #12]
 c007a04:	681b      	ldr	r3, [r3, #0]
 c007a06:	689a      	ldr	r2, [r3, #8]
 c007a08:	68fb      	ldr	r3, [r7, #12]
 c007a0a:	681b      	ldr	r3, [r3, #0]
 c007a0c:	f022 0201 	bic.w	r2, r2, #1
 c007a10:	609a      	str	r2, [r3, #8]

          huart->gState = HAL_UART_STATE_READY;
 c007a12:	68fb      	ldr	r3, [r7, #12]
 c007a14:	2220      	movs	r2, #32
 c007a16:	f8c3 2084 	str.w	r2, [r3, #132]	; 0x84
          huart->RxState = HAL_UART_STATE_READY;
 c007a1a:	68fb      	ldr	r3, [r7, #12]
 c007a1c:	2220      	movs	r2, #32
 c007a1e:	f8c3 2088 	str.w	r2, [r3, #136]	; 0x88
          huart->ErrorCode = HAL_UART_ERROR_RTO;
 c007a22:	68fb      	ldr	r3, [r7, #12]
 c007a24:	2220      	movs	r2, #32
 c007a26:	f8c3 208c 	str.w	r2, [r3, #140]	; 0x8c

          /* Process Unlocked */
          __HAL_UNLOCK(huart);
 c007a2a:	68fb      	ldr	r3, [r7, #12]
 c007a2c:	2200      	movs	r2, #0
 c007a2e:	f883 2080 	strb.w	r2, [r3, #128]	; 0x80

          return HAL_TIMEOUT;
 c007a32:	2303      	movs	r3, #3
 c007a34:	e00f      	b.n	c007a56 <UART_WaitOnFlagUntilTimeout+0xf8>
  while ((__HAL_UART_GET_FLAG(huart, Flag) ? SET : RESET) == Status)
 c007a36:	68fb      	ldr	r3, [r7, #12]
 c007a38:	681b      	ldr	r3, [r3, #0]
 c007a3a:	69da      	ldr	r2, [r3, #28]
 c007a3c:	68bb      	ldr	r3, [r7, #8]
 c007a3e:	4013      	ands	r3, r2
 c007a40:	68ba      	ldr	r2, [r7, #8]
 c007a42:	429a      	cmp	r2, r3
 c007a44:	bf0c      	ite	eq
 c007a46:	2301      	moveq	r3, #1
 c007a48:	2300      	movne	r3, #0
 c007a4a:	b2db      	uxtb	r3, r3
 c007a4c:	461a      	mov	r2, r3
 c007a4e:	79fb      	ldrb	r3, [r7, #7]
 c007a50:	429a      	cmp	r2, r3
 c007a52:	d08d      	beq.n	c007970 <UART_WaitOnFlagUntilTimeout+0x12>
        }
      }
    }
  }
  return HAL_OK;
 c007a54:	2300      	movs	r3, #0
}
 c007a56:	4618      	mov	r0, r3
 c007a58:	3710      	adds	r7, #16
 c007a5a:	46bd      	mov	sp, r7
 c007a5c:	bd80      	pop	{r7, pc}

0c007a5e <HAL_UARTEx_DisableFifoMode>:
  * @brief  Disable the FIFO mode.
  * @param huart      UART handle.
  * @retval HAL status
  */
HAL_StatusTypeDef HAL_UARTEx_DisableFifoMode(UART_HandleTypeDef *huart)
{
 c007a5e:	b480      	push	{r7}
 c007a60:	b085      	sub	sp, #20
 c007a62:	af00      	add	r7, sp, #0
 c007a64:	6078      	str	r0, [r7, #4]

  /* Check parameters */
  assert_param(IS_UART_FIFO_INSTANCE(huart->Instance));

  /* Process Locked */
  __HAL_LOCK(huart);
 c007a66:	687b      	ldr	r3, [r7, #4]
 c007a68:	f893 3080 	ldrb.w	r3, [r3, #128]	; 0x80
 c007a6c:	2b01      	cmp	r3, #1
 c007a6e:	d101      	bne.n	c007a74 <HAL_UARTEx_DisableFifoMode+0x16>
 c007a70:	2302      	movs	r3, #2
 c007a72:	e027      	b.n	c007ac4 <HAL_UARTEx_DisableFifoMode+0x66>
 c007a74:	687b      	ldr	r3, [r7, #4]
 c007a76:	2201      	movs	r2, #1
 c007a78:	f883 2080 	strb.w	r2, [r3, #128]	; 0x80

  huart->gState = HAL_UART_STATE_BUSY;
 c007a7c:	687b      	ldr	r3, [r7, #4]
 c007a7e:	2224      	movs	r2, #36	; 0x24
 c007a80:	f8c3 2084 	str.w	r2, [r3, #132]	; 0x84

  /* Save actual UART configuration */
  tmpcr1 = READ_REG(huart->Instance->CR1);
 c007a84:	687b      	ldr	r3, [r7, #4]
 c007a86:	681b      	ldr	r3, [r3, #0]
 c007a88:	681b      	ldr	r3, [r3, #0]
 c007a8a:	60fb      	str	r3, [r7, #12]

  /* Disable UART */
  __HAL_UART_DISABLE(huart);
 c007a8c:	687b      	ldr	r3, [r7, #4]
 c007a8e:	681b      	ldr	r3, [r3, #0]
 c007a90:	681a      	ldr	r2, [r3, #0]
 c007a92:	687b      	ldr	r3, [r7, #4]
 c007a94:	681b      	ldr	r3, [r3, #0]
 c007a96:	f022 0201 	bic.w	r2, r2, #1
 c007a9a:	601a      	str	r2, [r3, #0]

  /* Enable FIFO mode */
  CLEAR_BIT(tmpcr1, USART_CR1_FIFOEN);
 c007a9c:	68fb      	ldr	r3, [r7, #12]
 c007a9e:	f023 5300 	bic.w	r3, r3, #536870912	; 0x20000000
 c007aa2:	60fb      	str	r3, [r7, #12]
  huart->FifoMode = UART_FIFOMODE_DISABLE;
 c007aa4:	687b      	ldr	r3, [r7, #4]
 c007aa6:	2200      	movs	r2, #0
 c007aa8:	665a      	str	r2, [r3, #100]	; 0x64

  /* Restore UART configuration */
  WRITE_REG(huart->Instance->CR1, tmpcr1);
 c007aaa:	687b      	ldr	r3, [r7, #4]
 c007aac:	681b      	ldr	r3, [r3, #0]
 c007aae:	68fa      	ldr	r2, [r7, #12]
 c007ab0:	601a      	str	r2, [r3, #0]

  huart->gState = HAL_UART_STATE_READY;
 c007ab2:	687b      	ldr	r3, [r7, #4]
 c007ab4:	2220      	movs	r2, #32
 c007ab6:	f8c3 2084 	str.w	r2, [r3, #132]	; 0x84

  /* Process Unlocked */
  __HAL_UNLOCK(huart);
 c007aba:	687b      	ldr	r3, [r7, #4]
 c007abc:	2200      	movs	r2, #0
 c007abe:	f883 2080 	strb.w	r2, [r3, #128]	; 0x80

  return HAL_OK;
 c007ac2:	2300      	movs	r3, #0
}
 c007ac4:	4618      	mov	r0, r3
 c007ac6:	3714      	adds	r7, #20
 c007ac8:	46bd      	mov	sp, r7
 c007aca:	f85d 7b04 	ldr.w	r7, [sp], #4
 c007ace:	4770      	bx	lr

0c007ad0 <HAL_UARTEx_SetTxFifoThreshold>:
  *            @arg @ref UART_TXFIFO_THRESHOLD_7_8
  *            @arg @ref UART_TXFIFO_THRESHOLD_8_8
  * @retval HAL status
  */
HAL_StatusTypeDef HAL_UARTEx_SetTxFifoThreshold(UART_HandleTypeDef *huart, uint32_t Threshold)
{
 c007ad0:	b580      	push	{r7, lr}
 c007ad2:	b084      	sub	sp, #16
 c007ad4:	af00      	add	r7, sp, #0
 c007ad6:	6078      	str	r0, [r7, #4]
 c007ad8:	6039      	str	r1, [r7, #0]
  /* Check parameters */
  assert_param(IS_UART_FIFO_INSTANCE(huart->Instance));
  assert_param(IS_UART_TXFIFO_THRESHOLD(Threshold));

  /* Process Locked */
  __HAL_LOCK(huart);
 c007ada:	687b      	ldr	r3, [r7, #4]
 c007adc:	f893 3080 	ldrb.w	r3, [r3, #128]	; 0x80
 c007ae0:	2b01      	cmp	r3, #1
 c007ae2:	d101      	bne.n	c007ae8 <HAL_UARTEx_SetTxFifoThreshold+0x18>
 c007ae4:	2302      	movs	r3, #2
 c007ae6:	e02d      	b.n	c007b44 <HAL_UARTEx_SetTxFifoThreshold+0x74>
 c007ae8:	687b      	ldr	r3, [r7, #4]
 c007aea:	2201      	movs	r2, #1
 c007aec:	f883 2080 	strb.w	r2, [r3, #128]	; 0x80

  huart->gState = HAL_UART_STATE_BUSY;
 c007af0:	687b      	ldr	r3, [r7, #4]
 c007af2:	2224      	movs	r2, #36	; 0x24
 c007af4:	f8c3 2084 	str.w	r2, [r3, #132]	; 0x84

  /* Save actual UART configuration */
  tmpcr1 = READ_REG(huart->Instance->CR1);
 c007af8:	687b      	ldr	r3, [r7, #4]
 c007afa:	681b      	ldr	r3, [r3, #0]
 c007afc:	681b      	ldr	r3, [r3, #0]
 c007afe:	60fb      	str	r3, [r7, #12]

  /* Disable UART */
  __HAL_UART_DISABLE(huart);
 c007b00:	687b      	ldr	r3, [r7, #4]
 c007b02:	681b      	ldr	r3, [r3, #0]
 c007b04:	681a      	ldr	r2, [r3, #0]
 c007b06:	687b      	ldr	r3, [r7, #4]
 c007b08:	681b      	ldr	r3, [r3, #0]
 c007b0a:	f022 0201 	bic.w	r2, r2, #1
 c007b0e:	601a      	str	r2, [r3, #0]

  /* Update TX threshold configuration */
  MODIFY_REG(huart->Instance->CR3, USART_CR3_TXFTCFG, Threshold);
 c007b10:	687b      	ldr	r3, [r7, #4]
 c007b12:	681b      	ldr	r3, [r3, #0]
 c007b14:	689b      	ldr	r3, [r3, #8]
 c007b16:	f023 4160 	bic.w	r1, r3, #3758096384	; 0xe0000000
 c007b1a:	687b      	ldr	r3, [r7, #4]
 c007b1c:	681b      	ldr	r3, [r3, #0]
 c007b1e:	683a      	ldr	r2, [r7, #0]
 c007b20:	430a      	orrs	r2, r1
 c007b22:	609a      	str	r2, [r3, #8]

  /* Determine the number of data to process during RX/TX ISR execution */
  UARTEx_SetNbDataToProcess(huart);
 c007b24:	6878      	ldr	r0, [r7, #4]
 c007b26:	f000 f84f 	bl	c007bc8 <UARTEx_SetNbDataToProcess>

  /* Restore UART configuration */
  WRITE_REG(huart->Instance->CR1, tmpcr1);
 c007b2a:	687b      	ldr	r3, [r7, #4]
 c007b2c:	681b      	ldr	r3, [r3, #0]
 c007b2e:	68fa      	ldr	r2, [r7, #12]
 c007b30:	601a      	str	r2, [r3, #0]

  huart->gState = HAL_UART_STATE_READY;
 c007b32:	687b      	ldr	r3, [r7, #4]
 c007b34:	2220      	movs	r2, #32
 c007b36:	f8c3 2084 	str.w	r2, [r3, #132]	; 0x84

  /* Process Unlocked */
  __HAL_UNLOCK(huart);
 c007b3a:	687b      	ldr	r3, [r7, #4]
 c007b3c:	2200      	movs	r2, #0
 c007b3e:	f883 2080 	strb.w	r2, [r3, #128]	; 0x80

  return HAL_OK;
 c007b42:	2300      	movs	r3, #0
}
 c007b44:	4618      	mov	r0, r3
 c007b46:	3710      	adds	r7, #16
 c007b48:	46bd      	mov	sp, r7
 c007b4a:	bd80      	pop	{r7, pc}

0c007b4c <HAL_UARTEx_SetRxFifoThreshold>:
  *            @arg @ref UART_RXFIFO_THRESHOLD_7_8
  *            @arg @ref UART_RXFIFO_THRESHOLD_8_8
  * @retval HAL status
  */
HAL_StatusTypeDef HAL_UARTEx_SetRxFifoThreshold(UART_HandleTypeDef *huart, uint32_t Threshold)
{
 c007b4c:	b580      	push	{r7, lr}
 c007b4e:	b084      	sub	sp, #16
 c007b50:	af00      	add	r7, sp, #0
 c007b52:	6078      	str	r0, [r7, #4]
 c007b54:	6039      	str	r1, [r7, #0]
  /* Check the parameters */
  assert_param(IS_UART_FIFO_INSTANCE(huart->Instance));
  assert_param(IS_UART_RXFIFO_THRESHOLD(Threshold));

  /* Process Locked */
  __HAL_LOCK(huart);
 c007b56:	687b      	ldr	r3, [r7, #4]
 c007b58:	f893 3080 	ldrb.w	r3, [r3, #128]	; 0x80
 c007b5c:	2b01      	cmp	r3, #1
 c007b5e:	d101      	bne.n	c007b64 <HAL_UARTEx_SetRxFifoThreshold+0x18>
 c007b60:	2302      	movs	r3, #2
 c007b62:	e02d      	b.n	c007bc0 <HAL_UARTEx_SetRxFifoThreshold+0x74>
 c007b64:	687b      	ldr	r3, [r7, #4]
 c007b66:	2201      	movs	r2, #1
 c007b68:	f883 2080 	strb.w	r2, [r3, #128]	; 0x80

  huart->gState = HAL_UART_STATE_BUSY;
 c007b6c:	687b      	ldr	r3, [r7, #4]
 c007b6e:	2224      	movs	r2, #36	; 0x24
 c007b70:	f8c3 2084 	str.w	r2, [r3, #132]	; 0x84

  /* Save actual UART configuration */
  tmpcr1 = READ_REG(huart->Instance->CR1);
 c007b74:	687b      	ldr	r3, [r7, #4]
 c007b76:	681b      	ldr	r3, [r3, #0]
 c007b78:	681b      	ldr	r3, [r3, #0]
 c007b7a:	60fb      	str	r3, [r7, #12]

  /* Disable UART */
  __HAL_UART_DISABLE(huart);
 c007b7c:	687b      	ldr	r3, [r7, #4]
 c007b7e:	681b      	ldr	r3, [r3, #0]
 c007b80:	681a      	ldr	r2, [r3, #0]
 c007b82:	687b      	ldr	r3, [r7, #4]
 c007b84:	681b      	ldr	r3, [r3, #0]
 c007b86:	f022 0201 	bic.w	r2, r2, #1
 c007b8a:	601a      	str	r2, [r3, #0]

  /* Update RX threshold configuration */
  MODIFY_REG(huart->Instance->CR3, USART_CR3_RXFTCFG, Threshold);
 c007b8c:	687b      	ldr	r3, [r7, #4]
 c007b8e:	681b      	ldr	r3, [r3, #0]
 c007b90:	689b      	ldr	r3, [r3, #8]
 c007b92:	f023 6160 	bic.w	r1, r3, #234881024	; 0xe000000
 c007b96:	687b      	ldr	r3, [r7, #4]
 c007b98:	681b      	ldr	r3, [r3, #0]
 c007b9a:	683a      	ldr	r2, [r7, #0]
 c007b9c:	430a      	orrs	r2, r1
 c007b9e:	609a      	str	r2, [r3, #8]

  /* Determine the number of data to process during RX/TX ISR execution */
  UARTEx_SetNbDataToProcess(huart);
 c007ba0:	6878      	ldr	r0, [r7, #4]
 c007ba2:	f000 f811 	bl	c007bc8 <UARTEx_SetNbDataToProcess>

  /* Restore UART configuration */
  WRITE_REG(huart->Instance->CR1, tmpcr1);
 c007ba6:	687b      	ldr	r3, [r7, #4]
 c007ba8:	681b      	ldr	r3, [r3, #0]
 c007baa:	68fa      	ldr	r2, [r7, #12]
 c007bac:	601a      	str	r2, [r3, #0]

  huart->gState = HAL_UART_STATE_READY;
 c007bae:	687b      	ldr	r3, [r7, #4]
 c007bb0:	2220      	movs	r2, #32
 c007bb2:	f8c3 2084 	str.w	r2, [r3, #132]	; 0x84

  /* Process Unlocked */
  __HAL_UNLOCK(huart);
 c007bb6:	687b      	ldr	r3, [r7, #4]
 c007bb8:	2200      	movs	r2, #0
 c007bba:	f883 2080 	strb.w	r2, [r3, #128]	; 0x80

  return HAL_OK;
 c007bbe:	2300      	movs	r3, #0
}
 c007bc0:	4618      	mov	r0, r3
 c007bc2:	3710      	adds	r7, #16
 c007bc4:	46bd      	mov	sp, r7
 c007bc6:	bd80      	pop	{r7, pc}

0c007bc8 <UARTEx_SetNbDataToProcess>:
  *       the UART configuration registers.
  * @param huart UART handle.
  * @retval None
  */
static void UARTEx_SetNbDataToProcess(UART_HandleTypeDef *huart)
{
 c007bc8:	b480      	push	{r7}
 c007bca:	b085      	sub	sp, #20
 c007bcc:	af00      	add	r7, sp, #0
 c007bce:	6078      	str	r0, [r7, #4]
  uint8_t rx_fifo_threshold;
  uint8_t tx_fifo_threshold;
  static const uint8_t numerator[] = {1U, 1U, 1U, 3U, 7U, 1U, 0U, 0U};
  static const uint8_t denominator[] = {8U, 4U, 2U, 4U, 8U, 1U, 1U, 1U};

  if (huart->FifoMode == UART_FIFOMODE_DISABLE)
 c007bd0:	687b      	ldr	r3, [r7, #4]
 c007bd2:	6e5b      	ldr	r3, [r3, #100]	; 0x64
 c007bd4:	2b00      	cmp	r3, #0
 c007bd6:	d108      	bne.n	c007bea <UARTEx_SetNbDataToProcess+0x22>
  {
    huart->NbTxDataToProcess = 1U;
 c007bd8:	687b      	ldr	r3, [r7, #4]
 c007bda:	2201      	movs	r2, #1
 c007bdc:	f8a3 206a 	strh.w	r2, [r3, #106]	; 0x6a
    huart->NbRxDataToProcess = 1U;
 c007be0:	687b      	ldr	r3, [r7, #4]
 c007be2:	2201      	movs	r2, #1
 c007be4:	f8a3 2068 	strh.w	r2, [r3, #104]	; 0x68
    rx_fifo_threshold = (uint8_t)(READ_BIT(huart->Instance->CR3, USART_CR3_RXFTCFG) >> USART_CR3_RXFTCFG_Pos);
    tx_fifo_threshold = (uint8_t)(READ_BIT(huart->Instance->CR3, USART_CR3_TXFTCFG) >> USART_CR3_TXFTCFG_Pos);
    huart->NbTxDataToProcess = ((uint16_t)tx_fifo_depth * numerator[tx_fifo_threshold]) / (uint16_t)denominator[tx_fifo_threshold];
    huart->NbRxDataToProcess = ((uint16_t)rx_fifo_depth * numerator[rx_fifo_threshold]) / (uint16_t)denominator[rx_fifo_threshold];
  }
}
 c007be8:	e031      	b.n	c007c4e <UARTEx_SetNbDataToProcess+0x86>
    rx_fifo_depth = RX_FIFO_DEPTH;
 c007bea:	2308      	movs	r3, #8
 c007bec:	73fb      	strb	r3, [r7, #15]
    tx_fifo_depth = TX_FIFO_DEPTH;
 c007bee:	2308      	movs	r3, #8
 c007bf0:	73bb      	strb	r3, [r7, #14]
    rx_fifo_threshold = (uint8_t)(READ_BIT(huart->Instance->CR3, USART_CR3_RXFTCFG) >> USART_CR3_RXFTCFG_Pos);
 c007bf2:	687b      	ldr	r3, [r7, #4]
 c007bf4:	681b      	ldr	r3, [r3, #0]
 c007bf6:	689b      	ldr	r3, [r3, #8]
 c007bf8:	0e5b      	lsrs	r3, r3, #25
 c007bfa:	b2db      	uxtb	r3, r3
 c007bfc:	f003 0307 	and.w	r3, r3, #7
 c007c00:	737b      	strb	r3, [r7, #13]
    tx_fifo_threshold = (uint8_t)(READ_BIT(huart->Instance->CR3, USART_CR3_TXFTCFG) >> USART_CR3_TXFTCFG_Pos);
 c007c02:	687b      	ldr	r3, [r7, #4]
 c007c04:	681b      	ldr	r3, [r3, #0]
 c007c06:	689b      	ldr	r3, [r3, #8]
 c007c08:	0f5b      	lsrs	r3, r3, #29
 c007c0a:	b2db      	uxtb	r3, r3
 c007c0c:	f003 0307 	and.w	r3, r3, #7
 c007c10:	733b      	strb	r3, [r7, #12]
    huart->NbTxDataToProcess = ((uint16_t)tx_fifo_depth * numerator[tx_fifo_threshold]) / (uint16_t)denominator[tx_fifo_threshold];
 c007c12:	7bbb      	ldrb	r3, [r7, #14]
 c007c14:	7b3a      	ldrb	r2, [r7, #12]
 c007c16:	4911      	ldr	r1, [pc, #68]	; (c007c5c <UARTEx_SetNbDataToProcess+0x94>)
 c007c18:	5c8a      	ldrb	r2, [r1, r2]
 c007c1a:	fb02 f303 	mul.w	r3, r2, r3
 c007c1e:	7b3a      	ldrb	r2, [r7, #12]
 c007c20:	490f      	ldr	r1, [pc, #60]	; (c007c60 <UARTEx_SetNbDataToProcess+0x98>)
 c007c22:	5c8a      	ldrb	r2, [r1, r2]
 c007c24:	fb93 f3f2 	sdiv	r3, r3, r2
 c007c28:	b29a      	uxth	r2, r3
 c007c2a:	687b      	ldr	r3, [r7, #4]
 c007c2c:	f8a3 206a 	strh.w	r2, [r3, #106]	; 0x6a
    huart->NbRxDataToProcess = ((uint16_t)rx_fifo_depth * numerator[rx_fifo_threshold]) / (uint16_t)denominator[rx_fifo_threshold];
 c007c30:	7bfb      	ldrb	r3, [r7, #15]
 c007c32:	7b7a      	ldrb	r2, [r7, #13]
 c007c34:	4909      	ldr	r1, [pc, #36]	; (c007c5c <UARTEx_SetNbDataToProcess+0x94>)
 c007c36:	5c8a      	ldrb	r2, [r1, r2]
 c007c38:	fb02 f303 	mul.w	r3, r2, r3
 c007c3c:	7b7a      	ldrb	r2, [r7, #13]
 c007c3e:	4908      	ldr	r1, [pc, #32]	; (c007c60 <UARTEx_SetNbDataToProcess+0x98>)
 c007c40:	5c8a      	ldrb	r2, [r1, r2]
 c007c42:	fb93 f3f2 	sdiv	r3, r3, r2
 c007c46:	b29a      	uxth	r2, r3
 c007c48:	687b      	ldr	r3, [r7, #4]
 c007c4a:	f8a3 2068 	strh.w	r2, [r3, #104]	; 0x68
}
 c007c4e:	bf00      	nop
 c007c50:	3714      	adds	r7, #20
 c007c52:	46bd      	mov	sp, r7
 c007c54:	f85d 7b04 	ldr.w	r7, [sp], #4
 c007c58:	4770      	bx	lr
 c007c5a:	bf00      	nop
 c007c5c:	0c007d90 	.word	0x0c007d90
 c007c60:	0c007d98 	.word	0x0c007d98

0c007c64 <__libc_init_array>:
 c007c64:	b570      	push	{r4, r5, r6, lr}
 c007c66:	4d0d      	ldr	r5, [pc, #52]	; (c007c9c <__libc_init_array+0x38>)
 c007c68:	2600      	movs	r6, #0
 c007c6a:	4c0d      	ldr	r4, [pc, #52]	; (c007ca0 <__libc_init_array+0x3c>)
 c007c6c:	1b64      	subs	r4, r4, r5
 c007c6e:	10a4      	asrs	r4, r4, #2
 c007c70:	42a6      	cmp	r6, r4
 c007c72:	d109      	bne.n	c007c88 <__libc_init_array+0x24>
 c007c74:	4d0b      	ldr	r5, [pc, #44]	; (c007ca4 <__libc_init_array+0x40>)
 c007c76:	2600      	movs	r6, #0
 c007c78:	4c0b      	ldr	r4, [pc, #44]	; (c007ca8 <__libc_init_array+0x44>)
 c007c7a:	f000 f82d 	bl	c007cd8 <_init>
 c007c7e:	1b64      	subs	r4, r4, r5
 c007c80:	10a4      	asrs	r4, r4, #2
 c007c82:	42a6      	cmp	r6, r4
 c007c84:	d105      	bne.n	c007c92 <__libc_init_array+0x2e>
 c007c86:	bd70      	pop	{r4, r5, r6, pc}
 c007c88:	f855 3b04 	ldr.w	r3, [r5], #4
 c007c8c:	3601      	adds	r6, #1
 c007c8e:	4798      	blx	r3
 c007c90:	e7ee      	b.n	c007c70 <__libc_init_array+0xc>
 c007c92:	f855 3b04 	ldr.w	r3, [r5], #4
 c007c96:	3601      	adds	r6, #1
 c007c98:	4798      	blx	r3
 c007c9a:	e7f2      	b.n	c007c82 <__libc_init_array+0x1e>
 c007c9c:	0c007da8 	.word	0x0c007da8
 c007ca0:	0c007da8 	.word	0x0c007da8
 c007ca4:	0c007da8 	.word	0x0c007da8
 c007ca8:	0c007dac 	.word	0x0c007dac

0c007cac <memcpy>:
 c007cac:	440a      	add	r2, r1
 c007cae:	1e43      	subs	r3, r0, #1
 c007cb0:	4291      	cmp	r1, r2
 c007cb2:	d100      	bne.n	c007cb6 <memcpy+0xa>
 c007cb4:	4770      	bx	lr
 c007cb6:	b510      	push	{r4, lr}
 c007cb8:	f811 4b01 	ldrb.w	r4, [r1], #1
 c007cbc:	4291      	cmp	r1, r2
 c007cbe:	f803 4f01 	strb.w	r4, [r3, #1]!
 c007cc2:	d1f9      	bne.n	c007cb8 <memcpy+0xc>
 c007cc4:	bd10      	pop	{r4, pc}

0c007cc6 <memset>:
 c007cc6:	4402      	add	r2, r0
 c007cc8:	4603      	mov	r3, r0
 c007cca:	4293      	cmp	r3, r2
 c007ccc:	d100      	bne.n	c007cd0 <memset+0xa>
 c007cce:	4770      	bx	lr
 c007cd0:	f803 1b01 	strb.w	r1, [r3], #1
 c007cd4:	e7f9      	b.n	c007cca <memset+0x4>
	...

0c007cd8 <_init>:
 c007cd8:	b5f8      	push	{r3, r4, r5, r6, r7, lr}
 c007cda:	bf00      	nop
 c007cdc:	bcf8      	pop	{r3, r4, r5, r6, r7}
 c007cde:	bc08      	pop	{r3}
 c007ce0:	469e      	mov	lr, r3
 c007ce2:	4770      	bx	lr

0c007ce4 <_fini>:
 c007ce4:	b5f8      	push	{r3, r4, r5, r6, r7, lr}
 c007ce6:	bf00      	nop
 c007ce8:	bcf8      	pop	{r3, r4, r5, r6, r7}
 c007cea:	bc08      	pop	{r3}
 c007cec:	469e      	mov	lr, r3
 c007cee:	4770      	bx	lr

Disassembly of section .gnu.sgstubs:

0c03e000 <SECURE_SystemCoreClockUpdate>:
 c03e000:	e97f e97f 	sg
 c03e004:	f7c5 bbe4 	b.w	c0037d0 <__acle_se_SECURE_SystemCoreClockUpdate>

0c03e008 <SECURE_log_cond_br>:
 c03e008:	e97f e97f 	sg
 c03e00c:	f7c5 b921 	b.w	c003252 <__acle_se_SECURE_log_cond_br>

0c03e010 <SECURE_RunCallback>:
 c03e010:	e97f e97f 	sg
 c03e014:	f7c4 bfd2 	b.w	c002fbc <__acle_se_SECURE_RunCallback>

0c03e018 <SECURE_log_call>:
 c03e018:	e97f e97f 	sg
 c03e01c:	f7c5 b8d0 	b.w	c0031c0 <__acle_se_SECURE_log_call>

0c03e020 <SECURE_record_output_data>:
 c03e020:	e97f e97f 	sg
 c03e024:	f7c5 b99e 	b.w	c003364 <__acle_se_SECURE_record_output_data>

0c03e028 <SECURE_Initialize_CFA_engine>:
 c03e028:	e97f e97f 	sg
 c03e02c:	f7c5 b804 	b.w	c003038 <__acle_se_SECURE_Initialize_CFA_engine>

0c03e030 <SECURE_Initialize_Attestation>:
 c03e030:	e97f e97f 	sg
 c03e034:	f7c5 b83c 	b.w	c0030b0 <__acle_se_SECURE_Initialize_Attestation>

0c03e038 <SECURE_log_ret>:
 c03e038:	e97f e97f 	sg
 c03e03c:	f7c5 b874 	b.w	c003128 <__acle_se_SECURE_log_ret>

0c03e040 <SECURE_RegisterCallback>:
 c03e040:	e97f e97f 	sg
 c03e044:	f7c4 bf56 	b.w	c002ef4 <__acle_se_SECURE_RegisterCallback>

0c03e048 <SECURE_run_attestation_wait_mode>:
 c03e048:	e97f e97f 	sg
 c03e04c:	f7c5 b94e 	b.w	c0032ec <__acle_se_SECURE_run_attestation_wait_mode>
	...
